---
triple:          'arm64-apple-darwin'
binary-path:     main
relocations:
  - { offset: 0x1D6A, size: 0x8, addend: 0x0, symName: __ZNSt3__17advanceB8ne180100INS_21__tree_const_iteratorIiPNS_11__tree_nodeIiPvEElEEllvEEvRT_T0_, symObjAddr: 0x1728, symBinAddr: 0x1000033DC, symSize: 0x38 }
  - { offset: 0x6C98, size: 0x8, addend: 0x0, symName: __ZNSt3__1eqB8ne180100ERKNS_21__tree_const_iteratorIiPNS_11__tree_nodeIiPvEElEES7_, symObjAddr: 0x11A8, symBinAddr: 0x100002E5C, symSize: 0x30 }
  - { offset: 0x6CD5, size: 0x8, addend: 0x0, symName: __ZNSt3__14nextB8ne180100INS_21__tree_const_iteratorIiPNS_11__tree_nodeIiPvEElEELi0EEET_S7_NS_15iterator_traitsIS7_E15difference_typeE, symObjAddr: 0x14B4, symBinAddr: 0x100003168, symSize: 0x3C }
  - { offset: 0x6D1E, size: 0x8, addend: 0x0, symName: __ZNSt3__116__tree_prev_iterB8ne180100IPNS_16__tree_node_baseIPvEEPNS_15__tree_end_nodeIS4_EEEET_T0_, symObjAddr: 0x15B4, symBinAddr: 0x100003268, symSize: 0xA4 }
  - { offset: 0x6D6A, size: 0x8, addend: 0x0, symName: __ZNSt3__110__tree_maxB8ne180100IPNS_16__tree_node_baseIPvEEEET_S5_, symObjAddr: 0x1658, symBinAddr: 0x10000330C, symSize: 0x40 }
  - { offset: 0x6D9F, size: 0x8, addend: 0x0, symName: __ZNSt3__120__tree_is_left_childB8ne180100IPNS_16__tree_node_baseIPvEEEEbT_, symObjAddr: 0x1698, symBinAddr: 0x10000334C, symSize: 0x2C }
  - { offset: 0x6DD4, size: 0x8, addend: 0x0, symName: __ZNSt3__121__convert_to_integralB8ne180100El, symObjAddr: 0x1760, symBinAddr: 0x100003414, symSize: 0x14 }
  - { offset: 0x6E00, size: 0x8, addend: 0x0, symName: __ZNSt3__19__advanceB8ne180100INS_21__tree_const_iteratorIiPNS_11__tree_nodeIiPvEElEEEEvRT_NS_15iterator_traitsIS7_E15difference_typeENS_26bidirectional_iterator_tagE, symObjAddr: 0x1774, symBinAddr: 0x100003428, symSize: 0xA4 }
  - { offset: 0x6E49, size: 0x8, addend: 0x0, symName: __ZNSt3__116__tree_next_iterB8ne180100IPNS_15__tree_end_nodeIPNS_16__tree_node_baseIPvEEEES5_EET_T0_, symObjAddr: 0x1850, symBinAddr: 0x100003504, symSize: 0x80 }
  - { offset: 0x6E87, size: 0x8, addend: 0x0, symName: __ZNSt3__110__tree_minB8ne180100IPNS_16__tree_node_baseIPvEEEET_S5_, symObjAddr: 0x18D0, symBinAddr: 0x100003584, symSize: 0x40 }
  - { offset: 0x6EDA, size: 0x8, addend: 0x0, symName: __ZNSt3__117__libcpp_allocateB8ne180100Emm, symObjAddr: 0x1B64, symBinAddr: 0x100003818, symSize: 0x60 }
  - { offset: 0x6F34, size: 0x8, addend: 0x0, symName: __ZNSt3__124__is_overaligned_for_newB8ne180100Em, symObjAddr: 0x1BD8, symBinAddr: 0x10000388C, symSize: 0x20 }
  - { offset: 0x6F62, size: 0x8, addend: 0x0, symName: __ZNSt3__121__libcpp_operator_newB8ne180100IJmSt11align_val_tEEEPvDpT_, symObjAddr: 0x1BF8, symBinAddr: 0x1000038AC, symSize: 0x2C }
  - { offset: 0x6FAF, size: 0x8, addend: 0x0, symName: __ZNSt3__121__libcpp_operator_newB8ne180100IJmEEEPvDpT_, symObjAddr: 0x1C24, symBinAddr: 0x1000038D8, symSize: 0x24 }
  - { offset: 0x6FE8, size: 0x8, addend: 0x0, symName: __ZNSt3__127__tree_balance_after_insertB8ne180100IPNS_16__tree_node_baseIPvEEEEvT_S5_, symObjAddr: 0x1E30, symBinAddr: 0x100003AE4, symSize: 0x27C }
  - { offset: 0x7064, size: 0x8, addend: 0x0, symName: __ZNSt3__118__tree_left_rotateB8ne180100IPNS_16__tree_node_baseIPvEEEEvT_, symObjAddr: 0x20D4, symBinAddr: 0x100003D88, symSize: 0xD8 }
  - { offset: 0x70A3, size: 0x8, addend: 0x0, symName: __ZNSt3__119__tree_right_rotateB8ne180100IPNS_16__tree_node_baseIPvEEEEvT_, symObjAddr: 0x21AC, symBinAddr: 0x100003E60, symSize: 0xCC }
  - { offset: 0x70E5, size: 0x8, addend: 0x0, symName: __ZNSt3__112__destroy_atB8ne180100IiLi0EEEvPT_, symObjAddr: 0x249C, symBinAddr: 0x100004150, symSize: 0x10 }
  - { offset: 0x711C, size: 0x8, addend: 0x0, symName: __ZNSt3__119__libcpp_deallocateB8ne180100EPvmm, symObjAddr: 0x24EC, symBinAddr: 0x1000041A0, symSize: 0x60 }
  - { offset: 0x7181, size: 0x8, addend: 0x0, symName: __ZNSt3__127__do_deallocate_handle_sizeB8ne180100IJSt11align_val_tEEEvPvmDpT_, symObjAddr: 0x254C, symBinAddr: 0x100004200, symSize: 0x30 }
  - { offset: 0x71D4, size: 0x8, addend: 0x0, symName: __ZNSt3__127__do_deallocate_handle_sizeB8ne180100IJEEEvPvmDpT_, symObjAddr: 0x257C, symBinAddr: 0x100004230, symSize: 0x28 }
  - { offset: 0x7212, size: 0x8, addend: 0x0, symName: __ZNSt3__124__libcpp_operator_deleteB8ne180100IJPvSt11align_val_tEEEvDpT_, symObjAddr: 0x25A4, symBinAddr: 0x100004258, symSize: 0x2C }
  - { offset: 0x725B, size: 0x8, addend: 0x0, symName: __ZNSt3__124__libcpp_operator_deleteB8ne180100IJPvEEEvDpT_, symObjAddr: 0x25D0, symBinAddr: 0x100004284, symSize: 0x24 }
  - { offset: 0x731D, size: 0x8, addend: 0x0, symName: __ZNSt3__112__destroy_atB8ne180100INS_11__hash_nodeINS_12basic_stringIcNS_11char_traitsIcEENS_9allocatorIcEEEEPvEELi0EEEvPT_, symObjAddr: 0x29DC, symBinAddr: 0x100004690, symSize: 0x24 }
  - { offset: 0x7387, size: 0x8, addend: 0x0, symName: __ZNSt3__112__destroy_atB8ne180100INS_12basic_stringIcNS_11char_traitsIcEENS_9allocatorIcEEEELi0EEEvPT_, symObjAddr: 0x2A80, symBinAddr: 0x100004734, symSize: 0x24 }
  - { offset: 0x8113, size: 0x8, addend: 0x0, symName: __ZSt28__throw_bad_array_new_lengthB8ne180100v, symObjAddr: 0x1B30, symBinAddr: 0x1000037E4, symSize: 0x34 }
  - { offset: 0x862D, size: 0x8, addend: 0x0, symName: _main, symObjAddr: 0x0, symBinAddr: 0x100001CB4, symSize: 0x80 }
  - { offset: 0x9482, size: 0x8, addend: 0x0, symName: __ZN10SimulationC1Ev, symObjAddr: 0x80, symBinAddr: 0x100001D34, symSize: 0x2C }
  - { offset: 0x94AC, size: 0x8, addend: 0x0, symName: __ZN10SimulationD1Ev, symObjAddr: 0xAC, symBinAddr: 0x100001D60, symSize: 0x2C }
  - { offset: 0x94D6, size: 0x8, addend: 0x0, symName: __ZN10SimulationC2Ev, symObjAddr: 0xD8, symBinAddr: 0x100001D8C, symSize: 0x144 }
  - { offset: 0x9500, size: 0x8, addend: 0x0, symName: __ZNSt3__112basic_stringIcNS_11char_traitsIcEENS_9allocatorIcEEEC1B8ne180100Ev, symObjAddr: 0x21C, symBinAddr: 0x100001ED0, symSize: 0x2C }
  - { offset: 0x9528, size: 0x8, addend: 0x0, symName: __ZNSt3__13setIiNS_4lessIiEENS_9allocatorIiEEEC1B8ne180100ESt16initializer_listIiERKS2_, symObjAddr: 0x248, symBinAddr: 0x100001EFC, symSize: 0x44 }
  - { offset: 0x956E, size: 0x8, addend: 0x0, symName: __ZN21CentralProcessingUnitD1Ev, symObjAddr: 0x28C, symBinAddr: 0x100001F40, symSize: 0x2C }
  - { offset: 0x9598, size: 0x8, addend: 0x0, symName: __ZNSt3__13setIiNS_4lessIiEENS_9allocatorIiEEED1B8ne180100Ev, symObjAddr: 0x2B8, symBinAddr: 0x100001F6C, symSize: 0x2C }
  - { offset: 0x95C0, size: 0x8, addend: 0x0, symName: __ZNSt3__112basic_stringIcNS_11char_traitsIcEENS_9allocatorIcEEEC2B8ne180100Ev, symObjAddr: 0x2E4, symBinAddr: 0x100001F98, symSize: 0x48 }
  - { offset: 0x95F2, size: 0x8, addend: 0x0, symName: __ZNSt3__117__compressed_pairINS_12basic_stringIcNS_11char_traitsIcEENS_9allocatorIcEEE5__repES5_EC1B8ne180100INS_16__value_init_tagENS_18__default_init_tagEEEOT_OT0_, symObjAddr: 0x32C, symBinAddr: 0x100001FE0, symSize: 0x3C }
  - { offset: 0x9648, size: 0x8, addend: 0x0, symName: __ZNKSt3__112basic_stringIcNS_11char_traitsIcEENS_9allocatorIcEEE14__annotate_newB8ne180100Em, symObjAddr: 0x378, symBinAddr: 0x10000202C, symSize: 0x14 }
  - { offset: 0x967B, size: 0x8, addend: 0x0, symName: __ZNSt3__117__compressed_pairINS_12basic_stringIcNS_11char_traitsIcEENS_9allocatorIcEEE5__repES5_EC2B8ne180100INS_16__value_init_tagENS_18__default_init_tagEEEOT_OT0_, symObjAddr: 0x38C, symBinAddr: 0x100002040, symSize: 0x3C }
  - { offset: 0x96D1, size: 0x8, addend: 0x0, symName: __ZNSt3__122__compressed_pair_elemINS_12basic_stringIcNS_11char_traitsIcEENS_9allocatorIcEEE5__repELi0ELb0EEC2B8ne180100ENS_16__value_init_tagE, symObjAddr: 0x3C8, symBinAddr: 0x10000207C, symSize: 0x20 }
  - { offset: 0x9703, size: 0x8, addend: 0x0, symName: __ZNSt3__122__compressed_pair_elemINS_9allocatorIcEELi1ELb1EEC2B8ne180100ENS_18__default_init_tagE, symObjAddr: 0x3E8, symBinAddr: 0x10000209C, symSize: 0x2C }
  - { offset: 0x9735, size: 0x8, addend: 0x0, symName: __ZNSt3__19allocatorIcEC2B8ne180100Ev, symObjAddr: 0x414, symBinAddr: 0x1000020C8, symSize: 0x2C }
  - { offset: 0x975D, size: 0x8, addend: 0x0, symName: __ZNSt3__116__non_trivial_ifILb1ENS_9allocatorIcEEEC2B8ne180100Ev, symObjAddr: 0x440, symBinAddr: 0x1000020F4, symSize: 0x14 }
  - { offset: 0x9785, size: 0x8, addend: 0x0, symName: __ZNSt3__13setIiNS_4lessIiEENS_9allocatorIiEEEC2B8ne180100ESt16initializer_listIiERKS2_, symObjAddr: 0x454, symBinAddr: 0x100002108, symSize: 0x94 }
  - { offset: 0x97CB, size: 0x8, addend: 0x0, symName: __ZNSt3__16__treeIiNS_4lessIiEENS_9allocatorIiEEEC1ERKS2_, symObjAddr: 0x4E8, symBinAddr: 0x10000219C, symSize: 0x34 }
  - { offset: 0x9804, size: 0x8, addend: 0x0, symName: __ZNSt3__13setIiNS_4lessIiEENS_9allocatorIiEEE6insertB8ne180100IPKiEEvT_S9_, symObjAddr: 0x51C, symBinAddr: 0x1000021D0, symSize: 0x80 }
  - { offset: 0x986C, size: 0x8, addend: 0x0, symName: __ZNKSt16initializer_listIiE5beginB8ne180100Ev, symObjAddr: 0x59C, symBinAddr: 0x100002250, symSize: 0x18 }
  - { offset: 0x9890, size: 0x8, addend: 0x0, symName: __ZNKSt16initializer_listIiE3endB8ne180100Ev, symObjAddr: 0x5B4, symBinAddr: 0x100002268, symSize: 0x20 }
  - { offset: 0x98B4, size: 0x8, addend: 0x0, symName: __ZNSt3__16__treeIiNS_4lessIiEENS_9allocatorIiEEED1Ev, symObjAddr: 0x5D4, symBinAddr: 0x100002288, symSize: 0x2C }
  - { offset: 0x98DE, size: 0x8, addend: 0x0, symName: __ZNSt3__16__treeIiNS_4lessIiEENS_9allocatorIiEEEC2ERKS2_, symObjAddr: 0x600, symBinAddr: 0x1000022B4, symSize: 0x7C }
  - { offset: 0x9917, size: 0x8, addend: 0x0, symName: __ZNSt3__117__compressed_pairINS_15__tree_end_nodeIPNS_16__tree_node_baseIPvEEEENS_9allocatorINS_11__tree_nodeIiS3_EEEEEC1B8ne180100ILb1EvEEv, symObjAddr: 0x67C, symBinAddr: 0x100002330, symSize: 0x2C }
  - { offset: 0x994F, size: 0x8, addend: 0x0, symName: __ZNSt3__117__compressed_pairImNS_4lessIiEEEC1B8ne180100IiRKS2_EEOT_OT0_, symObjAddr: 0x6A8, symBinAddr: 0x10000235C, symSize: 0x3C }
  - { offset: 0x99A5, size: 0x8, addend: 0x0, symName: __ZNSt3__16__treeIiNS_4lessIiEENS_9allocatorIiEEE10__end_nodeB8ne180100Ev, symObjAddr: 0x6E4, symBinAddr: 0x100002398, symSize: 0x2C }
  - { offset: 0x99C9, size: 0x8, addend: 0x0, symName: __ZNSt3__16__treeIiNS_4lessIiEENS_9allocatorIiEEE12__begin_nodeB8ne180100Ev, symObjAddr: 0x710, symBinAddr: 0x1000023C4, symSize: 0x14 }
  - { offset: 0x99ED, size: 0x8, addend: 0x0, symName: __ZNSt3__117__compressed_pairINS_15__tree_end_nodeIPNS_16__tree_node_baseIPvEEEENS_9allocatorINS_11__tree_nodeIiS3_EEEEEC2B8ne180100ILb1EvEEv, symObjAddr: 0x724, symBinAddr: 0x1000023D8, symSize: 0x34 }
  - { offset: 0x9A20, size: 0x8, addend: 0x0, symName: __ZNSt3__122__compressed_pair_elemINS_15__tree_end_nodeIPNS_16__tree_node_baseIPvEEEELi0ELb0EEC2B8ne180100ENS_16__value_init_tagE, symObjAddr: 0x758, symBinAddr: 0x10000240C, symSize: 0x2C }
  - { offset: 0x9A52, size: 0x8, addend: 0x0, symName: __ZNSt3__122__compressed_pair_elemINS_9allocatorINS_11__tree_nodeIiPvEEEELi1ELb1EEC2B8ne180100ENS_16__value_init_tagE, symObjAddr: 0x784, symBinAddr: 0x100002438, symSize: 0x2C }
  - { offset: 0x9A84, size: 0x8, addend: 0x0, symName: __ZNSt3__115__tree_end_nodeIPNS_16__tree_node_baseIPvEEEC1B8ne180100Ev, symObjAddr: 0x7B0, symBinAddr: 0x100002464, symSize: 0x2C }
  - { offset: 0x9AAC, size: 0x8, addend: 0x0, symName: __ZNSt3__115__tree_end_nodeIPNS_16__tree_node_baseIPvEEEC2B8ne180100Ev, symObjAddr: 0x7DC, symBinAddr: 0x100002490, symSize: 0x18 }
  - { offset: 0x9AD4, size: 0x8, addend: 0x0, symName: __ZNSt3__19allocatorINS_11__tree_nodeIiPvEEEC2B8ne180100Ev, symObjAddr: 0x7F4, symBinAddr: 0x1000024A8, symSize: 0x2C }
  - { offset: 0x9AFC, size: 0x8, addend: 0x0, symName: __ZNSt3__116__non_trivial_ifILb1ENS_9allocatorINS_11__tree_nodeIiPvEEEEEC2B8ne180100Ev, symObjAddr: 0x820, symBinAddr: 0x1000024D4, symSize: 0x14 }
  - { offset: 0x9B24, size: 0x8, addend: 0x0, symName: __ZNSt3__117__compressed_pairImNS_4lessIiEEEC2B8ne180100IiRKS2_EEOT_OT0_, symObjAddr: 0x834, symBinAddr: 0x1000024E8, symSize: 0x44 }
  - { offset: 0x9B7A, size: 0x8, addend: 0x0, symName: __ZNSt3__122__compressed_pair_elemImLi0ELb0EEC2B8ne180100IivEEOT_, symObjAddr: 0x878, symBinAddr: 0x10000252C, symSize: 0x24 }
  - { offset: 0x9BBA, size: 0x8, addend: 0x0, symName: __ZNSt3__122__compressed_pair_elemINS_4lessIiEELi1ELb1EEC2B8ne180100IRKS2_vEEOT_, symObjAddr: 0x89C, symBinAddr: 0x100002550, symSize: 0x18 }
  - { offset: 0x9BFA, size: 0x8, addend: 0x0, symName: __ZNSt3__114pointer_traitsIPNS_15__tree_end_nodeIPNS_16__tree_node_baseIPvEEEEE10pointer_toB8ne180100ERS6_, symObjAddr: 0x8B4, symBinAddr: 0x100002568, symSize: 0x14 }
  - { offset: 0x9C1C, size: 0x8, addend: 0x0, symName: __ZNSt3__117__compressed_pairINS_15__tree_end_nodeIPNS_16__tree_node_baseIPvEEEENS_9allocatorINS_11__tree_nodeIiS3_EEEEE5firstB8ne180100Ev, symObjAddr: 0x8C8, symBinAddr: 0x10000257C, symSize: 0x24 }
  - { offset: 0x9C40, size: 0x8, addend: 0x0, symName: __ZNSt3__122__compressed_pair_elemINS_15__tree_end_nodeIPNS_16__tree_node_baseIPvEEEELi0ELb0EE5__getB8ne180100Ev, symObjAddr: 0x8EC, symBinAddr: 0x1000025A0, symSize: 0x14 }
  - { offset: 0x9C64, size: 0x8, addend: 0x0, symName: __ZNKSt3__13setIiNS_4lessIiEENS_9allocatorIiEEE4cendB8ne180100Ev, symObjAddr: 0x900, symBinAddr: 0x1000025B4, symSize: 0x2C }
  - { offset: 0x9C88, size: 0x8, addend: 0x0, symName: __ZNSt3__16__treeIiNS_4lessIiEENS_9allocatorIiEEE15__insert_uniqueB8ne180100ENS_21__tree_const_iteratorIiPNS_11__tree_nodeIiPvEElEERKi, symObjAddr: 0x92C, symBinAddr: 0x1000025E0, symSize: 0x64 }
  - { offset: 0x9CCA, size: 0x8, addend: 0x0, symName: __ZNKSt3__13setIiNS_4lessIiEENS_9allocatorIiEEE3endB8ne180100Ev, symObjAddr: 0x990, symBinAddr: 0x100002644, symSize: 0x2C }
  - { offset: 0x9CEE, size: 0x8, addend: 0x0, symName: __ZNKSt3__16__treeIiNS_4lessIiEENS_9allocatorIiEEE3endB8ne180100Ev, symObjAddr: 0x9BC, symBinAddr: 0x100002670, symSize: 0x34 }
  - { offset: 0x9D12, size: 0x8, addend: 0x0, symName: __ZNKSt3__16__treeIiNS_4lessIiEENS_9allocatorIiEEE10__end_nodeB8ne180100Ev, symObjAddr: 0x9F0, symBinAddr: 0x1000026A4, symSize: 0x2C }
  - { offset: 0x9D36, size: 0x8, addend: 0x0, symName: __ZNSt3__121__tree_const_iteratorIiPNS_11__tree_nodeIiPvEElEC1B8ne180100EPNS_15__tree_end_nodeIPNS_16__tree_node_baseIS2_EEEE, symObjAddr: 0xA1C, symBinAddr: 0x1000026D0, symSize: 0x34 }
  - { offset: 0x9D6D, size: 0x8, addend: 0x0, symName: __ZNKSt3__117__compressed_pairINS_15__tree_end_nodeIPNS_16__tree_node_baseIPvEEEENS_9allocatorINS_11__tree_nodeIiS3_EEEEE5firstB8ne180100Ev, symObjAddr: 0xA50, symBinAddr: 0x100002704, symSize: 0x24 }
  - { offset: 0x9D91, size: 0x8, addend: 0x0, symName: __ZNKSt3__122__compressed_pair_elemINS_15__tree_end_nodeIPNS_16__tree_node_baseIPvEEEELi0ELb0EE5__getB8ne180100Ev, symObjAddr: 0xA74, symBinAddr: 0x100002728, symSize: 0x14 }
  - { offset: 0x9DB5, size: 0x8, addend: 0x0, symName: __ZNSt3__121__tree_const_iteratorIiPNS_11__tree_nodeIiPvEElEC2B8ne180100EPNS_15__tree_end_nodeIPNS_16__tree_node_baseIS2_EEEE, symObjAddr: 0xA88, symBinAddr: 0x10000273C, symSize: 0x20 }
  - { offset: 0x9DEC, size: 0x8, addend: 0x0, symName: __ZNSt3__16__treeIiNS_4lessIiEENS_9allocatorIiEEE30__emplace_hint_unique_key_argsIiJRKiEEENS_4pairINS_15__tree_iteratorIiPNS_11__tree_nodeIiPvEElEEbEENS_21__tree_const_iteratorIiSE_lEERKT_DpOT0_, symObjAddr: 0xAA8, symBinAddr: 0x10000275C, symSize: 0x104 }
  - { offset: 0x9EB6, size: 0x8, addend: 0x0, symName: __ZNSt3__122__tree_key_value_typesIiE9__get_keyB8ne180100ERKi, symObjAddr: 0xBAC, symBinAddr: 0x100002860, symSize: 0x14 }
  - { offset: 0x9ED9, size: 0x8, addend: 0x0, symName: __ZNSt3__16__treeIiNS_4lessIiEENS_9allocatorIiEEE12__find_equalIiEERPNS_16__tree_node_baseIPvEENS_21__tree_const_iteratorIiPNS_11__tree_nodeIiS8_EElEERPNS_15__tree_end_nodeISA_EESB_RKT_, symObjAddr: 0xBC0, symBinAddr: 0x100002874, symSize: 0x304 }
  - { offset: 0x9F80, size: 0x8, addend: 0x0, symName: __ZNSt3__16__treeIiNS_4lessIiEENS_9allocatorIiEEE16__construct_nodeIJRKiEEENS_10unique_ptrINS_11__tree_nodeIiPvEENS_22__tree_node_destructorINS3_ISC_EEEEEEDpOT_, symObjAddr: 0xEC4, symBinAddr: 0x100002B78, symSize: 0x110 }
  - { offset: 0x9FDF, size: 0x8, addend: 0x0, symName: __ZNSt3__16__treeIiNS_4lessIiEENS_9allocatorIiEEE16__insert_node_atEPNS_15__tree_end_nodeIPNS_16__tree_node_baseIPvEEEERSA_SA_, symObjAddr: 0xFD4, symBinAddr: 0x100002C88, symSize: 0xCC }
  - { offset: 0xA032, size: 0x8, addend: 0x0, symName: __ZNKSt3__110unique_ptrINS_11__tree_nodeIiPvEENS_22__tree_node_destructorINS_9allocatorIS3_EEEEE3getB8ne180100Ev, symObjAddr: 0x10A0, symBinAddr: 0x100002D54, symSize: 0x28 }
  - { offset: 0xA056, size: 0x8, addend: 0x0, symName: __ZNSt3__110unique_ptrINS_11__tree_nodeIiPvEENS_22__tree_node_destructorINS_9allocatorIS3_EEEEE7releaseB8ne180100Ev, symObjAddr: 0x10C8, symBinAddr: 0x100002D7C, symSize: 0x44 }
  - { offset: 0xA089, size: 0x8, addend: 0x0, symName: __ZNSt3__110unique_ptrINS_11__tree_nodeIiPvEENS_22__tree_node_destructorINS_9allocatorIS3_EEEEED1B8ne180100Ev, symObjAddr: 0x110C, symBinAddr: 0x100002DC0, symSize: 0x2C }
  - { offset: 0xA0B1, size: 0x8, addend: 0x0, symName: __ZNSt3__115__tree_iteratorIiPNS_11__tree_nodeIiPvEElEC1B8ne180100ES4_, symObjAddr: 0x1138, symBinAddr: 0x100002DEC, symSize: 0x34 }
  - { offset: 0xA0F2, size: 0x8, addend: 0x0, symName: __ZNSt3__14pairINS_15__tree_iteratorIiPNS_11__tree_nodeIiPvEElEEbEC1B8ne180100IS6_RbLi0EEEOT_OT0_, symObjAddr: 0x116C, symBinAddr: 0x100002E20, symSize: 0x3C }
  - { offset: 0xA14E, size: 0x8, addend: 0x0, symName: __ZNSt3__16__treeIiNS_4lessIiEENS_9allocatorIiEEE3endB8ne180100Ev, symObjAddr: 0x11D8, symBinAddr: 0x100002E8C, symSize: 0x34 }
  - { offset: 0xA172, size: 0x8, addend: 0x0, symName: __ZNSt3__121__tree_const_iteratorIiPNS_11__tree_nodeIiPvEElEC1B8ne180100ENS_15__tree_iteratorIiS4_lEE, symObjAddr: 0x120C, symBinAddr: 0x100002EC0, symSize: 0x34 }
  - { offset: 0xA1A9, size: 0x8, addend: 0x0, symName: __ZNSt3__16__treeIiNS_4lessIiEENS_9allocatorIiEEE10value_compB8ne180100Ev, symObjAddr: 0x1240, symBinAddr: 0x100002EF4, symSize: 0x28 }
  - { offset: 0xA1CD, size: 0x8, addend: 0x0, symName: __ZNKSt3__14lessIiEclB8ne180100ERKiS3_, symObjAddr: 0x1268, symBinAddr: 0x100002F1C, symSize: 0x34 }
  - { offset: 0xA20F, size: 0x8, addend: 0x0, symName: __ZNKSt3__121__tree_const_iteratorIiPNS_11__tree_nodeIiPvEElEdeB8ne180100Ev, symObjAddr: 0x129C, symBinAddr: 0x100002F50, symSize: 0x28 }
  - { offset: 0xA233, size: 0x8, addend: 0x0, symName: __ZNSt3__16__treeIiNS_4lessIiEENS_9allocatorIiEEE5beginB8ne180100Ev, symObjAddr: 0x12C4, symBinAddr: 0x100002F78, symSize: 0x34 }
  - { offset: 0xA257, size: 0x8, addend: 0x0, symName: __ZNSt3__121__tree_const_iteratorIiPNS_11__tree_nodeIiPvEElEmmB8ne180100Ev, symObjAddr: 0x12F8, symBinAddr: 0x100002FAC, symSize: 0x38 }
  - { offset: 0xA27B, size: 0x8, addend: 0x0, symName: __ZNSt3__16__treeIiNS_4lessIiEENS_9allocatorIiEEE12__find_equalIiEERPNS_16__tree_node_baseIPvEERPNS_15__tree_end_nodeISA_EERKT_, symObjAddr: 0x1330, symBinAddr: 0x100002FE4, symSize: 0x184 }
  - { offset: 0xA2E6, size: 0x8, addend: 0x0, symName: __ZNKSt3__121__tree_const_iteratorIiPNS_11__tree_nodeIiPvEElE8__get_npB8ne180100Ev, symObjAddr: 0x14F0, symBinAddr: 0x1000031A4, symSize: 0x18 }
  - { offset: 0xA30A, size: 0x8, addend: 0x0, symName: __ZNSt3__115__tree_iteratorIiPNS_11__tree_nodeIiPvEElEC1B8ne180100EPNS_15__tree_end_nodeIPNS_16__tree_node_baseIS2_EEEE, symObjAddr: 0x1508, symBinAddr: 0x1000031BC, symSize: 0x34 }
  - { offset: 0xA341, size: 0x8, addend: 0x0, symName: __ZNSt3__115__tree_iteratorIiPNS_11__tree_nodeIiPvEElEC2B8ne180100EPNS_15__tree_end_nodeIPNS_16__tree_node_baseIS2_EEEE, symObjAddr: 0x153C, symBinAddr: 0x1000031F0, symSize: 0x20 }
  - { offset: 0xA378, size: 0x8, addend: 0x0, symName: __ZNSt3__121__tree_const_iteratorIiPNS_11__tree_nodeIiPvEElEC2B8ne180100ENS_15__tree_iteratorIiS4_lEE, symObjAddr: 0x155C, symBinAddr: 0x100003210, symSize: 0x20 }
  - { offset: 0xA3AF, size: 0x8, addend: 0x0, symName: __ZNSt3__117__compressed_pairImNS_4lessIiEEE6secondB8ne180100Ev, symObjAddr: 0x157C, symBinAddr: 0x100003230, symSize: 0x24 }
  - { offset: 0xA3D3, size: 0x8, addend: 0x0, symName: __ZNSt3__122__compressed_pair_elemINS_4lessIiEELi1ELb1EE5__getB8ne180100Ev, symObjAddr: 0x15A0, symBinAddr: 0x100003254, symSize: 0x14 }
  - { offset: 0xA3F7, size: 0x8, addend: 0x0, symName: __ZNKSt3__116__tree_node_baseIPvE15__parent_unsafeB8ne180100Ev, symObjAddr: 0x16C4, symBinAddr: 0x100003378, symSize: 0x18 }
  - { offset: 0xA41B, size: 0x8, addend: 0x0, symName: __ZNKSt3__16__treeIiNS_4lessIiEENS_9allocatorIiEEE6__rootB8ne180100Ev, symObjAddr: 0x16DC, symBinAddr: 0x100003390, symSize: 0x28 }
  - { offset: 0xA43F, size: 0x8, addend: 0x0, symName: __ZNKSt3__16__treeIiNS_4lessIiEENS_9allocatorIiEEE10__root_ptrB8ne180100Ev, symObjAddr: 0x1704, symBinAddr: 0x1000033B8, symSize: 0x24 }
  - { offset: 0xA463, size: 0x8, addend: 0x0, symName: __ZNSt3__121__tree_const_iteratorIiPNS_11__tree_nodeIiPvEElEppB8ne180100Ev, symObjAddr: 0x1818, symBinAddr: 0x1000034CC, symSize: 0x38 }
  - { offset: 0xA487, size: 0x8, addend: 0x0, symName: __ZNSt3__16__treeIiNS_4lessIiEENS_9allocatorIiEEE12__node_allocB8ne180100Ev, symObjAddr: 0x1910, symBinAddr: 0x1000035C4, symSize: 0x28 }
  - { offset: 0xA4AB, size: 0x8, addend: 0x0, symName: __ZNSt3__116allocator_traitsINS_9allocatorINS_11__tree_nodeIiPvEEEEE8allocateB8ne180100ERS5_m, symObjAddr: 0x1938, symBinAddr: 0x1000035EC, symSize: 0x2C }
  - { offset: 0xA4DD, size: 0x8, addend: 0x0, symName: __ZNSt3__122__tree_node_destructorINS_9allocatorINS_11__tree_nodeIiPvEEEEEC1B8ne180100ERS5_b, symObjAddr: 0x1964, symBinAddr: 0x100003618, symSize: 0x48 }
  - { offset: 0xA528, size: 0x8, addend: 0x0, symName: __ZNSt3__110unique_ptrINS_11__tree_nodeIiPvEENS_22__tree_node_destructorINS_9allocatorIS3_EEEEEC1B8ne180100ILb1EvEEPS3_NS_16__dependent_typeINS_27__unique_ptr_deleter_sfinaeIS7_EEXT_EE20__good_rval_ref_typeE, symObjAddr: 0x19AC, symBinAddr: 0x100003660, symSize: 0x3C }
  - { offset: 0xA577, size: 0x8, addend: 0x0, symName: __ZNSt3__116allocator_traitsINS_9allocatorINS_11__tree_nodeIiPvEEEEE9constructB8ne180100IiJRKiEvEEvRS5_PT_DpOT0_, symObjAddr: 0x19E8, symBinAddr: 0x10000369C, symSize: 0x34 }
  - { offset: 0xA5CD, size: 0x8, addend: 0x0, symName: __ZNSt3__122__tree_key_value_typesIiE9__get_ptrB8ne180100ERi, symObjAddr: 0x1A1C, symBinAddr: 0x1000036D0, symSize: 0x14 }
  - { offset: 0xA5F0, size: 0x8, addend: 0x0, symName: __ZNKSt3__110unique_ptrINS_11__tree_nodeIiPvEENS_22__tree_node_destructorINS_9allocatorIS3_EEEEEptB8ne180100Ev, symObjAddr: 0x1A30, symBinAddr: 0x1000036E4, symSize: 0x28 }
  - { offset: 0xA614, size: 0x8, addend: 0x0, symName: __ZNSt3__110unique_ptrINS_11__tree_nodeIiPvEENS_22__tree_node_destructorINS_9allocatorIS3_EEEEE11get_deleterB8ne180100Ev, symObjAddr: 0x1A58, symBinAddr: 0x10000370C, symSize: 0x24 }
  - { offset: 0xA638, size: 0x8, addend: 0x0, symName: __ZNSt3__117__compressed_pairINS_15__tree_end_nodeIPNS_16__tree_node_baseIPvEEEENS_9allocatorINS_11__tree_nodeIiS3_EEEEE6secondB8ne180100Ev, symObjAddr: 0x1A7C, symBinAddr: 0x100003730, symSize: 0x24 }
  - { offset: 0xA65C, size: 0x8, addend: 0x0, symName: __ZNSt3__122__compressed_pair_elemINS_9allocatorINS_11__tree_nodeIiPvEEEELi1ELb1EE5__getB8ne180100Ev, symObjAddr: 0x1AA0, symBinAddr: 0x100003754, symSize: 0x14 }
  - { offset: 0xA680, size: 0x8, addend: 0x0, symName: __ZNSt3__19allocatorINS_11__tree_nodeIiPvEEE8allocateB8ne180100Em, symObjAddr: 0x1AB4, symBinAddr: 0x100003768, symSize: 0x58 }
  - { offset: 0xA6BC, size: 0x8, addend: 0x0, symName: __ZNSt3__116allocator_traitsINS_9allocatorINS_11__tree_nodeIiPvEEEEE8max_sizeB8ne180100IS5_vEEmRKS5_, symObjAddr: 0x1B0C, symBinAddr: 0x1000037C0, symSize: 0x24 }
  - { offset: 0xA6E9, size: 0x8, addend: 0x0, symName: __ZNKSt3__19allocatorINS_11__tree_nodeIiPvEEE8max_sizeB8ne180100Ev, symObjAddr: 0x1BC4, symBinAddr: 0x100003878, symSize: 0x14 }
  - { offset: 0xA70D, size: 0x8, addend: 0x0, symName: __ZNSt3__122__tree_node_destructorINS_9allocatorINS_11__tree_nodeIiPvEEEEEC2B8ne180100ERS5_b, symObjAddr: 0x1C48, symBinAddr: 0x1000038FC, symSize: 0x38 }
  - { offset: 0xA753, size: 0x8, addend: 0x0, symName: __ZNSt3__110unique_ptrINS_11__tree_nodeIiPvEENS_22__tree_node_destructorINS_9allocatorIS3_EEEEEC2B8ne180100ILb1EvEEPS3_NS_16__dependent_typeINS_27__unique_ptr_deleter_sfinaeIS7_EEXT_EE20__good_rval_ref_typeE, symObjAddr: 0x1C80, symBinAddr: 0x100003934, symSize: 0x48 }
  - { offset: 0xA7A2, size: 0x8, addend: 0x0, symName: __ZNSt3__117__compressed_pairIPNS_11__tree_nodeIiPvEENS_22__tree_node_destructorINS_9allocatorIS3_EEEEEC1B8ne180100IRS4_S8_EEOT_OT0_, symObjAddr: 0x1CC8, symBinAddr: 0x10000397C, symSize: 0x3C }
  - { offset: 0xA7F8, size: 0x8, addend: 0x0, symName: __ZNSt3__117__compressed_pairIPNS_11__tree_nodeIiPvEENS_22__tree_node_destructorINS_9allocatorIS3_EEEEEC2B8ne180100IRS4_S8_EEOT_OT0_, symObjAddr: 0x1D04, symBinAddr: 0x1000039B8, symSize: 0x48 }
  - { offset: 0xA84E, size: 0x8, addend: 0x0, symName: __ZNSt3__122__compressed_pair_elemIPNS_11__tree_nodeIiPvEELi0ELb0EEC2B8ne180100IRS4_vEEOT_, symObjAddr: 0x1D4C, symBinAddr: 0x100003A00, symSize: 0x24 }
  - { offset: 0xA88E, size: 0x8, addend: 0x0, symName: __ZNSt3__122__compressed_pair_elemINS_22__tree_node_destructorINS_9allocatorINS_11__tree_nodeIiPvEEEEEELi1ELb0EEC2B8ne180100IS7_vEEOT_, symObjAddr: 0x1D70, symBinAddr: 0x100003A24, symSize: 0x24 }
  - { offset: 0xA8CE, size: 0x8, addend: 0x0, symName: __ZNSt3__19allocatorINS_11__tree_nodeIiPvEEE9constructB8ne180100IiJRKiEEEvPT_DpOT0_, symObjAddr: 0x1D94, symBinAddr: 0x100003A48, symSize: 0x28 }
  - { offset: 0xA922, size: 0x8, addend: 0x0, symName: __ZNKSt3__117__compressed_pairIPNS_11__tree_nodeIiPvEENS_22__tree_node_destructorINS_9allocatorIS3_EEEEE5firstB8ne180100Ev, symObjAddr: 0x1DBC, symBinAddr: 0x100003A70, symSize: 0x24 }
  - { offset: 0xA946, size: 0x8, addend: 0x0, symName: __ZNKSt3__122__compressed_pair_elemIPNS_11__tree_nodeIiPvEELi0ELb0EE5__getB8ne180100Ev, symObjAddr: 0x1DE0, symBinAddr: 0x100003A94, symSize: 0x14 }
  - { offset: 0xA96A, size: 0x8, addend: 0x0, symName: __ZNSt3__117__compressed_pairIPNS_11__tree_nodeIiPvEENS_22__tree_node_destructorINS_9allocatorIS3_EEEEE6secondB8ne180100Ev, symObjAddr: 0x1DF4, symBinAddr: 0x100003AA8, symSize: 0x28 }
  - { offset: 0xA98E, size: 0x8, addend: 0x0, symName: __ZNSt3__122__compressed_pair_elemINS_22__tree_node_destructorINS_9allocatorINS_11__tree_nodeIiPvEEEEEELi1ELb0EE5__getB8ne180100Ev, symObjAddr: 0x1E1C, symBinAddr: 0x100003AD0, symSize: 0x14 }
  - { offset: 0xA9B2, size: 0x8, addend: 0x0, symName: __ZNSt3__16__treeIiNS_4lessIiEENS_9allocatorIiEEE4sizeB8ne180100Ev, symObjAddr: 0x20AC, symBinAddr: 0x100003D60, symSize: 0x28 }
  - { offset: 0xA9D6, size: 0x8, addend: 0x0, symName: __ZNSt3__116__tree_node_baseIPvE12__set_parentB8ne180100EPS2_, symObjAddr: 0x2278, symBinAddr: 0x100003F2C, symSize: 0x20 }
  - { offset: 0xAA09, size: 0x8, addend: 0x0, symName: __ZNSt3__117__compressed_pairImNS_4lessIiEEE5firstB8ne180100Ev, symObjAddr: 0x2298, symBinAddr: 0x100003F4C, symSize: 0x24 }
  - { offset: 0xAA2D, size: 0x8, addend: 0x0, symName: __ZNSt3__122__compressed_pair_elemImLi0ELb0EE5__getB8ne180100Ev, symObjAddr: 0x22BC, symBinAddr: 0x100003F70, symSize: 0x14 }
  - { offset: 0xAA51, size: 0x8, addend: 0x0, symName: __ZNSt3__117__compressed_pairIPNS_11__tree_nodeIiPvEENS_22__tree_node_destructorINS_9allocatorIS3_EEEEE5firstB8ne180100Ev, symObjAddr: 0x22D0, symBinAddr: 0x100003F84, symSize: 0x24 }
  - { offset: 0xAA75, size: 0x8, addend: 0x0, symName: __ZNSt3__122__compressed_pair_elemIPNS_11__tree_nodeIiPvEELi0ELb0EE5__getB8ne180100Ev, symObjAddr: 0x22F4, symBinAddr: 0x100003FA8, symSize: 0x14 }
  - { offset: 0xAA99, size: 0x8, addend: 0x0, symName: __ZNSt3__110unique_ptrINS_11__tree_nodeIiPvEENS_22__tree_node_destructorINS_9allocatorIS3_EEEEED2B8ne180100Ev, symObjAddr: 0x2308, symBinAddr: 0x100003FBC, symSize: 0x30 }
  - { offset: 0xAAC1, size: 0x8, addend: 0x0, symName: __ZNSt3__110unique_ptrINS_11__tree_nodeIiPvEENS_22__tree_node_destructorINS_9allocatorIS3_EEEEE5resetB8ne180100EPS3_, symObjAddr: 0x2338, symBinAddr: 0x100003FEC, symSize: 0x78 }
  - { offset: 0xAB03, size: 0x8, addend: 0x0, symName: __ZNSt3__122__tree_node_destructorINS_9allocatorINS_11__tree_nodeIiPvEEEEEclB8ne180100EPS4_, symObjAddr: 0x23B0, symBinAddr: 0x100004064, symSize: 0x90 }
  - { offset: 0xAB36, size: 0x8, addend: 0x0, symName: __ZNSt3__116allocator_traitsINS_9allocatorINS_11__tree_nodeIiPvEEEEE7destroyB8ne180100IivvEEvRS5_PT_, symObjAddr: 0x2440, symBinAddr: 0x1000040F4, symSize: 0x28 }
  - { offset: 0xAB6F, size: 0x8, addend: 0x0, symName: __ZNSt3__116allocator_traitsINS_9allocatorINS_11__tree_nodeIiPvEEEEE10deallocateB8ne180100ERS5_PS4_m, symObjAddr: 0x2468, symBinAddr: 0x10000411C, symSize: 0x34 }
  - { offset: 0xABB0, size: 0x8, addend: 0x0, symName: __ZNSt3__19allocatorINS_11__tree_nodeIiPvEEE10deallocateB8ne180100EPS3_m, symObjAddr: 0x24AC, symBinAddr: 0x100004160, symSize: 0x40 }
  - { offset: 0xABF0, size: 0x8, addend: 0x0, symName: __ZNSt3__115__tree_iteratorIiPNS_11__tree_nodeIiPvEElEC2B8ne180100ES4_, symObjAddr: 0x25F4, symBinAddr: 0x1000042A8, symSize: 0x20 }
  - { offset: 0xAC27, size: 0x8, addend: 0x0, symName: __ZNSt3__14pairINS_15__tree_iteratorIiPNS_11__tree_nodeIiPvEElEEbEC2B8ne180100IS6_RbLi0EEEOT_OT0_, symObjAddr: 0x2614, symBinAddr: 0x1000042C8, symSize: 0x38 }
  - { offset: 0xAC83, size: 0x8, addend: 0x0, symName: __ZNSt3__16__treeIiNS_4lessIiEENS_9allocatorIiEEED2Ev, symObjAddr: 0x264C, symBinAddr: 0x100004300, symSize: 0x38 }
  - { offset: 0xACAD, size: 0x8, addend: 0x0, symName: __ZNSt3__16__treeIiNS_4lessIiEENS_9allocatorIiEEE7destroyEPNS_11__tree_nodeIiPvEE, symObjAddr: 0x2684, symBinAddr: 0x100004338, symSize: 0xA4 }
  - { offset: 0xACF7, size: 0x8, addend: 0x0, symName: __ZN21CentralProcessingUnitD2Ev, symObjAddr: 0x2728, symBinAddr: 0x1000043DC, symSize: 0x38 }
  - { offset: 0xAD21, size: 0x8, addend: 0x0, symName: __ZNSt3__113unordered_setINS_12basic_stringIcNS_11char_traitsIcEENS_9allocatorIcEEEENS_4hashIS6_EENS_8equal_toIS6_EENS4_IS6_EEED1B8ne180100Ev, symObjAddr: 0x2760, symBinAddr: 0x100004414, symSize: 0x2C }
  - { offset: 0xAD49, size: 0x8, addend: 0x0, symName: __ZNSt3__113unordered_setINS_12basic_stringIcNS_11char_traitsIcEENS_9allocatorIcEEEENS_4hashIS6_EENS_8equal_toIS6_EENS4_IS6_EEED2B8ne180100Ev, symObjAddr: 0x278C, symBinAddr: 0x100004440, symSize: 0x2C }
  - { offset: 0xAD71, size: 0x8, addend: 0x0, symName: __ZNSt3__112__hash_tableINS_12basic_stringIcNS_11char_traitsIcEENS_9allocatorIcEEEENS_4hashIS6_EENS_8equal_toIS6_EENS4_IS6_EEED1Ev, symObjAddr: 0x27B8, symBinAddr: 0x10000446C, symSize: 0x2C }
  - { offset: 0xAD9B, size: 0x8, addend: 0x0, symName: __ZNSt3__112__hash_tableINS_12basic_stringIcNS_11char_traitsIcEENS_9allocatorIcEEEENS_4hashIS6_EENS_8equal_toIS6_EENS4_IS6_EEED2Ev, symObjAddr: 0x27E4, symBinAddr: 0x100004498, symSize: 0x48 }
  - { offset: 0xADC5, size: 0x8, addend: 0x0, symName: __ZNSt3__112__hash_tableINS_12basic_stringIcNS_11char_traitsIcEENS_9allocatorIcEEEENS_4hashIS6_EENS_8equal_toIS6_EENS4_IS6_EEE17__deallocate_nodeEPNS_16__hash_node_baseIPNS_11__hash_nodeIS6_PvEEEE, symObjAddr: 0x282C, symBinAddr: 0x1000044E0, symSize: 0xC0 }
  - { offset: 0xAE2D, size: 0x8, addend: 0x0, symName: __ZNSt3__117__compressed_pairINS_16__hash_node_baseIPNS_11__hash_nodeINS_12basic_stringIcNS_11char_traitsIcEENS_9allocatorIcEEEEPvEEEENS6_ISA_EEE5firstB8ne180100Ev, symObjAddr: 0x28EC, symBinAddr: 0x1000045A0, symSize: 0x24 }
  - { offset: 0xAE51, size: 0x8, addend: 0x0, symName: __ZNSt3__110unique_ptrIA_PNS_16__hash_node_baseIPNS_11__hash_nodeINS_12basic_stringIcNS_11char_traitsIcEENS_9allocatorIcEEEEPvEEEENS_25__bucket_list_deallocatorINS6_ISD_EEEEED1B8ne180100Ev, symObjAddr: 0x2910, symBinAddr: 0x1000045C4, symSize: 0x2C }
  - { offset: 0xAE79, size: 0x8, addend: 0x0, symName: __ZNSt3__112__hash_tableINS_12basic_stringIcNS_11char_traitsIcEENS_9allocatorIcEEEENS_4hashIS6_EENS_8equal_toIS6_EENS4_IS6_EEE12__node_allocB8ne180100Ev, symObjAddr: 0x293C, symBinAddr: 0x1000045F0, symSize: 0x28 }
  - { offset: 0xAE9D, size: 0x8, addend: 0x0, symName: __ZNSt3__116__hash_node_baseIPNS_11__hash_nodeINS_12basic_stringIcNS_11char_traitsIcEENS_9allocatorIcEEEEPvEEE8__upcastB8ne180100Ev, symObjAddr: 0x2964, symBinAddr: 0x100004618, symSize: 0x24 }
  - { offset: 0xAEC6, size: 0x8, addend: 0x0, symName: __ZNSt3__116allocator_traitsINS_9allocatorINS_11__hash_nodeINS_12basic_stringIcNS_11char_traitsIcEENS1_IcEEEEPvEEEEE7destroyB8ne180100IS7_vvEEvRSA_PT_, symObjAddr: 0x2988, symBinAddr: 0x10000463C, symSize: 0x28 }
  - { offset: 0xAEFF, size: 0x8, addend: 0x0, symName: __ZNSt3__122__hash_key_value_typesINS_12basic_stringIcNS_11char_traitsIcEENS_9allocatorIcEEEEE9__get_ptrB8ne180100ERS6_, symObjAddr: 0x29B0, symBinAddr: 0x100004664, symSize: 0x14 }
  - { offset: 0xAF21, size: 0x8, addend: 0x0, symName: __ZNSt3__111__hash_nodeINS_12basic_stringIcNS_11char_traitsIcEENS_9allocatorIcEEEEPvE11__get_valueB8ne180100Ev, symObjAddr: 0x29C4, symBinAddr: 0x100004678, symSize: 0x18 }
  - { offset: 0xAF45, size: 0x8, addend: 0x0, symName: __ZNSt3__116allocator_traitsINS_9allocatorINS_11__hash_nodeINS_12basic_stringIcNS_11char_traitsIcEENS1_IcEEEEPvEEEEE10deallocateB8ne180100ERSA_PS9_m, symObjAddr: 0x2A00, symBinAddr: 0x1000046B4, symSize: 0x34 }
  - { offset: 0xAF86, size: 0x8, addend: 0x0, symName: __ZNSt3__117__compressed_pairINS_16__hash_node_baseIPNS_11__hash_nodeINS_12basic_stringIcNS_11char_traitsIcEENS_9allocatorIcEEEEPvEEEENS6_ISA_EEE6secondB8ne180100Ev, symObjAddr: 0x2A34, symBinAddr: 0x1000046E8, symSize: 0x24 }
  - { offset: 0xAFAA, size: 0x8, addend: 0x0, symName: __ZNSt3__122__compressed_pair_elemINS_9allocatorINS_11__hash_nodeINS_12basic_stringIcNS_11char_traitsIcEENS1_IcEEEEPvEEEELi1ELb1EE5__getB8ne180100Ev, symObjAddr: 0x2A58, symBinAddr: 0x10000470C, symSize: 0x14 }
  - { offset: 0xAFCE, size: 0x8, addend: 0x0, symName: __ZNSt3__114pointer_traitsIPNS_16__hash_node_baseIPNS_11__hash_nodeINS_12basic_stringIcNS_11char_traitsIcEENS_9allocatorIcEEEEPvEEEEE10pointer_toB8ne180100ERSC_, symObjAddr: 0x2A6C, symBinAddr: 0x100004720, symSize: 0x14 }
  - { offset: 0xAFF0, size: 0x8, addend: 0x0, symName: __ZNSt3__111__hash_nodeINS_12basic_stringIcNS_11char_traitsIcEENS_9allocatorIcEEEEPvED1B8ne180100Ev, symObjAddr: 0x2AA4, symBinAddr: 0x100004758, symSize: 0x2C }
  - { offset: 0xB018, size: 0x8, addend: 0x0, symName: __ZNSt3__111__hash_nodeINS_12basic_stringIcNS_11char_traitsIcEENS_9allocatorIcEEEEPvED2B8ne180100Ev, symObjAddr: 0x2AD0, symBinAddr: 0x100004784, symSize: 0x14 }
  - { offset: 0xB040, size: 0x8, addend: 0x0, symName: __ZNSt3__19allocatorINS_11__hash_nodeINS_12basic_stringIcNS_11char_traitsIcEENS0_IcEEEEPvEEE10deallocateB8ne180100EPS8_m, symObjAddr: 0x2AE4, symBinAddr: 0x100004798, symSize: 0x44 }
  - { offset: 0xB080, size: 0x8, addend: 0x0, symName: __ZNSt3__122__compressed_pair_elemINS_16__hash_node_baseIPNS_11__hash_nodeINS_12basic_stringIcNS_11char_traitsIcEENS_9allocatorIcEEEEPvEEEELi0ELb0EE5__getB8ne180100Ev, symObjAddr: 0x2B28, symBinAddr: 0x1000047DC, symSize: 0x14 }
  - { offset: 0xB0A4, size: 0x8, addend: 0x0, symName: __ZNSt3__110unique_ptrIA_PNS_16__hash_node_baseIPNS_11__hash_nodeINS_12basic_stringIcNS_11char_traitsIcEENS_9allocatorIcEEEEPvEEEENS_25__bucket_list_deallocatorINS6_ISD_EEEEED2B8ne180100Ev, symObjAddr: 0x2B3C, symBinAddr: 0x1000047F0, symSize: 0x30 }
  - { offset: 0xB0CC, size: 0x8, addend: 0x0, symName: __ZNSt3__110unique_ptrIA_PNS_16__hash_node_baseIPNS_11__hash_nodeINS_12basic_stringIcNS_11char_traitsIcEENS_9allocatorIcEEEEPvEEEENS_25__bucket_list_deallocatorINS6_ISD_EEEEE5resetB8ne180100EDn, symObjAddr: 0x2B6C, symBinAddr: 0x100004820, symSize: 0x6C }
  - { offset: 0xB10A, size: 0x8, addend: 0x0, symName: __ZNSt3__117__compressed_pairIPPNS_16__hash_node_baseIPNS_11__hash_nodeINS_12basic_stringIcNS_11char_traitsIcEENS_9allocatorIcEEEEPvEEEENS_25__bucket_list_deallocatorINS6_ISD_EEEEE5firstB8ne180100Ev, symObjAddr: 0x2BD8, symBinAddr: 0x10000488C, symSize: 0x24 }
  - { offset: 0xB12E, size: 0x8, addend: 0x0, symName: __ZNSt3__117__compressed_pairIPPNS_16__hash_node_baseIPNS_11__hash_nodeINS_12basic_stringIcNS_11char_traitsIcEENS_9allocatorIcEEEEPvEEEENS_25__bucket_list_deallocatorINS6_ISD_EEEEE6secondB8ne180100Ev, symObjAddr: 0x2BFC, symBinAddr: 0x1000048B0, symSize: 0x28 }
  - { offset: 0xB152, size: 0x8, addend: 0x0, symName: __ZNSt3__125__bucket_list_deallocatorINS_9allocatorIPNS_16__hash_node_baseIPNS_11__hash_nodeINS_12basic_stringIcNS_11char_traitsIcEENS1_IcEEEEPvEEEEEEEclB8ne180100EPSD_, symObjAddr: 0x2C24, symBinAddr: 0x1000048D8, symSize: 0x58 }
  - { offset: 0xB185, size: 0x8, addend: 0x0, symName: __ZNSt3__122__compressed_pair_elemIPPNS_16__hash_node_baseIPNS_11__hash_nodeINS_12basic_stringIcNS_11char_traitsIcEENS_9allocatorIcEEEEPvEEEELi0ELb0EE5__getB8ne180100Ev, symObjAddr: 0x2C7C, symBinAddr: 0x100004930, symSize: 0x14 }
  - { offset: 0xB1A9, size: 0x8, addend: 0x0, symName: __ZNSt3__122__compressed_pair_elemINS_25__bucket_list_deallocatorINS_9allocatorIPNS_16__hash_node_baseIPNS_11__hash_nodeINS_12basic_stringIcNS_11char_traitsIcEENS2_IcEEEEPvEEEEEEEELi1ELb0EE5__getB8ne180100Ev, symObjAddr: 0x2C90, symBinAddr: 0x100004944, symSize: 0x14 }
  - { offset: 0xB1CD, size: 0x8, addend: 0x0, symName: __ZNSt3__116allocator_traitsINS_9allocatorIPNS_16__hash_node_baseIPNS_11__hash_nodeINS_12basic_stringIcNS_11char_traitsIcEENS1_IcEEEEPvEEEEEEE10deallocateB8ne180100ERSE_PSD_m, symObjAddr: 0x2CA4, symBinAddr: 0x100004958, symSize: 0x34 }
  - { offset: 0xB20E, size: 0x8, addend: 0x0, symName: __ZNSt3__125__bucket_list_deallocatorINS_9allocatorIPNS_16__hash_node_baseIPNS_11__hash_nodeINS_12basic_stringIcNS_11char_traitsIcEENS1_IcEEEEPvEEEEEEE7__allocB8ne180100Ev, symObjAddr: 0x2CD8, symBinAddr: 0x10000498C, symSize: 0x24 }
  - { offset: 0xB232, size: 0x8, addend: 0x0, symName: __ZNSt3__125__bucket_list_deallocatorINS_9allocatorIPNS_16__hash_node_baseIPNS_11__hash_nodeINS_12basic_stringIcNS_11char_traitsIcEENS1_IcEEEEPvEEEEEEE4sizeB8ne180100Ev, symObjAddr: 0x2CFC, symBinAddr: 0x1000049B0, symSize: 0x24 }
  - { offset: 0xB256, size: 0x8, addend: 0x0, symName: __ZNSt3__19allocatorIPNS_16__hash_node_baseIPNS_11__hash_nodeINS_12basic_stringIcNS_11char_traitsIcEENS0_IcEEEEPvEEEEE10deallocateB8ne180100EPSC_m, symObjAddr: 0x2D20, symBinAddr: 0x1000049D4, symSize: 0x40 }
  - { offset: 0xB296, size: 0x8, addend: 0x0, symName: __ZNSt3__117__compressed_pairImNS_9allocatorIPNS_16__hash_node_baseIPNS_11__hash_nodeINS_12basic_stringIcNS_11char_traitsIcEENS1_IcEEEEPvEEEEEEE6secondB8ne180100Ev, symObjAddr: 0x2D60, symBinAddr: 0x100004A14, symSize: 0x24 }
  - { offset: 0xB2BA, size: 0x8, addend: 0x0, symName: __ZNSt3__122__compressed_pair_elemINS_9allocatorIPNS_16__hash_node_baseIPNS_11__hash_nodeINS_12basic_stringIcNS_11char_traitsIcEENS1_IcEEEEPvEEEEEELi1ELb1EE5__getB8ne180100Ev, symObjAddr: 0x2D84, symBinAddr: 0x100004A38, symSize: 0x14 }
  - { offset: 0xB2DE, size: 0x8, addend: 0x0, symName: __ZNSt3__117__compressed_pairImNS_9allocatorIPNS_16__hash_node_baseIPNS_11__hash_nodeINS_12basic_stringIcNS_11char_traitsIcEENS1_IcEEEEPvEEEEEEE5firstB8ne180100Ev, symObjAddr: 0x2D98, symBinAddr: 0x100004A4C, symSize: 0x24 }
  - { offset: 0xB302, size: 0x8, addend: 0x0, symName: __ZNSt3__13setIiNS_4lessIiEENS_9allocatorIiEEED2B8ne180100Ev, symObjAddr: 0x2DBC, symBinAddr: 0x100004A70, symSize: 0x2C }
  - { offset: 0xB32A, size: 0x8, addend: 0x0, symName: __ZN10SimulationD2Ev, symObjAddr: 0x2DE8, symBinAddr: 0x100004A9C, symSize: 0x48 }
  - { offset: 0xEB0B, size: 0x8, addend: 0x0, symName: __ZNSt3__14__fs10filesystem5beginB8ne180100ENS1_18directory_iteratorE, symObjAddr: 0x91C, symBinAddr: 0x1000053D4, symSize: 0x38 }
  - { offset: 0xEB38, size: 0x8, addend: 0x0, symName: __ZNSt3__14__fs10filesystem3endB8ne180100ENS1_18directory_iteratorE, symObjAddr: 0x9B4, symBinAddr: 0x10000546C, symSize: 0x34 }
  - { offset: 0xEB61, size: 0x8, addend: 0x0, symName: __ZNSt3__14__fs10filesystemneB8ne180100ERKNS1_18directory_iteratorES4_, symObjAddr: 0x9E8, symBinAddr: 0x1000054A0, symSize: 0x34 }
  - { offset: 0xEB9B, size: 0x8, addend: 0x0, symName: __ZNSt3__14__fs10filesystemlsB8ne180100IcNS_11char_traitsIcEELi0EEERNS_13basic_ostreamIT_T0_EES9_RKNS1_4pathE, symObjAddr: 0xA78, symBinAddr: 0x100005530, symSize: 0x54 }
  - { offset: 0xEBF0, size: 0x8, addend: 0x0, symName: __ZNSt3__14__fs10filesystemeqB8ne180100ERKNS1_18directory_iteratorES4_, symObjAddr: 0x1414, symBinAddr: 0x100005E70, symSize: 0x30 }
  - { offset: 0xEC2A, size: 0x8, addend: 0x0, symName: __ZNSt3__14__fs10filesystem6existsB8ne180100ENS1_11file_statusE, symObjAddr: 0x16DC, symBinAddr: 0x100006138, symSize: 0x78 }
  - { offset: 0xEC57, size: 0x8, addend: 0x0, symName: __ZNSt3__14__fs10filesystem12status_knownB8ne180100ENS1_11file_statusE, symObjAddr: 0x180C, symBinAddr: 0x100006268, symSize: 0x30 }
  - { offset: 0x1919F, size: 0x8, addend: 0x0, symName: __ZNSt3__124__put_character_sequenceB8ne180100IcNS_11char_traitsIcEEEERNS_13basic_ostreamIT_T0_EES7_PKS4_m, symObjAddr: 0x1F2C, symBinAddr: 0x100006818, symSize: 0x1EC }
  - { offset: 0x1ED4D, size: 0x8, addend: 0x0, symName: __ZNSt3__1lsB8ne180100INS_11char_traitsIcEEEERNS_13basic_ostreamIcT_EES6_PKc, symObjAddr: 0xE4, symBinAddr: 0x100004BC8, symSize: 0x48 }
  - { offset: 0x1ED93, size: 0x8, addend: 0x0, symName: __ZNSt3__1lsB8ne180100IcNS_11char_traitsIcEENS_9allocatorIcEEEERNS_13basic_ostreamIT_T0_EES9_RKNS_12basic_stringIS6_S7_T1_EE, symObjAddr: 0x7C0, symBinAddr: 0x100005278, symSize: 0x4C }
  - { offset: 0x1EDEB, size: 0x8, addend: 0x0, symName: __ZNSt3__1plB8ne180100IcNS_11char_traitsIcEENS_9allocatorIcEEEENS_12basic_stringIT_T0_T1_EEOS9_PKS6_, symObjAddr: 0x80C, symBinAddr: 0x1000052C4, symSize: 0x40 }
  - { offset: 0x1FFB9, size: 0x8, addend: 0x0, symName: __ZNSt3__134__libcpp_atomic_refcount_incrementB8ne180100IlEET_RS1_, symObjAddr: 0x11B0, symBinAddr: 0x100005C0C, symSize: 0x30 }
  - { offset: 0x1FFEE, size: 0x8, addend: 0x0, symName: __ZNSt3__134__libcpp_atomic_refcount_decrementB8ne180100IlEET_RS1_, symObjAddr: 0x1344, symBinAddr: 0x100005DA0, symSize: 0x30 }
  - { offset: 0x20023, size: 0x8, addend: 0x0, symName: __ZNSt3__1eqB8ne180100INS_4__fs10filesystem12__dir_streamES3_EEbRKNS_10shared_ptrIT_EERKNS4_IT0_EE, symObjAddr: 0x1444, symBinAddr: 0x100005EA0, symSize: 0x48 }
  - { offset: 0x20072, size: 0x8, addend: 0x0, symName: __ZNSt3__115make_error_codeB8ne180100ENS_4errcE, symObjAddr: 0x1754, symBinAddr: 0x1000061B0, symSize: 0x40 }
  - { offset: 0x2009F, size: 0x8, addend: 0x0, symName: __ZNSt3__120__libcpp_unreachableB8ne180100Ev, symObjAddr: 0x17C8, symBinAddr: 0x100006224, symSize: 0x4 }
  - { offset: 0x200B8, size: 0x8, addend: 0x0, symName: __ZNSt3__116__pad_and_outputB8ne180100IcNS_11char_traitsIcEEEENS_19ostreambuf_iteratorIT_T0_EES6_PKS4_S8_S8_RNS_8ios_baseES4_, symObjAddr: 0x2168, symBinAddr: 0x100006A54, symSize: 0x240 }
  - { offset: 0x20187, size: 0x8, addend: 0x0, symName: __ZNSt3__112__to_addressB8ne180100IcEEPT_S2_, symObjAddr: 0x25D8, symBinAddr: 0x100006EC4, symSize: 0x14 }
  - { offset: 0x201EF, size: 0x8, addend: 0x0, symName: __ZNSt3__19use_facetB8ne180100INS_5ctypeIcEEEERKT_RKNS_6localeE, symObjAddr: 0x27E8, symBinAddr: 0x1000070D4, symSize: 0x2C }
  - { offset: 0x206C7, size: 0x8, addend: 0x0, symName: __ZNSt3__118__constexpr_strlenB8ne180100EPKc, symObjAddr: 0x2880, symBinAddr: 0x10000716C, symSize: 0x24 }
  - { offset: 0x206F3, size: 0x8, addend: 0x0, symName: __ZNSt3__112__to_addressB8ne180100IKcEEPT_S3_, symObjAddr: 0x28CC, symBinAddr: 0x1000071B8, symSize: 0x14 }
  - { offset: 0x2075B, size: 0x8, addend: 0x0, symName: __ZNSt3__112__destroy_atB8ne180100INS_11__hash_nodeINS_17__hash_value_typeIiNS_12basic_stringIcNS_11char_traitsIcEENS_9allocatorIcEEEEEEPvEELi0EEEvPT_, symObjAddr: 0x3244, symBinAddr: 0x100007B0C, symSize: 0x24 }
  - { offset: 0x207C5, size: 0x8, addend: 0x0, symName: __ZNSt3__112__destroy_atB8ne180100INS_4pairIKiNS_12basic_stringIcNS_11char_traitsIcEENS_9allocatorIcEEEEEELi0EEEvPT_, symObjAddr: 0x32E8, symBinAddr: 0x100007BB0, symSize: 0x24 }
  - { offset: 0x207FC, size: 0x8, addend: 0x0, symName: __ZNSt3__17launderB8ne180100INS_4pairIKiNS_12basic_stringIcNS_11char_traitsIcEENS_9allocatorIcEEEEEEEEPT_SB_, symObjAddr: 0x3330, symBinAddr: 0x100007BF8, symSize: 0x24 }
  - { offset: 0x20833, size: 0x8, addend: 0x0, symName: __ZNSt3__19__launderB8ne180100INS_4pairIKiNS_12basic_stringIcNS_11char_traitsIcEENS_9allocatorIcEEEEEEEEPT_SB_, symObjAddr: 0x3354, symBinAddr: 0x100007C1C, symSize: 0x14 }
  - { offset: 0x2086A, size: 0x8, addend: 0x0, symName: __ZNSt3__18distanceB8ne180100IPKcEENS_15iterator_traitsIT_E15difference_typeES4_S4_, symObjAddr: 0x3B4C, symBinAddr: 0x1000082D8, symSize: 0x2C }
  - { offset: 0x208AD, size: 0x8, addend: 0x0, symName: __ZNSt3__110__distanceB8ne180100IPKcEENS_15iterator_traitsIT_E15difference_typeES4_S4_NS_26random_access_iterator_tagE, symObjAddr: 0x3D98, symBinAddr: 0x100008524, symSize: 0x20 }
  - { offset: 0x208FA, size: 0x8, addend: 0x0, symName: __ZNSt3__121__is_pointer_in_rangeB8ne180100IccLi0EEEbPKT_S3_PKT0_, symObjAddr: 0x3DB8, symBinAddr: 0x100008544, symSize: 0x68 }
  - { offset: 0x209D2, size: 0x8, addend: 0x0, symName: __ZNSt3__119__allocate_at_leastB8ne180100INS_9allocatorIcEEEENS_19__allocation_resultINS_16allocator_traitsIT_E7pointerEEERS5_m, symObjAddr: 0x42AC, symBinAddr: 0x100008A38, symSize: 0x40 }
  - { offset: 0x20A16, size: 0x8, addend: 0x0, symName: __ZNSt3__120__throw_length_errorB8ne180100EPKc, symObjAddr: 0x44DC, symBinAddr: 0x100008C68, symSize: 0x64 }
  - { offset: 0x20A3E, size: 0x8, addend: 0x0, symName: __ZNSt3__1lsB8ne180100INS_11char_traitsIcEELPv0EEERNS_13basic_ostreamIcT_EES7_RKNS_21__quoted_output_proxyIcS2_EE, symObjAddr: 0x4710, symBinAddr: 0x100008DB8, symSize: 0x48 }
  - { offset: 0x20A8A, size: 0x8, addend: 0x0, symName: __ZNSt3__18__quotedB8ne180100IcNS_11char_traitsIcEENS_9allocatorIcEEEENS_21__quoted_output_proxyIT_T0_EERKNS_12basic_stringIS6_S7_T1_EES6_S6_, symObjAddr: 0x4758, symBinAddr: 0x100008E00, symSize: 0x68 }
  - { offset: 0x20AF1, size: 0x8, addend: 0x0, symName: __ZNSt3__115__quoted_outputB8ne180100IcNS_11char_traitsIcEEEERNS_13basic_ostreamIT_T0_EES7_PKS4_S9_S4_S4_, symObjAddr: 0x47D4, symBinAddr: 0x100008E7C, symSize: 0x148 }
  - { offset: 0x20BEF, size: 0x8, addend: 0x0, symName: __ZNSt3__116__constrain_hashB8ne180100Emm, symObjAddr: 0x4FC4, symBinAddr: 0x10000966C, symSize: 0x98 }
  - { offset: 0x20C29, size: 0x8, addend: 0x0, symName: __ZNSt3__13maxB8ne180100ImEERKT_S3_S3_, symObjAddr: 0x52D0, symBinAddr: 0x100009978, symSize: 0x2C }
  - { offset: 0x20C6C, size: 0x8, addend: 0x0, symName: __ZNSt3__116__is_hash_power2B8ne180100Em, symObjAddr: 0x52FC, symBinAddr: 0x1000099A4, symSize: 0x50 }
  - { offset: 0x20C9D, size: 0x8, addend: 0x0, symName: __ZNSt3__16__math4ceilB8ne180100Ef, symObjAddr: 0x534C, symBinAddr: 0x1000099F4, symSize: 0x18 }
  - { offset: 0x20D0E, size: 0x8, addend: 0x0, symName: __ZNSt3__17launderB8ne180100IKNS_4pairIKiNS_12basic_stringIcNS_11char_traitsIcEENS_9allocatorIcEEEEEEEEPT_SC_, symObjAddr: 0x5690, symBinAddr: 0x100009D38, symSize: 0x24 }
  - { offset: 0x20D45, size: 0x8, addend: 0x0, symName: __ZNSt3__19__launderB8ne180100IKNS_4pairIKiNS_12basic_stringIcNS_11char_traitsIcEENS_9allocatorIcEEEEEEEEPT_SC_, symObjAddr: 0x56B4, symBinAddr: 0x100009D5C, symSize: 0x14 }
  - { offset: 0x20D9A, size: 0x8, addend: 0x0, symName: __ZNSt3__114__construct_atB8ne180100INS_11__hash_nodeINS_17__hash_value_typeIiNS_12basic_stringIcNS_11char_traitsIcEENS_9allocatorIcEEEEEEPvEEJDnRmEPSB_EEPT_SF_DpOT0_, symObjAddr: 0x5778, symBinAddr: 0x100009E20, symSize: 0x40 }
  - { offset: 0x20E00, size: 0x8, addend: 0x0, symName: __ZNSt3__116__next_hash_pow2B8ne180100Em, symObjAddr: 0x6064, symBinAddr: 0x10000A70C, symSize: 0x6C }
  - { offset: 0x20E2C, size: 0x8, addend: 0x0, symName: __ZNSt3__112__libcpp_clzB8ne180100Em, symObjAddr: 0x6228, symBinAddr: 0x10000A8D0, symSize: 0x1C }
  - { offset: 0x20E58, size: 0x8, addend: 0x0, symName: __ZNSt3__13maxB8ne180100ImNS_6__lessIvvEEEERKT_S5_S5_T0_, symObjAddr: 0x6244, symBinAddr: 0x10000A8EC, symSize: 0x54 }
  - { offset: 0x20EB2, size: 0x8, addend: 0x0, symName: __ZNSt3__1eqB8ne180100ERKNS_19__hash_map_iteratorINS_15__hash_iteratorIPNS_11__hash_nodeINS_17__hash_value_typeIiNS_12basic_stringIcNS_11char_traitsIcEENS_9allocatorIcEEEEEEPvEEEEEESH_, symObjAddr: 0x6588, symBinAddr: 0x10000AC30, symSize: 0x30 }
  - { offset: 0x20EF0, size: 0x8, addend: 0x0, symName: __ZNSt3__120__throw_out_of_rangeB8ne180100EPKc, symObjAddr: 0x65F0, symBinAddr: 0x10000AC98, symSize: 0x64 }
  - { offset: 0x20F18, size: 0x8, addend: 0x0, symName: __ZNSt3__1eqB8ne180100ERKNS_15__hash_iteratorIPNS_11__hash_nodeINS_17__hash_value_typeIiNS_12basic_stringIcNS_11char_traitsIcEENS_9allocatorIcEEEEEEPvEEEESF_, symObjAddr: 0x685C, symBinAddr: 0x10000AF04, symSize: 0x30 }
  - { offset: 0x20FBB, size: 0x8, addend: 0x0, symName: __ZNSt3__1neB8ne180100ERKNS_21__tree_const_iteratorIiPNS_11__tree_nodeIiPvEElEES7_, symObjAddr: 0x6B4C, symBinAddr: 0x10000B1A0, symSize: 0x34 }
  - { offset: 0x23319, size: 0x8, addend: 0x0, symName: __ZN10Simulation7settingEv, symObjAddr: 0x0, symBinAddr: 0x100004AE4, symSize: 0xE4 }
  - { offset: 0x2334E, size: 0x8, addend: 0x0, symName: __ZN10Simulation19change_program_typeEv, symObjAddr: 0x12C, symBinAddr: 0x100004C10, symSize: 0x1F4 }
  - { offset: 0x23391, size: 0x8, addend: 0x0, symName: __ZN10Simulation20choose_assembly_fileEv, symObjAddr: 0x320, symBinAddr: 0x100004E04, symSize: 0x448 }
  - { offset: 0x23430, size: 0x8, addend: 0x0, symName: __ZNSt3__112basic_stringIcNS_11char_traitsIcEENS_9allocatorIcEEEaSB8ne180100EPKc, symObjAddr: 0x794, symBinAddr: 0x10000524C, symSize: 0x2C }
  - { offset: 0x235DF, size: 0x8, addend: 0x0, symName: __ZNSt3__113unordered_mapIiNS_12basic_stringIcNS_11char_traitsIcEENS_9allocatorIcEEEENS_4hashIiEENS_8equal_toIiEENS4_INS_4pairIKiS6_EEEEEC1B8ne180100Ev, symObjAddr: 0x84C, symBinAddr: 0x100005304, symSize: 0x2C }
  - { offset: 0x2361D, size: 0x8, addend: 0x0, symName: __ZNSt3__14__fs10filesystem4pathC1B8ne180100IA15_cvEERKT_NS2_6formatE, symObjAddr: 0x878, symBinAddr: 0x100005330, symSize: 0x3C }
  - { offset: 0x23669, size: 0x8, addend: 0x0, symName: __ZNSt3__14__fs10filesystem18directory_iteratorC1B8ne180100ERKNS1_4pathE, symObjAddr: 0x8B4, symBinAddr: 0x10000536C, symSize: 0x3C }
  - { offset: 0x2369F, size: 0x8, addend: 0x0, symName: __ZNSt3__14__fs10filesystem4pathD1B8ne180100Ev, symObjAddr: 0x8F0, symBinAddr: 0x1000053A8, symSize: 0x2C }
  - { offset: 0x236C7, size: 0x8, addend: 0x0, symName: __ZNSt3__14__fs10filesystem18directory_iteratorC1B8ne180100ERKS2_, symObjAddr: 0x954, symBinAddr: 0x10000540C, symSize: 0x34 }
  - { offset: 0x236F9, size: 0x8, addend: 0x0, symName: __ZNSt3__14__fs10filesystem18directory_iteratorD1B8ne180100Ev, symObjAddr: 0x988, symBinAddr: 0x100005440, symSize: 0x2C }
  - { offset: 0x23721, size: 0x8, addend: 0x0, symName: __ZNKSt3__14__fs10filesystem18directory_iteratordeB8ne180100Ev, symObjAddr: 0xA1C, symBinAddr: 0x1000054D4, symSize: 0x24 }
  - { offset: 0x23745, size: 0x8, addend: 0x0, symName: __ZNKSt3__14__fs10filesystem15directory_entry15is_regular_fileB8ne180100Ev, symObjAddr: 0xA40, symBinAddr: 0x1000054F8, symSize: 0x38 }
  - { offset: 0x23769, size: 0x8, addend: 0x0, symName: __ZNKSt3__14__fs10filesystem15directory_entry4pathB8ne180100Ev, symObjAddr: 0xACC, symBinAddr: 0x100005584, symSize: 0x14 }
  - { offset: 0x2378D, size: 0x8, addend: 0x0, symName: __ZNKSt3__14__fs10filesystem4path8filenameB8ne180100Ev, symObjAddr: 0xAE0, symBinAddr: 0x100005598, symSize: 0x60 }
  - { offset: 0x237B1, size: 0x8, addend: 0x0, symName: __ZNSt3__113unordered_mapIiNS_12basic_stringIcNS_11char_traitsIcEENS_9allocatorIcEEEENS_4hashIiEENS_8equal_toIiEENS4_INS_4pairIKiS6_EEEEE6insertB8ne180100EOSD_, symObjAddr: 0xB40, symBinAddr: 0x1000055F8, symSize: 0x4C }
  - { offset: 0x237E4, size: 0x8, addend: 0x0, symName: __ZNSt3__14pairIKiNS_12basic_stringIcNS_11char_traitsIcEENS_9allocatorIcEEEEEC1B8ne180100IRiNS_4__fs10filesystem4pathELi0EEEOT_OT0_, symObjAddr: 0xB8C, symBinAddr: 0x100005644, symSize: 0x3C }
  - { offset: 0x23840, size: 0x8, addend: 0x0, symName: __ZNSt3__14pairIKiNS_12basic_stringIcNS_11char_traitsIcEENS_9allocatorIcEEEEED1Ev, symObjAddr: 0xBC8, symBinAddr: 0x100005680, symSize: 0x2C }
  - { offset: 0x2386A, size: 0x8, addend: 0x0, symName: __ZNSt3__14__fs10filesystem18directory_iteratorppB8ne180100Ev, symObjAddr: 0xBF4, symBinAddr: 0x1000056AC, symSize: 0x28 }
  - { offset: 0x2388E, size: 0x8, addend: 0x0, symName: __ZNSt3__113unordered_mapIiNS_12basic_stringIcNS_11char_traitsIcEENS_9allocatorIcEEEENS_4hashIiEENS_8equal_toIiEENS4_INS_4pairIKiS6_EEEEE2atERSC_, symObjAddr: 0xC1C, symBinAddr: 0x1000056D4, symSize: 0x7C }
  - { offset: 0x238D2, size: 0x8, addend: 0x0, symName: __ZNSt3__113unordered_mapIiNS_12basic_stringIcNS_11char_traitsIcEENS_9allocatorIcEEEENS_4hashIiEENS_8equal_toIiEENS4_INS_4pairIKiS6_EEEEED1B8ne180100Ev, symObjAddr: 0xC98, symBinAddr: 0x100005750, symSize: 0x2C }
  - { offset: 0x238FB, size: 0x8, addend: 0x0, symName: __ZN10Simulation7run_simEv, symObjAddr: 0xCC4, symBinAddr: 0x10000577C, symSize: 0x230 }
  - { offset: 0x23921, size: 0x8, addend: 0x0, symName: __ZNKSt3__13setIiNS_4lessIiEENS_9allocatorIiEEE4findB8ne180100ERKi, symObjAddr: 0xF24, symBinAddr: 0x1000059AC, symSize: 0x34 }
  - { offset: 0x23954, size: 0x8, addend: 0x0, symName: __ZNSt3__14__fs10filesystem4pathD2B8ne180100Ev, symObjAddr: 0xF84, symBinAddr: 0x1000059E0, symSize: 0x2C }
  - { offset: 0x2397C, size: 0x8, addend: 0x0, symName: __ZNSt3__14__fs10filesystem18directory_iteratorC1B8ne180100EOS2_, symObjAddr: 0xFB0, symBinAddr: 0x100005A0C, symSize: 0x34 }
  - { offset: 0x239AE, size: 0x8, addend: 0x0, symName: __ZNSt3__14__fs10filesystem18directory_iteratorC2B8ne180100EOS2_, symObjAddr: 0xFE4, symBinAddr: 0x100005A40, symSize: 0x34 }
  - { offset: 0x239E0, size: 0x8, addend: 0x0, symName: __ZNSt3__110shared_ptrINS_4__fs10filesystem12__dir_streamEEC1B8ne180100EOS4_, symObjAddr: 0x1018, symBinAddr: 0x100005A74, symSize: 0x34 }
  - { offset: 0x23A17, size: 0x8, addend: 0x0, symName: __ZNSt3__110shared_ptrINS_4__fs10filesystem12__dir_streamEEC2B8ne180100EOS4_, symObjAddr: 0x104C, symBinAddr: 0x100005AA8, symSize: 0x40 }
  - { offset: 0x23A4E, size: 0x8, addend: 0x0, symName: __ZNSt3__14__fs10filesystem18directory_iteratorC2B8ne180100ERKS2_, symObjAddr: 0x108C, symBinAddr: 0x100005AE8, symSize: 0x34 }
  - { offset: 0x23A80, size: 0x8, addend: 0x0, symName: __ZNSt3__110shared_ptrINS_4__fs10filesystem12__dir_streamEEC1B8ne180100ERKS4_, symObjAddr: 0x10C0, symBinAddr: 0x100005B1C, symSize: 0x34 }
  - { offset: 0x23AB7, size: 0x8, addend: 0x0, symName: __ZNSt3__110shared_ptrINS_4__fs10filesystem12__dir_streamEEC2B8ne180100ERKS4_, symObjAddr: 0x10F4, symBinAddr: 0x100005B50, symSize: 0x70 }
  - { offset: 0x23AEE, size: 0x8, addend: 0x0, symName: __ZNSt3__119__shared_weak_count12__add_sharedB8ne180100Ev, symObjAddr: 0x1164, symBinAddr: 0x100005BC0, symSize: 0x24 }
  - { offset: 0x23B12, size: 0x8, addend: 0x0, symName: __ZNSt3__114__shared_count12__add_sharedB8ne180100Ev, symObjAddr: 0x1188, symBinAddr: 0x100005BE4, symSize: 0x28 }
  - { offset: 0x23B36, size: 0x8, addend: 0x0, symName: __ZNSt3__14__fs10filesystem18directory_iteratorD2B8ne180100Ev, symObjAddr: 0x11E0, symBinAddr: 0x100005C3C, symSize: 0x2C }
  - { offset: 0x23B5E, size: 0x8, addend: 0x0, symName: __ZNSt3__110shared_ptrINS_4__fs10filesystem12__dir_streamEED1B8ne180100Ev, symObjAddr: 0x120C, symBinAddr: 0x100005C68, symSize: 0x2C }
  - { offset: 0x23B86, size: 0x8, addend: 0x0, symName: __ZNSt3__110shared_ptrINS_4__fs10filesystem12__dir_streamEED2B8ne180100Ev, symObjAddr: 0x1238, symBinAddr: 0x100005C94, symSize: 0x54 }
  - { offset: 0x23BAE, size: 0x8, addend: 0x0, symName: __ZNSt3__119__shared_weak_count16__release_sharedB8ne180100Ev, symObjAddr: 0x128C, symBinAddr: 0x100005CE8, symSize: 0x3C }
  - { offset: 0x23BD2, size: 0x8, addend: 0x0, symName: __ZNSt3__114__shared_count16__release_sharedB8ne180100Ev, symObjAddr: 0x12C8, symBinAddr: 0x100005D24, symSize: 0x7C }
  - { offset: 0x23BF6, size: 0x8, addend: 0x0, symName: __ZNSt3__14__fs10filesystem18directory_iteratorC1B8ne180100Ev, symObjAddr: 0x1374, symBinAddr: 0x100005DD0, symSize: 0x2C }
  - { offset: 0x23C1E, size: 0x8, addend: 0x0, symName: __ZNSt3__14__fs10filesystem18directory_iteratorC2B8ne180100Ev, symObjAddr: 0x13A0, symBinAddr: 0x100005DFC, symSize: 0x2C }
  - { offset: 0x23C46, size: 0x8, addend: 0x0, symName: __ZNSt3__110shared_ptrINS_4__fs10filesystem12__dir_streamEEC1B8ne180100Ev, symObjAddr: 0x13CC, symBinAddr: 0x100005E28, symSize: 0x2C }
  - { offset: 0x23C6E, size: 0x8, addend: 0x0, symName: __ZNSt3__110shared_ptrINS_4__fs10filesystem12__dir_streamEEC2B8ne180100Ev, symObjAddr: 0x13F8, symBinAddr: 0x100005E54, symSize: 0x1C }
  - { offset: 0x23C96, size: 0x8, addend: 0x0, symName: __ZNKSt3__110shared_ptrINS_4__fs10filesystem12__dir_streamEE3getB8ne180100Ev, symObjAddr: 0x148C, symBinAddr: 0x100005EE8, symSize: 0x18 }
  - { offset: 0x23CBA, size: 0x8, addend: 0x0, symName: __ZNKSt3__14__fs10filesystem15directory_entry8__get_ftB8ne180100EPNS_10error_codeE, symObjAddr: 0x14A4, symBinAddr: 0x100005F00, symSize: 0x1B8 }
  - { offset: 0x23D0A, size: 0x8, addend: 0x0, symName: __ZNKSt3__14__fs10filesystem11file_status4typeB8ne180100Ev, symObjAddr: 0x165C, symBinAddr: 0x1000060B8, symSize: 0x18 }
  - { offset: 0x23D2E, size: 0x8, addend: 0x0, symName: __ZNSt3__14__fs10filesystem11file_statusD1B8ne180100Ev, symObjAddr: 0x1674, symBinAddr: 0x1000060D0, symSize: 0x2C }
  - { offset: 0x23D56, size: 0x8, addend: 0x0, symName: __ZNSt3__14__fs10filesystem11file_statusC1B8ne180100ENS1_9file_typeENS1_5permsE, symObjAddr: 0x16A0, symBinAddr: 0x1000060FC, symSize: 0x3C }
  - { offset: 0x23D9A, size: 0x8, addend: 0x0, symName: __ZNSt3__110error_code5clearB8ne180100Ev, symObjAddr: 0x1794, symBinAddr: 0x1000061F0, symSize: 0x34 }
  - { offset: 0x23DBE, size: 0x8, addend: 0x0, symName: __ZNSt3__14__fs10filesystem11file_statusD2B8ne180100Ev, symObjAddr: 0x17CC, symBinAddr: 0x100006228, symSize: 0x14 }
  - { offset: 0x23DE6, size: 0x8, addend: 0x0, symName: __ZNSt3__14__fs10filesystem11file_statusC2B8ne180100ENS1_9file_typeENS1_5permsE, symObjAddr: 0x17E0, symBinAddr: 0x10000623C, symSize: 0x2C }
  - { offset: 0x23E2A, size: 0x8, addend: 0x0, symName: __ZNSt3__110error_codeC1B8ne180100EiRKNS_14error_categoryE, symObjAddr: 0x183C, symBinAddr: 0x100006298, symSize: 0x3C }
  - { offset: 0x23E6E, size: 0x8, addend: 0x0, symName: __ZNSt3__110error_codeC2B8ne180100EiRKNS_14error_categoryE, symObjAddr: 0x1878, symBinAddr: 0x1000062D4, symSize: 0x2C }
  - { offset: 0x23EB7, size: 0x8, addend: 0x0, symName: __ZNSt3__112basic_stringIcNS_11char_traitsIcEENS_9allocatorIcEEEC1INS_17basic_string_viewIcS2_EELi0EEERKT_, symObjAddr: 0x18A4, symBinAddr: 0x100006300, symSize: 0x34 }
  - { offset: 0x23EFD, size: 0x8, addend: 0x0, symName: __ZNSt3__14__fs10filesystem4pathC1B8ne180100EONS_12basic_stringIcNS_11char_traitsIcEENS_9allocatorIcEEEENS2_6formatE, symObjAddr: 0x18D8, symBinAddr: 0x100006334, symSize: 0x3C }
  - { offset: 0x23F3F, size: 0x8, addend: 0x0, symName: __ZNSt3__112basic_stringIcNS_11char_traitsIcEENS_9allocatorIcEEEC2INS_17basic_string_viewIcS2_EELi0EEERKT_, symObjAddr: 0x1914, symBinAddr: 0x100006370, symSize: 0x70 }
  - { offset: 0x23FA7, size: 0x8, addend: 0x0, symName: __ZNSt3__117__compressed_pairINS_12basic_stringIcNS_11char_traitsIcEENS_9allocatorIcEEE5__repES5_EC1B8ne180100INS_18__default_init_tagESA_EEOT_OT0_, symObjAddr: 0x1984, symBinAddr: 0x1000063E0, symSize: 0x3C }
  - { offset: 0x23FFD, size: 0x8, addend: 0x0, symName: __ZNKSt3__117basic_string_viewIcNS_11char_traitsIcEEE4dataB8ne180100Ev, symObjAddr: 0x19C0, symBinAddr: 0x10000641C, symSize: 0x18 }
  - { offset: 0x24021, size: 0x8, addend: 0x0, symName: __ZNKSt3__117basic_string_viewIcNS_11char_traitsIcEEE4sizeB8ne180100Ev, symObjAddr: 0x19D8, symBinAddr: 0x100006434, symSize: 0x18 }
  - { offset: 0x24045, size: 0x8, addend: 0x0, symName: __ZNSt3__117__compressed_pairINS_12basic_stringIcNS_11char_traitsIcEENS_9allocatorIcEEE5__repES5_EC2B8ne180100INS_18__default_init_tagESA_EEOT_OT0_, symObjAddr: 0x19F0, symBinAddr: 0x10000644C, symSize: 0x3C }
  - { offset: 0x2409B, size: 0x8, addend: 0x0, symName: __ZNSt3__122__compressed_pair_elemINS_12basic_stringIcNS_11char_traitsIcEENS_9allocatorIcEEE5__repELi0ELb0EEC2B8ne180100ENS_18__default_init_tagE, symObjAddr: 0x1A2C, symBinAddr: 0x100006488, symSize: 0x14 }
  - { offset: 0x240CD, size: 0x8, addend: 0x0, symName: __ZNSt3__14__fs10filesystem4pathC2B8ne180100EONS_12basic_stringIcNS_11char_traitsIcEENS_9allocatorIcEEEENS2_6formatE, symObjAddr: 0x1AAC, symBinAddr: 0x10000649C, symSize: 0x38 }
  - { offset: 0x2410F, size: 0x8, addend: 0x0, symName: __ZNSt3__112basic_stringIcNS_11char_traitsIcEENS_9allocatorIcEEEC1B8ne180100EOS5_, symObjAddr: 0x1AE4, symBinAddr: 0x1000064D4, symSize: 0x34 }
  - { offset: 0x24146, size: 0x8, addend: 0x0, symName: __ZNSt3__112basic_stringIcNS_11char_traitsIcEENS_9allocatorIcEEEC2B8ne180100EOS5_, symObjAddr: 0x1B18, symBinAddr: 0x100006508, symSize: 0xB8 }
  - { offset: 0x241AD, size: 0x8, addend: 0x0, symName: __ZZNSt3__112basic_stringIcNS_11char_traitsIcEENS_9allocatorIcEEEC1B8ne180100EOS5_ENKUlRS5_E_clES7_, symObjAddr: 0x1BD0, symBinAddr: 0x1000065C0, symSize: 0x40 }
  - { offset: 0x241E4, size: 0x8, addend: 0x0, symName: __ZNSt3__117__compressed_pairINS_12basic_stringIcNS_11char_traitsIcEENS_9allocatorIcEEE5__repES5_E5firstB8ne180100Ev, symObjAddr: 0x1C20, symBinAddr: 0x100006600, symSize: 0x24 }
  - { offset: 0x24208, size: 0x8, addend: 0x0, symName: __ZNKSt3__112basic_stringIcNS_11char_traitsIcEENS_9allocatorIcEEE9__is_longB8ne180100Ev, symObjAddr: 0x1C58, symBinAddr: 0x100006624, symSize: 0x38 }
  - { offset: 0x2422C, size: 0x8, addend: 0x0, symName: __ZNKSt3__112basic_stringIcNS_11char_traitsIcEENS_9allocatorIcEEE4sizeB8ne180100Ev, symObjAddr: 0x1C90, symBinAddr: 0x10000665C, symSize: 0x54 }
  - { offset: 0x24250, size: 0x8, addend: 0x0, symName: __ZNKSt3__112basic_stringIcNS_11char_traitsIcEENS_9allocatorIcEEE17__annotate_deleteB8ne180100Ev, symObjAddr: 0x1CE4, symBinAddr: 0x1000066B0, symSize: 0x10 }
  - { offset: 0x24274, size: 0x8, addend: 0x0, symName: __ZNSt3__122__compressed_pair_elemINS_12basic_stringIcNS_11char_traitsIcEENS_9allocatorIcEEE5__repELi0ELb0EE5__getB8ne180100Ev, symObjAddr: 0x1CF4, symBinAddr: 0x1000066C0, symSize: 0x14 }
  - { offset: 0x24298, size: 0x8, addend: 0x0, symName: __ZNKSt3__117__compressed_pairINS_12basic_stringIcNS_11char_traitsIcEENS_9allocatorIcEEE5__repES5_E5firstB8ne180100Ev, symObjAddr: 0x1D08, symBinAddr: 0x1000066D4, symSize: 0x24 }
  - { offset: 0x242BC, size: 0x8, addend: 0x0, symName: __ZNKSt3__122__compressed_pair_elemINS_12basic_stringIcNS_11char_traitsIcEENS_9allocatorIcEEE5__repELi0ELb0EE5__getB8ne180100Ev, symObjAddr: 0x1D2C, symBinAddr: 0x1000066F8, symSize: 0x14 }
  - { offset: 0x242E0, size: 0x8, addend: 0x0, symName: __ZNKSt3__112basic_stringIcNS_11char_traitsIcEENS_9allocatorIcEEE15__get_long_sizeB8ne180100Ev, symObjAddr: 0x1D40, symBinAddr: 0x10000670C, symSize: 0x28 }
  - { offset: 0x24304, size: 0x8, addend: 0x0, symName: __ZNKSt3__112basic_stringIcNS_11char_traitsIcEENS_9allocatorIcEEE16__get_short_sizeB8ne180100Ev, symObjAddr: 0x1D68, symBinAddr: 0x100006734, symSize: 0x34 }
  - { offset: 0x24328, size: 0x8, addend: 0x0, symName: __ZNSt3__14pairIKiNS_12basic_stringIcNS_11char_traitsIcEENS_9allocatorIcEEEEEC2B8ne180100IRiNS_4__fs10filesystem4pathELi0EEEOT_OT0_, symObjAddr: 0x1D9C, symBinAddr: 0x100006768, symSize: 0x48 }
  - { offset: 0x24384, size: 0x8, addend: 0x0, symName: __ZNKSt3__14__fs10filesystem4pathcvNS_12basic_stringIcNS_11char_traitsIcEENS_9allocatorIcEEEEB8ne180100Ev, symObjAddr: 0x1DE4, symBinAddr: 0x1000067B0, symSize: 0x38 }
  - { offset: 0x243A8, size: 0x8, addend: 0x0, symName: __ZNSt3__14pairIKiNS_12basic_stringIcNS_11char_traitsIcEENS_9allocatorIcEEEEED2Ev, symObjAddr: 0x1E1C, symBinAddr: 0x1000067E8, symSize: 0x30 }
  - { offset: 0x243D7, size: 0x8, addend: 0x0, symName: __ZNSt3__111char_traitsIcE6lengthB8ne180100EPKc, symObjAddr: 0x2118, symBinAddr: 0x100006A04, symSize: 0x34 }
  - { offset: 0x24417, size: 0x8, addend: 0x0, symName: __ZNKSt3__113basic_ostreamIcNS_11char_traitsIcEEE6sentrycvbB8ne180100Ev, symObjAddr: 0x214C, symBinAddr: 0x100006A38, symSize: 0x1C }
  - { offset: 0x2443B, size: 0x8, addend: 0x0, symName: __ZNSt3__119ostreambuf_iteratorIcNS_11char_traitsIcEEEC1B8ne180100ERNS_13basic_ostreamIcS2_EE, symObjAddr: 0x23A8, symBinAddr: 0x100006C94, symSize: 0x34 }
  - { offset: 0x24472, size: 0x8, addend: 0x0, symName: __ZNKSt3__18ios_base5flagsB8ne180100Ev, symObjAddr: 0x23DC, symBinAddr: 0x100006CC8, symSize: 0x18 }
  - { offset: 0x24498, size: 0x8, addend: 0x0, symName: __ZNKSt3__19basic_iosIcNS_11char_traitsIcEEE4fillB8ne180100Ev, symObjAddr: 0x23F4, symBinAddr: 0x100006CE0, symSize: 0x64 }
  - { offset: 0x244BE, size: 0x8, addend: 0x0, symName: __ZNKSt3__119ostreambuf_iteratorIcNS_11char_traitsIcEEE6failedB8ne180100Ev, symObjAddr: 0x2458, symBinAddr: 0x100006D44, symSize: 0x24 }
  - { offset: 0x244E2, size: 0x8, addend: 0x0, symName: __ZNSt3__19basic_iosIcNS_11char_traitsIcEEE8setstateB8ne180100Ej, symObjAddr: 0x247C, symBinAddr: 0x100006D68, symSize: 0x2C }
  - { offset: 0x24516, size: 0x8, addend: 0x0, symName: __ZNKSt3__18ios_base5widthB8ne180100Ev, symObjAddr: 0x24A8, symBinAddr: 0x100006D94, symSize: 0x18 }
  - { offset: 0x2453C, size: 0x8, addend: 0x0, symName: __ZNSt3__115basic_streambufIcNS_11char_traitsIcEEE5sputnB8ne180100EPKcl, symObjAddr: 0x24C0, symBinAddr: 0x100006DAC, symSize: 0x3C }
  - { offset: 0x2457C, size: 0x8, addend: 0x0, symName: __ZNSt3__112basic_stringIcNS_11char_traitsIcEENS_9allocatorIcEEEC1B8ne180100Emc, symObjAddr: 0x24FC, symBinAddr: 0x100006DE8, symSize: 0x3C }
  - { offset: 0x245C2, size: 0x8, addend: 0x0, symName: __ZNSt3__112basic_stringIcNS_11char_traitsIcEENS_9allocatorIcEEE4dataB8ne180100Ev, symObjAddr: 0x2538, symBinAddr: 0x100006E24, symSize: 0x28 }
  - { offset: 0x245E7, size: 0x8, addend: 0x0, symName: __ZNSt3__18ios_base5widthB8ne180100El, symObjAddr: 0x2560, symBinAddr: 0x100006E4C, symSize: 0x2C }
  - { offset: 0x2462B, size: 0x8, addend: 0x0, symName: __ZNSt3__112basic_stringIcNS_11char_traitsIcEENS_9allocatorIcEEEC2B8ne180100Emc, symObjAddr: 0x258C, symBinAddr: 0x100006E78, symSize: 0x4C }
  - { offset: 0x24671, size: 0x8, addend: 0x0, symName: __ZNSt3__112basic_stringIcNS_11char_traitsIcEENS_9allocatorIcEEE13__get_pointerB8ne180100Ev, symObjAddr: 0x25EC, symBinAddr: 0x100006ED8, symSize: 0x54 }
  - { offset: 0x24695, size: 0x8, addend: 0x0, symName: __ZNSt3__112basic_stringIcNS_11char_traitsIcEENS_9allocatorIcEEE18__get_long_pointerB8ne180100Ev, symObjAddr: 0x2640, symBinAddr: 0x100006F2C, symSize: 0x28 }
  - { offset: 0x246B9, size: 0x8, addend: 0x0, symName: __ZNSt3__112basic_stringIcNS_11char_traitsIcEENS_9allocatorIcEEE19__get_short_pointerB8ne180100Ev, symObjAddr: 0x2668, symBinAddr: 0x100006F54, symSize: 0x28 }
  - { offset: 0x246DD, size: 0x8, addend: 0x0, symName: __ZNSt3__114pointer_traitsIPcE10pointer_toB8ne180100ERc, symObjAddr: 0x2690, symBinAddr: 0x100006F7C, symSize: 0x14 }
  - { offset: 0x246FF, size: 0x8, addend: 0x0, symName: __ZNSt3__119ostreambuf_iteratorIcNS_11char_traitsIcEEEC2B8ne180100ERNS_13basic_ostreamIcS2_EE, symObjAddr: 0x26A4, symBinAddr: 0x100006F90, symSize: 0x54 }
  - { offset: 0x24735, size: 0x8, addend: 0x0, symName: __ZNKSt3__19basic_iosIcNS_11char_traitsIcEEE5rdbufB8ne180100Ev, symObjAddr: 0x26F8, symBinAddr: 0x100006FE4, symSize: 0x24 }
  - { offset: 0x2475B, size: 0x8, addend: 0x0, symName: __ZNKSt3__18ios_base5rdbufB8ne180100Ev, symObjAddr: 0x271C, symBinAddr: 0x100007008, symSize: 0x18 }
  - { offset: 0x2477F, size: 0x8, addend: 0x0, symName: __ZNSt3__111char_traitsIcE11eq_int_typeB8ne180100Eii, symObjAddr: 0x2734, symBinAddr: 0x100007020, symSize: 0x28 }
  - { offset: 0x247B2, size: 0x8, addend: 0x0, symName: __ZNSt3__111char_traitsIcE3eofB8ne180100Ev, symObjAddr: 0x275C, symBinAddr: 0x100007048, symSize: 0x8 }
  - { offset: 0x247C5, size: 0x8, addend: 0x0, symName: __ZNKSt3__19basic_iosIcNS_11char_traitsIcEEE5widenB8ne180100Ec, symObjAddr: 0x2764, symBinAddr: 0x100007050, symSize: 0x84 }
  - { offset: 0x24831, size: 0x8, addend: 0x0, symName: __ZNKSt3__15ctypeIcE5widenB8ne180100Ec, symObjAddr: 0x2814, symBinAddr: 0x100007100, symSize: 0x38 }
  - { offset: 0x24864, size: 0x8, addend: 0x0, symName: __ZNSt3__18ios_base8setstateB8ne180100Ej, symObjAddr: 0x284C, symBinAddr: 0x100007138, symSize: 0x34 }
  - { offset: 0x24899, size: 0x8, addend: 0x0, symName: __ZNKSt3__112basic_stringIcNS_11char_traitsIcEENS_9allocatorIcEEE4dataB8ne180100Ev, symObjAddr: 0x28A4, symBinAddr: 0x100007190, symSize: 0x28 }
  - { offset: 0x248BD, size: 0x8, addend: 0x0, symName: __ZNKSt3__112basic_stringIcNS_11char_traitsIcEENS_9allocatorIcEEE13__get_pointerB8ne180100Ev, symObjAddr: 0x28E0, symBinAddr: 0x1000071CC, symSize: 0x54 }
  - { offset: 0x248E1, size: 0x8, addend: 0x0, symName: __ZNKSt3__112basic_stringIcNS_11char_traitsIcEENS_9allocatorIcEEE18__get_long_pointerB8ne180100Ev, symObjAddr: 0x2934, symBinAddr: 0x100007220, symSize: 0x28 }
  - { offset: 0x24905, size: 0x8, addend: 0x0, symName: __ZNKSt3__112basic_stringIcNS_11char_traitsIcEENS_9allocatorIcEEE19__get_short_pointerB8ne180100Ev, symObjAddr: 0x295C, symBinAddr: 0x100007248, symSize: 0x28 }
  - { offset: 0x24929, size: 0x8, addend: 0x0, symName: __ZNSt3__114pointer_traitsIPKcE10pointer_toB8ne180100ERS1_, symObjAddr: 0x2984, symBinAddr: 0x100007270, symSize: 0x14 }
  - { offset: 0x2494B, size: 0x8, addend: 0x0, symName: __ZNSt3__113unordered_mapIiNS_12basic_stringIcNS_11char_traitsIcEENS_9allocatorIcEEEENS_4hashIiEENS_8equal_toIiEENS4_INS_4pairIKiS6_EEEEEC2B8ne180100Ev, symObjAddr: 0x2998, symBinAddr: 0x100007284, symSize: 0x2C }
  - { offset: 0x24973, size: 0x8, addend: 0x0, symName: __ZNSt3__112__hash_tableINS_17__hash_value_typeIiNS_12basic_stringIcNS_11char_traitsIcEENS_9allocatorIcEEEEEENS_22__unordered_map_hasherIiS8_NS_4hashIiEENS_8equal_toIiEELb1EEENS_21__unordered_map_equalIiS8_SD_SB_Lb1EEENS5_IS8_EEEC1Ev, symObjAddr: 0x29C4, symBinAddr: 0x1000072B0, symSize: 0x2C }
  - { offset: 0x2499D, size: 0x8, addend: 0x0, symName: __ZNSt3__112__hash_tableINS_17__hash_value_typeIiNS_12basic_stringIcNS_11char_traitsIcEENS_9allocatorIcEEEEEENS_22__unordered_map_hasherIiS8_NS_4hashIiEENS_8equal_toIiEELb1EEENS_21__unordered_map_equalIiS8_SD_SB_Lb1EEENS5_IS8_EEEC2Ev, symObjAddr: 0x29F0, symBinAddr: 0x1000072DC, symSize: 0x7C }
  - { offset: 0x249C7, size: 0x8, addend: 0x0, symName: __ZNSt3__110unique_ptrIA_PNS_16__hash_node_baseIPNS_11__hash_nodeINS_17__hash_value_typeIiNS_12basic_stringIcNS_11char_traitsIcEENS_9allocatorIcEEEEEEPvEEEENS_25__bucket_list_deallocatorINS7_ISF_EEEEEC1B8ne180100ILb1EvEEv, symObjAddr: 0x2A6C, symBinAddr: 0x100007358, symSize: 0x2C }
  - { offset: 0x249FA, size: 0x8, addend: 0x0, symName: __ZNSt3__117__compressed_pairINS_16__hash_node_baseIPNS_11__hash_nodeINS_17__hash_value_typeIiNS_12basic_stringIcNS_11char_traitsIcEENS_9allocatorIcEEEEEEPvEEEENS7_ISC_EEEC1B8ne180100ILb1EvEEv, symObjAddr: 0x2A98, symBinAddr: 0x100007384, symSize: 0x2C }
  - { offset: 0x24A32, size: 0x8, addend: 0x0, symName: __ZNSt3__117__compressed_pairImNS_22__unordered_map_hasherIiNS_17__hash_value_typeIiNS_12basic_stringIcNS_11char_traitsIcEENS_9allocatorIcEEEEEENS_4hashIiEENS_8equal_toIiEELb1EEEEC1B8ne180100IiNS_18__default_init_tagEEEOT_OT0_, symObjAddr: 0x2AC4, symBinAddr: 0x1000073B0, symSize: 0x3C }
  - { offset: 0x24A8D, size: 0x8, addend: 0x0, symName: __ZNSt3__117__compressed_pairIfNS_21__unordered_map_equalIiNS_17__hash_value_typeIiNS_12basic_stringIcNS_11char_traitsIcEENS_9allocatorIcEEEEEENS_8equal_toIiEENS_4hashIiEELb1EEEEC1B8ne180100IfNS_18__default_init_tagEEEOT_OT0_, symObjAddr: 0x2B00, symBinAddr: 0x1000073EC, symSize: 0x3C }
  - { offset: 0x24AE3, size: 0x8, addend: 0x0, symName: __ZNSt3__110unique_ptrIA_PNS_16__hash_node_baseIPNS_11__hash_nodeINS_17__hash_value_typeIiNS_12basic_stringIcNS_11char_traitsIcEENS_9allocatorIcEEEEEEPvEEEENS_25__bucket_list_deallocatorINS7_ISF_EEEEEC2B8ne180100ILb1EvEEv, symObjAddr: 0x2B3C, symBinAddr: 0x100007428, symSize: 0x3C }
  - { offset: 0x24B16, size: 0x8, addend: 0x0, symName: __ZNSt3__117__compressed_pairIPPNS_16__hash_node_baseIPNS_11__hash_nodeINS_17__hash_value_typeIiNS_12basic_stringIcNS_11char_traitsIcEENS_9allocatorIcEEEEEEPvEEEENS_25__bucket_list_deallocatorINS7_ISF_EEEEEC1B8ne180100INS_16__value_init_tagESM_EEOT_OT0_, symObjAddr: 0x2B78, symBinAddr: 0x100007464, symSize: 0x3C }
  - { offset: 0x24B6C, size: 0x8, addend: 0x0, symName: __ZNSt3__117__compressed_pairIPPNS_16__hash_node_baseIPNS_11__hash_nodeINS_17__hash_value_typeIiNS_12basic_stringIcNS_11char_traitsIcEENS_9allocatorIcEEEEEEPvEEEENS_25__bucket_list_deallocatorINS7_ISF_EEEEEC2B8ne180100INS_16__value_init_tagESM_EEOT_OT0_, symObjAddr: 0x2BB4, symBinAddr: 0x1000074A0, symSize: 0x40 }
  - { offset: 0x24BC2, size: 0x8, addend: 0x0, symName: __ZNSt3__122__compressed_pair_elemIPPNS_16__hash_node_baseIPNS_11__hash_nodeINS_17__hash_value_typeIiNS_12basic_stringIcNS_11char_traitsIcEENS_9allocatorIcEEEEEEPvEEEELi0ELb0EEC2B8ne180100ENS_16__value_init_tagE, symObjAddr: 0x2BF4, symBinAddr: 0x1000074E0, symSize: 0x18 }
  - { offset: 0x24BF4, size: 0x8, addend: 0x0, symName: __ZNSt3__122__compressed_pair_elemINS_25__bucket_list_deallocatorINS_9allocatorIPNS_16__hash_node_baseIPNS_11__hash_nodeINS_17__hash_value_typeIiNS_12basic_stringIcNS_11char_traitsIcEENS2_IcEEEEEEPvEEEEEEEELi1ELb0EEC2B8ne180100ENS_16__value_init_tagE, symObjAddr: 0x2C0C, symBinAddr: 0x1000074F8, symSize: 0x2C }
  - { offset: 0x24C26, size: 0x8, addend: 0x0, symName: __ZNSt3__125__bucket_list_deallocatorINS_9allocatorIPNS_16__hash_node_baseIPNS_11__hash_nodeINS_17__hash_value_typeIiNS_12basic_stringIcNS_11char_traitsIcEENS1_IcEEEEEEPvEEEEEEEC1B8ne180100Ev, symObjAddr: 0x2C38, symBinAddr: 0x100007524, symSize: 0x2C }
  - { offset: 0x24C4E, size: 0x8, addend: 0x0, symName: __ZNSt3__125__bucket_list_deallocatorINS_9allocatorIPNS_16__hash_node_baseIPNS_11__hash_nodeINS_17__hash_value_typeIiNS_12basic_stringIcNS_11char_traitsIcEENS1_IcEEEEEEPvEEEEEEEC2B8ne180100Ev, symObjAddr: 0x2C64, symBinAddr: 0x100007550, symSize: 0x40 }
  - { offset: 0x24C76, size: 0x8, addend: 0x0, symName: __ZNSt3__117__compressed_pairImNS_9allocatorIPNS_16__hash_node_baseIPNS_11__hash_nodeINS_17__hash_value_typeIiNS_12basic_stringIcNS_11char_traitsIcEENS1_IcEEEEEEPvEEEEEEEC1B8ne180100IiNS_18__default_init_tagEEEOT_OT0_, symObjAddr: 0x2CA4, symBinAddr: 0x100007590, symSize: 0x3C }
  - { offset: 0x24CCC, size: 0x8, addend: 0x0, symName: __ZNSt3__117__compressed_pairImNS_9allocatorIPNS_16__hash_node_baseIPNS_11__hash_nodeINS_17__hash_value_typeIiNS_12basic_stringIcNS_11char_traitsIcEENS1_IcEEEEEEPvEEEEEEEC2B8ne180100IiNS_18__default_init_tagEEEOT_OT0_, symObjAddr: 0x2CE0, symBinAddr: 0x1000075CC, symSize: 0x40 }
  - { offset: 0x24D22, size: 0x8, addend: 0x0, symName: __ZNSt3__122__compressed_pair_elemINS_9allocatorIPNS_16__hash_node_baseIPNS_11__hash_nodeINS_17__hash_value_typeIiNS_12basic_stringIcNS_11char_traitsIcEENS1_IcEEEEEEPvEEEEEELi1ELb1EEC2B8ne180100ENS_18__default_init_tagE, symObjAddr: 0x2D44, symBinAddr: 0x10000760C, symSize: 0x2C }
  - { offset: 0x24D54, size: 0x8, addend: 0x0, symName: __ZNSt3__19allocatorIPNS_16__hash_node_baseIPNS_11__hash_nodeINS_17__hash_value_typeIiNS_12basic_stringIcNS_11char_traitsIcEENS0_IcEEEEEEPvEEEEEC2B8ne180100Ev, symObjAddr: 0x2D70, symBinAddr: 0x100007638, symSize: 0x2C }
  - { offset: 0x24D7C, size: 0x8, addend: 0x0, symName: __ZNSt3__116__non_trivial_ifILb1ENS_9allocatorIPNS_16__hash_node_baseIPNS_11__hash_nodeINS_17__hash_value_typeIiNS_12basic_stringIcNS_11char_traitsIcEENS1_IcEEEEEEPvEEEEEEEC2B8ne180100Ev, symObjAddr: 0x2D9C, symBinAddr: 0x100007664, symSize: 0x14 }
  - { offset: 0x24DA4, size: 0x8, addend: 0x0, symName: __ZNSt3__117__compressed_pairINS_16__hash_node_baseIPNS_11__hash_nodeINS_17__hash_value_typeIiNS_12basic_stringIcNS_11char_traitsIcEENS_9allocatorIcEEEEEEPvEEEENS7_ISC_EEEC2B8ne180100ILb1EvEEv, symObjAddr: 0x2DB0, symBinAddr: 0x100007678, symSize: 0x34 }
  - { offset: 0x24DD7, size: 0x8, addend: 0x0, symName: __ZNSt3__122__compressed_pair_elemINS_16__hash_node_baseIPNS_11__hash_nodeINS_17__hash_value_typeIiNS_12basic_stringIcNS_11char_traitsIcEENS_9allocatorIcEEEEEEPvEEEELi0ELb0EEC2B8ne180100ENS_16__value_init_tagE, symObjAddr: 0x2DE4, symBinAddr: 0x1000076AC, symSize: 0x2C }
  - { offset: 0x24E09, size: 0x8, addend: 0x0, symName: __ZNSt3__122__compressed_pair_elemINS_9allocatorINS_11__hash_nodeINS_17__hash_value_typeIiNS_12basic_stringIcNS_11char_traitsIcEENS1_IcEEEEEEPvEEEELi1ELb1EEC2B8ne180100ENS_16__value_init_tagE, symObjAddr: 0x2E10, symBinAddr: 0x1000076D8, symSize: 0x2C }
  - { offset: 0x24E3B, size: 0x8, addend: 0x0, symName: __ZNSt3__116__hash_node_baseIPNS_11__hash_nodeINS_17__hash_value_typeIiNS_12basic_stringIcNS_11char_traitsIcEENS_9allocatorIcEEEEEEPvEEEC1B8ne180100Ev, symObjAddr: 0x2E3C, symBinAddr: 0x100007704, symSize: 0x2C }
  - { offset: 0x24E63, size: 0x8, addend: 0x0, symName: __ZNSt3__116__hash_node_baseIPNS_11__hash_nodeINS_17__hash_value_typeIiNS_12basic_stringIcNS_11char_traitsIcEENS_9allocatorIcEEEEEEPvEEEC2B8ne180100Ev, symObjAddr: 0x2E68, symBinAddr: 0x100007730, symSize: 0x18 }
  - { offset: 0x24E8B, size: 0x8, addend: 0x0, symName: __ZNSt3__19allocatorINS_11__hash_nodeINS_17__hash_value_typeIiNS_12basic_stringIcNS_11char_traitsIcEENS0_IcEEEEEEPvEEEC2B8ne180100Ev, symObjAddr: 0x2E80, symBinAddr: 0x100007748, symSize: 0x2C }
  - { offset: 0x24EB3, size: 0x8, addend: 0x0, symName: __ZNSt3__116__non_trivial_ifILb1ENS_9allocatorINS_11__hash_nodeINS_17__hash_value_typeIiNS_12basic_stringIcNS_11char_traitsIcEENS1_IcEEEEEEPvEEEEEC2B8ne180100Ev, symObjAddr: 0x2EAC, symBinAddr: 0x100007774, symSize: 0x14 }
  - { offset: 0x24EDB, size: 0x8, addend: 0x0, symName: __ZNSt3__117__compressed_pairImNS_22__unordered_map_hasherIiNS_17__hash_value_typeIiNS_12basic_stringIcNS_11char_traitsIcEENS_9allocatorIcEEEEEENS_4hashIiEENS_8equal_toIiEELb1EEEEC2B8ne180100IiNS_18__default_init_tagEEEOT_OT0_, symObjAddr: 0x2EC0, symBinAddr: 0x100007788, symSize: 0x40 }
  - { offset: 0x24F31, size: 0x8, addend: 0x0, symName: __ZNSt3__122__compressed_pair_elemINS_22__unordered_map_hasherIiNS_17__hash_value_typeIiNS_12basic_stringIcNS_11char_traitsIcEENS_9allocatorIcEEEEEENS_4hashIiEENS_8equal_toIiEELb1EEELi1ELb1EEC2B8ne180100ENS_18__default_init_tagE, symObjAddr: 0x2F00, symBinAddr: 0x1000077C8, symSize: 0x2C }
  - { offset: 0x24F63, size: 0x8, addend: 0x0, symName: __ZNSt3__122__unordered_map_hasherIiNS_17__hash_value_typeIiNS_12basic_stringIcNS_11char_traitsIcEENS_9allocatorIcEEEEEENS_4hashIiEENS_8equal_toIiEELb1EEC2B8ne180100Ev, symObjAddr: 0x2F2C, symBinAddr: 0x1000077F4, symSize: 0x14 }
  - { offset: 0x24F8B, size: 0x8, addend: 0x0, symName: __ZNSt3__117__compressed_pairIfNS_21__unordered_map_equalIiNS_17__hash_value_typeIiNS_12basic_stringIcNS_11char_traitsIcEENS_9allocatorIcEEEEEENS_8equal_toIiEENS_4hashIiEELb1EEEEC2B8ne180100IfNS_18__default_init_tagEEEOT_OT0_, symObjAddr: 0x2F40, symBinAddr: 0x100007808, symSize: 0x40 }
  - { offset: 0x24FE1, size: 0x8, addend: 0x0, symName: __ZNSt3__122__compressed_pair_elemIfLi0ELb0EEC2B8ne180100IfvEEOT_, symObjAddr: 0x2F80, symBinAddr: 0x100007848, symSize: 0x24 }
  - { offset: 0x25021, size: 0x8, addend: 0x0, symName: __ZNSt3__122__compressed_pair_elemINS_21__unordered_map_equalIiNS_17__hash_value_typeIiNS_12basic_stringIcNS_11char_traitsIcEENS_9allocatorIcEEEEEENS_8equal_toIiEENS_4hashIiEELb1EEELi1ELb1EEC2B8ne180100ENS_18__default_init_tagE, symObjAddr: 0x2FA4, symBinAddr: 0x10000786C, symSize: 0x2C }
  - { offset: 0x25053, size: 0x8, addend: 0x0, symName: __ZNSt3__121__unordered_map_equalIiNS_17__hash_value_typeIiNS_12basic_stringIcNS_11char_traitsIcEENS_9allocatorIcEEEEEENS_8equal_toIiEENS_4hashIiEELb1EEC2B8ne180100Ev, symObjAddr: 0x2FD0, symBinAddr: 0x100007898, symSize: 0x14 }
  - { offset: 0x2507B, size: 0x8, addend: 0x0, symName: __ZNSt3__113unordered_mapIiNS_12basic_stringIcNS_11char_traitsIcEENS_9allocatorIcEEEENS_4hashIiEENS_8equal_toIiEENS4_INS_4pairIKiS6_EEEEED2B8ne180100Ev, symObjAddr: 0x2FE4, symBinAddr: 0x1000078AC, symSize: 0x2C }
  - { offset: 0x250A3, size: 0x8, addend: 0x0, symName: __ZNSt3__112__hash_tableINS_17__hash_value_typeIiNS_12basic_stringIcNS_11char_traitsIcEENS_9allocatorIcEEEEEENS_22__unordered_map_hasherIiS8_NS_4hashIiEENS_8equal_toIiEELb1EEENS_21__unordered_map_equalIiS8_SD_SB_Lb1EEENS5_IS8_EEED1Ev, symObjAddr: 0x3010, symBinAddr: 0x1000078D8, symSize: 0x2C }
  - { offset: 0x250CD, size: 0x8, addend: 0x0, symName: __ZNSt3__112__hash_tableINS_17__hash_value_typeIiNS_12basic_stringIcNS_11char_traitsIcEENS_9allocatorIcEEEEEENS_22__unordered_map_hasherIiS8_NS_4hashIiEENS_8equal_toIiEELb1EEENS_21__unordered_map_equalIiS8_SD_SB_Lb1EEENS5_IS8_EEED2Ev, symObjAddr: 0x303C, symBinAddr: 0x100007904, symSize: 0x48 }
  - { offset: 0x250F7, size: 0x8, addend: 0x0, symName: __ZNSt3__112__hash_tableINS_17__hash_value_typeIiNS_12basic_stringIcNS_11char_traitsIcEENS_9allocatorIcEEEEEENS_22__unordered_map_hasherIiS8_NS_4hashIiEENS_8equal_toIiEELb1EEENS_21__unordered_map_equalIiS8_SD_SB_Lb1EEENS5_IS8_EEE17__deallocate_nodeEPNS_16__hash_node_baseIPNS_11__hash_nodeIS8_PvEEEE, symObjAddr: 0x3084, symBinAddr: 0x10000794C, symSize: 0xC0 }
  - { offset: 0x2515F, size: 0x8, addend: 0x0, symName: __ZNSt3__117__compressed_pairINS_16__hash_node_baseIPNS_11__hash_nodeINS_17__hash_value_typeIiNS_12basic_stringIcNS_11char_traitsIcEENS_9allocatorIcEEEEEEPvEEEENS7_ISC_EEE5firstB8ne180100Ev, symObjAddr: 0x3144, symBinAddr: 0x100007A0C, symSize: 0x24 }
  - { offset: 0x25183, size: 0x8, addend: 0x0, symName: __ZNSt3__110unique_ptrIA_PNS_16__hash_node_baseIPNS_11__hash_nodeINS_17__hash_value_typeIiNS_12basic_stringIcNS_11char_traitsIcEENS_9allocatorIcEEEEEEPvEEEENS_25__bucket_list_deallocatorINS7_ISF_EEEEED1B8ne180100Ev, symObjAddr: 0x3168, symBinAddr: 0x100007A30, symSize: 0x2C }
  - { offset: 0x251AB, size: 0x8, addend: 0x0, symName: __ZNSt3__112__hash_tableINS_17__hash_value_typeIiNS_12basic_stringIcNS_11char_traitsIcEENS_9allocatorIcEEEEEENS_22__unordered_map_hasherIiS8_NS_4hashIiEENS_8equal_toIiEELb1EEENS_21__unordered_map_equalIiS8_SD_SB_Lb1EEENS5_IS8_EEE12__node_allocB8ne180100Ev, symObjAddr: 0x3194, symBinAddr: 0x100007A5C, symSize: 0x28 }
  - { offset: 0x251CF, size: 0x8, addend: 0x0, symName: __ZNSt3__116__hash_node_baseIPNS_11__hash_nodeINS_17__hash_value_typeIiNS_12basic_stringIcNS_11char_traitsIcEENS_9allocatorIcEEEEEEPvEEE8__upcastB8ne180100Ev, symObjAddr: 0x31BC, symBinAddr: 0x100007A84, symSize: 0x24 }
  - { offset: 0x251F3, size: 0x8, addend: 0x0, symName: __ZNSt3__116allocator_traitsINS_9allocatorINS_11__hash_nodeINS_17__hash_value_typeIiNS_12basic_stringIcNS_11char_traitsIcEENS1_IcEEEEEEPvEEEEE7destroyB8ne180100INS_4pairIKiS8_EEvvEEvRSC_PT_, symObjAddr: 0x31E0, symBinAddr: 0x100007AA8, symSize: 0x28 }
  - { offset: 0x2522C, size: 0x8, addend: 0x0, symName: __ZNSt3__122__hash_key_value_typesINS_17__hash_value_typeIiNS_12basic_stringIcNS_11char_traitsIcEENS_9allocatorIcEEEEEEE9__get_ptrB8ne180100ERS8_, symObjAddr: 0x3208, symBinAddr: 0x100007AD0, symSize: 0x24 }
  - { offset: 0x2524E, size: 0x8, addend: 0x0, symName: __ZNSt3__111__hash_nodeINS_17__hash_value_typeIiNS_12basic_stringIcNS_11char_traitsIcEENS_9allocatorIcEEEEEEPvE11__get_valueB8ne180100Ev, symObjAddr: 0x322C, symBinAddr: 0x100007AF4, symSize: 0x18 }
  - { offset: 0x25272, size: 0x8, addend: 0x0, symName: __ZNSt3__116allocator_traitsINS_9allocatorINS_11__hash_nodeINS_17__hash_value_typeIiNS_12basic_stringIcNS_11char_traitsIcEENS1_IcEEEEEEPvEEEEE10deallocateB8ne180100ERSC_PSB_m, symObjAddr: 0x3268, symBinAddr: 0x100007B30, symSize: 0x34 }
  - { offset: 0x252B3, size: 0x8, addend: 0x0, symName: __ZNSt3__117__compressed_pairINS_16__hash_node_baseIPNS_11__hash_nodeINS_17__hash_value_typeIiNS_12basic_stringIcNS_11char_traitsIcEENS_9allocatorIcEEEEEEPvEEEENS7_ISC_EEE6secondB8ne180100Ev, symObjAddr: 0x329C, symBinAddr: 0x100007B64, symSize: 0x24 }
  - { offset: 0x252D7, size: 0x8, addend: 0x0, symName: __ZNSt3__122__compressed_pair_elemINS_9allocatorINS_11__hash_nodeINS_17__hash_value_typeIiNS_12basic_stringIcNS_11char_traitsIcEENS1_IcEEEEEEPvEEEELi1ELb1EE5__getB8ne180100Ev, symObjAddr: 0x32C0, symBinAddr: 0x100007B88, symSize: 0x14 }
  - { offset: 0x252FB, size: 0x8, addend: 0x0, symName: __ZNSt3__114pointer_traitsIPNS_16__hash_node_baseIPNS_11__hash_nodeINS_17__hash_value_typeIiNS_12basic_stringIcNS_11char_traitsIcEENS_9allocatorIcEEEEEEPvEEEEE10pointer_toB8ne180100ERSE_, symObjAddr: 0x32D4, symBinAddr: 0x100007B9C, symSize: 0x14 }
  - { offset: 0x2531D, size: 0x8, addend: 0x0, symName: __ZNSt3__117__hash_value_typeIiNS_12basic_stringIcNS_11char_traitsIcEENS_9allocatorIcEEEEE11__get_valueB8ne180100Ev, symObjAddr: 0x330C, symBinAddr: 0x100007BD4, symSize: 0x24 }
  - { offset: 0x25341, size: 0x8, addend: 0x0, symName: __ZNSt3__111__hash_nodeINS_17__hash_value_typeIiNS_12basic_stringIcNS_11char_traitsIcEENS_9allocatorIcEEEEEEPvED1B8ne180100Ev, symObjAddr: 0x3368, symBinAddr: 0x100007C30, symSize: 0x2C }
  - { offset: 0x25369, size: 0x8, addend: 0x0, symName: __ZNSt3__111__hash_nodeINS_17__hash_value_typeIiNS_12basic_stringIcNS_11char_traitsIcEENS_9allocatorIcEEEEEEPvED2B8ne180100Ev, symObjAddr: 0x3394, symBinAddr: 0x100007C5C, symSize: 0x14 }
  - { offset: 0x25391, size: 0x8, addend: 0x0, symName: __ZNSt3__19allocatorINS_11__hash_nodeINS_17__hash_value_typeIiNS_12basic_stringIcNS_11char_traitsIcEENS0_IcEEEEEEPvEEE10deallocateB8ne180100EPSA_m, symObjAddr: 0x33A8, symBinAddr: 0x100007C70, symSize: 0x44 }
  - { offset: 0x253D1, size: 0x8, addend: 0x0, symName: __ZNSt3__122__compressed_pair_elemINS_16__hash_node_baseIPNS_11__hash_nodeINS_17__hash_value_typeIiNS_12basic_stringIcNS_11char_traitsIcEENS_9allocatorIcEEEEEEPvEEEELi0ELb0EE5__getB8ne180100Ev, symObjAddr: 0x3514, symBinAddr: 0x100007CB4, symSize: 0x14 }
  - { offset: 0x253F5, size: 0x8, addend: 0x0, symName: __ZNSt3__110unique_ptrIA_PNS_16__hash_node_baseIPNS_11__hash_nodeINS_17__hash_value_typeIiNS_12basic_stringIcNS_11char_traitsIcEENS_9allocatorIcEEEEEEPvEEEENS_25__bucket_list_deallocatorINS7_ISF_EEEEED2B8ne180100Ev, symObjAddr: 0x3528, symBinAddr: 0x100007CC8, symSize: 0x30 }
  - { offset: 0x2541D, size: 0x8, addend: 0x0, symName: __ZNSt3__110unique_ptrIA_PNS_16__hash_node_baseIPNS_11__hash_nodeINS_17__hash_value_typeIiNS_12basic_stringIcNS_11char_traitsIcEENS_9allocatorIcEEEEEEPvEEEENS_25__bucket_list_deallocatorINS7_ISF_EEEEE5resetB8ne180100EDn, symObjAddr: 0x3558, symBinAddr: 0x100007CF8, symSize: 0x6C }
  - { offset: 0x2545B, size: 0x8, addend: 0x0, symName: __ZNSt3__117__compressed_pairIPPNS_16__hash_node_baseIPNS_11__hash_nodeINS_17__hash_value_typeIiNS_12basic_stringIcNS_11char_traitsIcEENS_9allocatorIcEEEEEEPvEEEENS_25__bucket_list_deallocatorINS7_ISF_EEEEE5firstB8ne180100Ev, symObjAddr: 0x35C4, symBinAddr: 0x100007D64, symSize: 0x24 }
  - { offset: 0x2547F, size: 0x8, addend: 0x0, symName: __ZNSt3__117__compressed_pairIPPNS_16__hash_node_baseIPNS_11__hash_nodeINS_17__hash_value_typeIiNS_12basic_stringIcNS_11char_traitsIcEENS_9allocatorIcEEEEEEPvEEEENS_25__bucket_list_deallocatorINS7_ISF_EEEEE6secondB8ne180100Ev, symObjAddr: 0x35E8, symBinAddr: 0x100007D88, symSize: 0x28 }
  - { offset: 0x254A3, size: 0x8, addend: 0x0, symName: __ZNSt3__125__bucket_list_deallocatorINS_9allocatorIPNS_16__hash_node_baseIPNS_11__hash_nodeINS_17__hash_value_typeIiNS_12basic_stringIcNS_11char_traitsIcEENS1_IcEEEEEEPvEEEEEEEclB8ne180100EPSF_, symObjAddr: 0x3610, symBinAddr: 0x100007DB0, symSize: 0x58 }
  - { offset: 0x254D6, size: 0x8, addend: 0x0, symName: __ZNSt3__122__compressed_pair_elemIPPNS_16__hash_node_baseIPNS_11__hash_nodeINS_17__hash_value_typeIiNS_12basic_stringIcNS_11char_traitsIcEENS_9allocatorIcEEEEEEPvEEEELi0ELb0EE5__getB8ne180100Ev, symObjAddr: 0x3668, symBinAddr: 0x100007E08, symSize: 0x14 }
  - { offset: 0x254FA, size: 0x8, addend: 0x0, symName: __ZNSt3__122__compressed_pair_elemINS_25__bucket_list_deallocatorINS_9allocatorIPNS_16__hash_node_baseIPNS_11__hash_nodeINS_17__hash_value_typeIiNS_12basic_stringIcNS_11char_traitsIcEENS2_IcEEEEEEPvEEEEEEEELi1ELb0EE5__getB8ne180100Ev, symObjAddr: 0x367C, symBinAddr: 0x100007E1C, symSize: 0x14 }
  - { offset: 0x2551E, size: 0x8, addend: 0x0, symName: __ZNSt3__116allocator_traitsINS_9allocatorIPNS_16__hash_node_baseIPNS_11__hash_nodeINS_17__hash_value_typeIiNS_12basic_stringIcNS_11char_traitsIcEENS1_IcEEEEEEPvEEEEEEE10deallocateB8ne180100ERSG_PSF_m, symObjAddr: 0x3690, symBinAddr: 0x100007E30, symSize: 0x34 }
  - { offset: 0x2555F, size: 0x8, addend: 0x0, symName: __ZNSt3__125__bucket_list_deallocatorINS_9allocatorIPNS_16__hash_node_baseIPNS_11__hash_nodeINS_17__hash_value_typeIiNS_12basic_stringIcNS_11char_traitsIcEENS1_IcEEEEEEPvEEEEEEE7__allocB8ne180100Ev, symObjAddr: 0x36C4, symBinAddr: 0x100007E64, symSize: 0x24 }
  - { offset: 0x25583, size: 0x8, addend: 0x0, symName: __ZNSt3__125__bucket_list_deallocatorINS_9allocatorIPNS_16__hash_node_baseIPNS_11__hash_nodeINS_17__hash_value_typeIiNS_12basic_stringIcNS_11char_traitsIcEENS1_IcEEEEEEPvEEEEEEE4sizeB8ne180100Ev, symObjAddr: 0x36E8, symBinAddr: 0x100007E88, symSize: 0x24 }
  - { offset: 0x255A7, size: 0x8, addend: 0x0, symName: __ZNSt3__19allocatorIPNS_16__hash_node_baseIPNS_11__hash_nodeINS_17__hash_value_typeIiNS_12basic_stringIcNS_11char_traitsIcEENS0_IcEEEEEEPvEEEEE10deallocateB8ne180100EPSE_m, symObjAddr: 0x370C, symBinAddr: 0x100007EAC, symSize: 0x40 }
  - { offset: 0x255E7, size: 0x8, addend: 0x0, symName: __ZNSt3__117__compressed_pairImNS_9allocatorIPNS_16__hash_node_baseIPNS_11__hash_nodeINS_17__hash_value_typeIiNS_12basic_stringIcNS_11char_traitsIcEENS1_IcEEEEEEPvEEEEEEE6secondB8ne180100Ev, symObjAddr: 0x374C, symBinAddr: 0x100007EEC, symSize: 0x24 }
  - { offset: 0x2560B, size: 0x8, addend: 0x0, symName: __ZNSt3__122__compressed_pair_elemINS_9allocatorIPNS_16__hash_node_baseIPNS_11__hash_nodeINS_17__hash_value_typeIiNS_12basic_stringIcNS_11char_traitsIcEENS1_IcEEEEEEPvEEEEEELi1ELb1EE5__getB8ne180100Ev, symObjAddr: 0x3770, symBinAddr: 0x100007F10, symSize: 0x14 }
  - { offset: 0x2562F, size: 0x8, addend: 0x0, symName: __ZNSt3__117__compressed_pairImNS_9allocatorIPNS_16__hash_node_baseIPNS_11__hash_nodeINS_17__hash_value_typeIiNS_12basic_stringIcNS_11char_traitsIcEENS1_IcEEEEEEPvEEEEEEE5firstB8ne180100Ev, symObjAddr: 0x3784, symBinAddr: 0x100007F24, symSize: 0x24 }
  - { offset: 0x25653, size: 0x8, addend: 0x0, symName: __ZNSt3__14__fs10filesystem4pathC2B8ne180100IA15_cvEERKT_NS2_6formatE, symObjAddr: 0x37BC, symBinAddr: 0x100007F48, symSize: 0x68 }
  - { offset: 0x256A4, size: 0x8, addend: 0x0, symName: __ZNSt3__14__fs10filesystem8_PathCVTIcE15__append_sourceB8ne180100IA15_cEEvRNS_12basic_stringIcNS_11char_traitsIcEENS_9allocatorIcEEEERKT_, symObjAddr: 0x3824, symBinAddr: 0x100007FB0, symSize: 0x4C }
  - { offset: 0x256DF, size: 0x8, addend: 0x0, symName: __ZNSt3__14__fs10filesystem8_PathCVTIcE14__append_rangeB8ne180100IPKcLi0EEEvRNS_12basic_stringIcNS_11char_traitsIcEENS_9allocatorIcEEEET_SE_, symObjAddr: 0x3870, symBinAddr: 0x100007FFC, symSize: 0x34 }
  - { offset: 0x2572F, size: 0x8, addend: 0x0, symName: __ZNSt3__14__fs10filesystem24__is_pathable_char_arrayIA15_cPccLb1EE13__range_beginB8ne180100EPKc, symObjAddr: 0x38A4, symBinAddr: 0x100008030, symSize: 0x14 }
  - { offset: 0x25751, size: 0x8, addend: 0x0, symName: __ZNSt3__14__fs10filesystem24__is_pathable_char_arrayIA15_cPccLb1EE11__range_endB8ne180100EPKc, symObjAddr: 0x38B8, symBinAddr: 0x100008044, symSize: 0x50 }
  - { offset: 0x2579A, size: 0x8, addend: 0x0, symName: __ZNSt3__112basic_stringIcNS_11char_traitsIcEENS_9allocatorIcEEE6appendB8ne180100IPKcLi0EEERS5_T_SA_, symObjAddr: 0x3908, symBinAddr: 0x100008094, symSize: 0x1F0 }
  - { offset: 0x2584C, size: 0x8, addend: 0x0, symName: __ZNKSt3__112basic_stringIcNS_11char_traitsIcEENS_9allocatorIcEEE8capacityB8ne180100Ev, symObjAddr: 0x3AF8, symBinAddr: 0x100008284, symSize: 0x54 }
  - { offset: 0x25870, size: 0x8, addend: 0x0, symName: __ZNKSt3__112basic_stringIcNS_11char_traitsIcEENS_9allocatorIcEEE15__addr_in_rangeB8ne180100IcEEbRKT_, symObjAddr: 0x3B78, symBinAddr: 0x100008304, symSize: 0x6C }
  - { offset: 0x258AC, size: 0x8, addend: 0x0, symName: __ZNSt3__112basic_stringIcNS_11char_traitsIcEENS_9allocatorIcEEE25__grow_by_without_replaceB8ne180100Emmmmmm, symObjAddr: 0x3BE4, symBinAddr: 0x100008370, symSize: 0x90 }
  - { offset: 0x2592C, size: 0x8, addend: 0x0, symName: __ZNKSt3__112basic_stringIcNS_11char_traitsIcEENS_9allocatorIcEEE19__annotate_increaseB8ne180100Em, symObjAddr: 0x3C74, symBinAddr: 0x100008400, symSize: 0x14 }
  - { offset: 0x2595F, size: 0x8, addend: 0x0, symName: __ZNSt3__111char_traitsIcE6assignB8ne180100ERcRKc, symObjAddr: 0x3C88, symBinAddr: 0x100008414, symSize: 0x24 }
  - { offset: 0x2598F, size: 0x8, addend: 0x0, symName: __ZNSt3__112basic_stringIcNS_11char_traitsIcEENS_9allocatorIcEEE10__set_sizeB8ne180100Em, symObjAddr: 0x3CAC, symBinAddr: 0x100008438, symSize: 0x54 }
  - { offset: 0x259C2, size: 0x8, addend: 0x0, symName: __ZNSt3__112basic_stringIcNS_11char_traitsIcEENS_9allocatorIcEEE7__allocB8ne180100Ev, symObjAddr: 0x3D00, symBinAddr: 0x10000848C, symSize: 0x24 }
  - { offset: 0x259E6, size: 0x8, addend: 0x0, symName: __ZNSt3__112basic_stringIcNS_11char_traitsIcEENS_9allocatorIcEEEC1B8ne180100IPKcLi0EEET_S9_RKS4_, symObjAddr: 0x3D24, symBinAddr: 0x1000084B0, symSize: 0x44 }
  - { offset: 0x25A4A, size: 0x8, addend: 0x0, symName: __ZNKSt3__112basic_stringIcNS_11char_traitsIcEENS_9allocatorIcEEE14__get_long_capB8ne180100Ev, symObjAddr: 0x3D68, symBinAddr: 0x1000084F4, symSize: 0x30 }
  - { offset: 0x25A82, size: 0x8, addend: 0x0, symName: __ZNKSt3__16__lessIvvEclB8ne180100IPKcS4_EEbRKT_RKT0_, symObjAddr: 0x3E20, symBinAddr: 0x1000085AC, symSize: 0x34 }
  - { offset: 0x25AD4, size: 0x8, addend: 0x0, symName: __ZNSt3__112basic_stringIcNS_11char_traitsIcEENS_9allocatorIcEEE15__set_long_sizeB8ne180100Em, symObjAddr: 0x3E54, symBinAddr: 0x1000085E0, symSize: 0x38 }
  - { offset: 0x25B07, size: 0x8, addend: 0x0, symName: __ZNSt3__112basic_stringIcNS_11char_traitsIcEENS_9allocatorIcEEE16__set_short_sizeB8ne180100Em, symObjAddr: 0x3E8C, symBinAddr: 0x100008618, symSize: 0x78 }
  - { offset: 0x25B3A, size: 0x8, addend: 0x0, symName: __ZNSt3__117__compressed_pairINS_12basic_stringIcNS_11char_traitsIcEENS_9allocatorIcEEE5__repES5_E6secondB8ne180100Ev, symObjAddr: 0x3F04, symBinAddr: 0x100008690, symSize: 0x24 }
  - { offset: 0x25B5E, size: 0x8, addend: 0x0, symName: __ZNSt3__122__compressed_pair_elemINS_9allocatorIcEELi1ELb1EE5__getB8ne180100Ev, symObjAddr: 0x3F28, symBinAddr: 0x1000086B4, symSize: 0x14 }
  - { offset: 0x25B82, size: 0x8, addend: 0x0, symName: __ZNSt3__112basic_stringIcNS_11char_traitsIcEENS_9allocatorIcEEEC2B8ne180100IPKcLi0EEET_S9_RKS4_, symObjAddr: 0x3F3C, symBinAddr: 0x1000086C8, symSize: 0x50 }
  - { offset: 0x25BE6, size: 0x8, addend: 0x0, symName: __ZNSt3__117__compressed_pairINS_12basic_stringIcNS_11char_traitsIcEENS_9allocatorIcEEE5__repES5_EC1B8ne180100INS_18__default_init_tagERKS5_EEOT_OT0_, symObjAddr: 0x3F8C, symBinAddr: 0x100008718, symSize: 0x3C }
  - { offset: 0x25C3C, size: 0x8, addend: 0x0, symName: __ZNSt3__112basic_stringIcNS_11char_traitsIcEENS_9allocatorIcEEE6__initIPKcLi0EEEvT_S9_, symObjAddr: 0x3FC8, symBinAddr: 0x100008754, symSize: 0x54 }
  - { offset: 0x25C9E, size: 0x8, addend: 0x0, symName: __ZNSt3__117__compressed_pairINS_12basic_stringIcNS_11char_traitsIcEENS_9allocatorIcEEE5__repES5_EC2B8ne180100INS_18__default_init_tagERKS5_EEOT_OT0_, symObjAddr: 0x401C, symBinAddr: 0x1000087A8, symSize: 0x40 }
  - { offset: 0x25CF4, size: 0x8, addend: 0x0, symName: __ZNSt3__122__compressed_pair_elemINS_9allocatorIcEELi1ELb1EEC2B8ne180100IRKS2_vEEOT_, symObjAddr: 0x405C, symBinAddr: 0x1000087E8, symSize: 0x18 }
  - { offset: 0x25D34, size: 0x8, addend: 0x0, symName: __ZNSt3__112basic_stringIcNS_11char_traitsIcEENS_9allocatorIcEEE16__init_with_sizeB8ne180100IPKcS8_EEvT_T0_m, symObjAddr: 0x4074, symBinAddr: 0x100008800, symSize: 0x150 }
  - { offset: 0x25DC5, size: 0x8, addend: 0x0, symName: __ZNKSt3__112basic_stringIcNS_11char_traitsIcEENS_9allocatorIcEEE8max_sizeB8ne180100Ev, symObjAddr: 0x41C4, symBinAddr: 0x100008950, symSize: 0xAC }
  - { offset: 0x25E15, size: 0x8, addend: 0x0, symName: __ZNKSt3__112basic_stringIcNS_11char_traitsIcEENS_9allocatorIcEEE20__throw_length_errorB8ne180100Ev, symObjAddr: 0x4270, symBinAddr: 0x1000089FC, symSize: 0x1C }
  - { offset: 0x25E39, size: 0x8, addend: 0x0, symName: __ZNSt3__112basic_stringIcNS_11char_traitsIcEENS_9allocatorIcEEE13__fits_in_ssoB8ne180100Em, symObjAddr: 0x428C, symBinAddr: 0x100008A18, symSize: 0x20 }
  - { offset: 0x25E5C, size: 0x8, addend: 0x0, symName: __ZNSt3__112basic_stringIcNS_11char_traitsIcEENS_9allocatorIcEEE11__recommendB8ne180100Em, symObjAddr: 0x42EC, symBinAddr: 0x100008A78, symSize: 0x84 }
  - { offset: 0x25E8E, size: 0x8, addend: 0x0, symName: __ZNSt3__112basic_stringIcNS_11char_traitsIcEENS_9allocatorIcEEE16__begin_lifetimeB8ne180100EPcm, symObjAddr: 0x4370, symBinAddr: 0x100008AFC, symSize: 0x14 }
  - { offset: 0x25EC0, size: 0x8, addend: 0x0, symName: __ZNSt3__112basic_stringIcNS_11char_traitsIcEENS_9allocatorIcEEE18__set_long_pointerB8ne180100EPc, symObjAddr: 0x4384, symBinAddr: 0x100008B10, symSize: 0x38 }
  - { offset: 0x25EF3, size: 0x8, addend: 0x0, symName: __ZNSt3__112basic_stringIcNS_11char_traitsIcEENS_9allocatorIcEEE14__set_long_capB8ne180100Em, symObjAddr: 0x43BC, symBinAddr: 0x100008B48, symSize: 0x70 }
  - { offset: 0x25F30, size: 0x8, addend: 0x0, symName: __ZNSt3__116allocator_traitsINS_9allocatorIcEEE8max_sizeB8ne180100IS2_vEEmRKS2_, symObjAddr: 0x442C, symBinAddr: 0x100008BB8, symSize: 0x24 }
  - { offset: 0x25F5D, size: 0x8, addend: 0x0, symName: __ZNKSt3__112basic_stringIcNS_11char_traitsIcEENS_9allocatorIcEEE7__allocB8ne180100Ev, symObjAddr: 0x4450, symBinAddr: 0x100008BDC, symSize: 0x24 }
  - { offset: 0x25F82, size: 0x8, addend: 0x0, symName: __ZNSt3__114numeric_limitsImE3maxB8ne180100Ev, symObjAddr: 0x4474, symBinAddr: 0x100008C00, symSize: 0x14 }
  - { offset: 0x25F95, size: 0x8, addend: 0x0, symName: __ZNKSt3__19allocatorIcE8max_sizeB8ne180100Ev, symObjAddr: 0x4488, symBinAddr: 0x100008C14, symSize: 0x14 }
  - { offset: 0x25FB9, size: 0x8, addend: 0x0, symName: __ZNKSt3__117__compressed_pairINS_12basic_stringIcNS_11char_traitsIcEENS_9allocatorIcEEE5__repES5_E6secondB8ne180100Ev, symObjAddr: 0x449C, symBinAddr: 0x100008C28, symSize: 0x24 }
  - { offset: 0x25FDD, size: 0x8, addend: 0x0, symName: __ZNKSt3__122__compressed_pair_elemINS_9allocatorIcEELi1ELb1EE5__getB8ne180100Ev, symObjAddr: 0x44C0, symBinAddr: 0x100008C4C, symSize: 0x14 }
  - { offset: 0x26002, size: 0x8, addend: 0x0, symName: __ZNSt3__123__libcpp_numeric_limitsImLb1EE3maxB8ne180100Ev, symObjAddr: 0x44D4, symBinAddr: 0x100008C60, symSize: 0x8 }
  - { offset: 0x26015, size: 0x8, addend: 0x0, symName: __ZNSt12length_errorC1B8ne180100EPKc, symObjAddr: 0x4540, symBinAddr: 0x100008CCC, symSize: 0x34 }
  - { offset: 0x2604B, size: 0x8, addend: 0x0, symName: __ZNSt12length_errorC2B8ne180100EPKc, symObjAddr: 0x4574, symBinAddr: 0x100008D00, symSize: 0x44 }
  - { offset: 0x26081, size: 0x8, addend: 0x0, symName: __ZNSt3__19allocatorIcE8allocateB8ne180100Em, symObjAddr: 0x45B8, symBinAddr: 0x100008D44, symSize: 0x58 }
  - { offset: 0x260B3, size: 0x8, addend: 0x0, symName: __ZNSt3__112basic_stringIcNS_11char_traitsIcEENS_9allocatorIcEEE10__align_itB8ne180100ILm8EEEmm, symObjAddr: 0x46F4, symBinAddr: 0x100008D9C, symSize: 0x1C }
  - { offset: 0x260E0, size: 0x8, addend: 0x0, symName: __ZNKSt3__14__fs10filesystem4path6nativeB8ne180100Ev, symObjAddr: 0x47C0, symBinAddr: 0x100008E68, symSize: 0x14 }
  - { offset: 0x26104, size: 0x8, addend: 0x0, symName: __ZNSt3__111char_traitsIcE2eqEcc, symObjAddr: 0x491C, symBinAddr: 0x100008FC4, symSize: 0x28 }
  - { offset: 0x26139, size: 0x8, addend: 0x0, symName: __ZNSt3__121__quoted_output_proxyIcNS_11char_traitsIcEEEC1B8ne180100EPKcS5_cc, symObjAddr: 0x4944, symBinAddr: 0x100008FEC, symSize: 0x4C }
  - { offset: 0x2619D, size: 0x8, addend: 0x0, symName: __ZNSt3__121__quoted_output_proxyIcNS_11char_traitsIcEEEC2B8ne180100EPKcS5_cc, symObjAddr: 0x4990, symBinAddr: 0x100009038, symSize: 0x44 }
  - { offset: 0x26201, size: 0x8, addend: 0x0, symName: __ZNSt3__112__hash_tableINS_17__hash_value_typeIiNS_12basic_stringIcNS_11char_traitsIcEENS_9allocatorIcEEEEEENS_22__unordered_map_hasherIiS8_NS_4hashIiEENS_8equal_toIiEELb1EEENS_21__unordered_map_equalIiS8_SD_SB_Lb1EEENS5_IS8_EEE15__insert_uniqueB8ne180100EONS_4pairIKiS7_EE, symObjAddr: 0x49D4, symBinAddr: 0x10000907C, symSize: 0x50 }
  - { offset: 0x26234, size: 0x8, addend: 0x0, symName: __ZNSt3__14pairINS_19__hash_map_iteratorINS_15__hash_iteratorIPNS_11__hash_nodeINS_17__hash_value_typeIiNS_12basic_stringIcNS_11char_traitsIcEENS_9allocatorIcEEEEEEPvEEEEEEbEC1B8ne180100ISF_bLi0EEEONS0_IT_T0_EE, symObjAddr: 0x4A24, symBinAddr: 0x1000090CC, symSize: 0x34 }
  - { offset: 0x26282, size: 0x8, addend: 0x0, symName: __ZNSt3__112__hash_tableINS_17__hash_value_typeIiNS_12basic_stringIcNS_11char_traitsIcEENS_9allocatorIcEEEEEENS_22__unordered_map_hasherIiS8_NS_4hashIiEENS_8equal_toIiEELb1EEENS_21__unordered_map_equalIiS8_SD_SB_Lb1EEENS5_IS8_EEE25__emplace_unique_key_argsIiJNS_4pairIKiS7_EEEEENSK_INS_15__hash_iteratorIPNS_11__hash_nodeIS8_PvEEEEbEERKT_DpOT0_, symObjAddr: 0x4A58, symBinAddr: 0x100009100, symSize: 0x4D8 }
  - { offset: 0x26360, size: 0x8, addend: 0x0, symName: __ZNSt3__122__hash_key_value_typesINS_17__hash_value_typeIiNS_12basic_stringIcNS_11char_traitsIcEENS_9allocatorIcEEEEEEE9__get_keyB8ne180100ERKNS_4pairIKiS7_EE, symObjAddr: 0x4F30, symBinAddr: 0x1000095D8, symSize: 0x14 }
  - { offset: 0x26382, size: 0x8, addend: 0x0, symName: __ZNSt3__112__hash_tableINS_17__hash_value_typeIiNS_12basic_stringIcNS_11char_traitsIcEENS_9allocatorIcEEEEEENS_22__unordered_map_hasherIiS8_NS_4hashIiEENS_8equal_toIiEELb1EEENS_21__unordered_map_equalIiS8_SD_SB_Lb1EEENS5_IS8_EEE13hash_functionB8ne180100Ev, symObjAddr: 0x4F44, symBinAddr: 0x1000095EC, symSize: 0x28 }
  - { offset: 0x263A6, size: 0x8, addend: 0x0, symName: __ZNKSt3__122__unordered_map_hasherIiNS_17__hash_value_typeIiNS_12basic_stringIcNS_11char_traitsIcEENS_9allocatorIcEEEEEENS_4hashIiEENS_8equal_toIiEELb1EEclB8ne180100ERKi, symObjAddr: 0x4F6C, symBinAddr: 0x100009614, symSize: 0x30 }
  - { offset: 0x263D9, size: 0x8, addend: 0x0, symName: __ZNKSt3__112__hash_tableINS_17__hash_value_typeIiNS_12basic_stringIcNS_11char_traitsIcEENS_9allocatorIcEEEEEENS_22__unordered_map_hasherIiS8_NS_4hashIiEENS_8equal_toIiEELb1EEENS_21__unordered_map_equalIiS8_SD_SB_Lb1EEENS5_IS8_EEE12bucket_countB8ne180100Ev, symObjAddr: 0x4F9C, symBinAddr: 0x100009644, symSize: 0x28 }
  - { offset: 0x263FD, size: 0x8, addend: 0x0, symName: __ZNKSt3__110unique_ptrIA_PNS_16__hash_node_baseIPNS_11__hash_nodeINS_17__hash_value_typeIiNS_12basic_stringIcNS_11char_traitsIcEENS_9allocatorIcEEEEEEPvEEEENS_25__bucket_list_deallocatorINS7_ISF_EEEEEixB8ne180100Em, symObjAddr: 0x505C, symBinAddr: 0x100009704, symSize: 0x34 }
  - { offset: 0x26430, size: 0x8, addend: 0x0, symName: __ZNKSt3__116__hash_node_baseIPNS_11__hash_nodeINS_17__hash_value_typeIiNS_12basic_stringIcNS_11char_traitsIcEENS_9allocatorIcEEEEEEPvEEE6__hashB8ne180100Ev, symObjAddr: 0x5090, symBinAddr: 0x100009738, symSize: 0x18 }
  - { offset: 0x26454, size: 0x8, addend: 0x0, symName: __ZNSt3__112__hash_tableINS_17__hash_value_typeIiNS_12basic_stringIcNS_11char_traitsIcEENS_9allocatorIcEEEEEENS_22__unordered_map_hasherIiS8_NS_4hashIiEENS_8equal_toIiEELb1EEENS_21__unordered_map_equalIiS8_SD_SB_Lb1EEENS5_IS8_EEE6key_eqB8ne180100Ev, symObjAddr: 0x50A8, symBinAddr: 0x100009750, symSize: 0x28 }
  - { offset: 0x26478, size: 0x8, addend: 0x0, symName: __ZNKSt3__121__unordered_map_equalIiNS_17__hash_value_typeIiNS_12basic_stringIcNS_11char_traitsIcEENS_9allocatorIcEEEEEENS_8equal_toIiEENS_4hashIiEELb1EEclB8ne180100ERKS8_RKi, symObjAddr: 0x50D0, symBinAddr: 0x100009778, symSize: 0x48 }
  - { offset: 0x264BA, size: 0x8, addend: 0x0, symName: __ZNSt3__112__hash_tableINS_17__hash_value_typeIiNS_12basic_stringIcNS_11char_traitsIcEENS_9allocatorIcEEEEEENS_22__unordered_map_hasherIiS8_NS_4hashIiEENS_8equal_toIiEELb1EEENS_21__unordered_map_equalIiS8_SD_SB_Lb1EEENS5_IS8_EEE21__construct_node_hashINS_4pairIKiS7_EEJEEENS_10unique_ptrINS_11__hash_nodeIS8_PvEENS_22__hash_node_destructorINS5_ISQ_EEEEEEmOT_DpOT0_, symObjAddr: 0x5118, symBinAddr: 0x1000097C0, symSize: 0x13C }
  - { offset: 0x2652B, size: 0x8, addend: 0x0, symName: __ZNSt3__112__hash_tableINS_17__hash_value_typeIiNS_12basic_stringIcNS_11char_traitsIcEENS_9allocatorIcEEEEEENS_22__unordered_map_hasherIiS8_NS_4hashIiEENS_8equal_toIiEELb1EEENS_21__unordered_map_equalIiS8_SD_SB_Lb1EEENS5_IS8_EEE4sizeB8ne180100Ev, symObjAddr: 0x5254, symBinAddr: 0x1000098FC, symSize: 0x28 }
  - { offset: 0x2654F, size: 0x8, addend: 0x0, symName: __ZNSt3__112__hash_tableINS_17__hash_value_typeIiNS_12basic_stringIcNS_11char_traitsIcEENS_9allocatorIcEEEEEENS_22__unordered_map_hasherIiS8_NS_4hashIiEENS_8equal_toIiEELb1EEENS_21__unordered_map_equalIiS8_SD_SB_Lb1EEENS5_IS8_EEE15max_load_factorB8ne180100Ev, symObjAddr: 0x527C, symBinAddr: 0x100009924, symSize: 0x28 }
  - { offset: 0x26573, size: 0x8, addend: 0x0, symName: __ZNSt3__112__hash_tableINS_17__hash_value_typeIiNS_12basic_stringIcNS_11char_traitsIcEENS_9allocatorIcEEEEEENS_22__unordered_map_hasherIiS8_NS_4hashIiEENS_8equal_toIiEELb1EEENS_21__unordered_map_equalIiS8_SD_SB_Lb1EEENS5_IS8_EEE15__rehash_uniqueB8ne180100Em, symObjAddr: 0x52A4, symBinAddr: 0x10000994C, symSize: 0x2C }
  - { offset: 0x265A6, size: 0x8, addend: 0x0, symName: __ZNSt3__116__hash_node_baseIPNS_11__hash_nodeINS_17__hash_value_typeIiNS_12basic_stringIcNS_11char_traitsIcEENS_9allocatorIcEEEEEEPvEEE5__ptrB8ne180100Ev, symObjAddr: 0x5364, symBinAddr: 0x100009A0C, symSize: 0x24 }
  - { offset: 0x265CA, size: 0x8, addend: 0x0, symName: __ZNKSt3__110unique_ptrINS_11__hash_nodeINS_17__hash_value_typeIiNS_12basic_stringIcNS_11char_traitsIcEENS_9allocatorIcEEEEEEPvEENS_22__hash_node_destructorINS6_ISB_EEEEEptB8ne180100Ev, symObjAddr: 0x5388, symBinAddr: 0x100009A30, symSize: 0x28 }
  - { offset: 0x265EE, size: 0x8, addend: 0x0, symName: __ZNKSt3__110unique_ptrINS_11__hash_nodeINS_17__hash_value_typeIiNS_12basic_stringIcNS_11char_traitsIcEENS_9allocatorIcEEEEEEPvEENS_22__hash_node_destructorINS6_ISB_EEEEE3getB8ne180100Ev, symObjAddr: 0x53B0, symBinAddr: 0x100009A58, symSize: 0x28 }
  - { offset: 0x26612, size: 0x8, addend: 0x0, symName: __ZNSt3__110unique_ptrINS_11__hash_nodeINS_17__hash_value_typeIiNS_12basic_stringIcNS_11char_traitsIcEENS_9allocatorIcEEEEEEPvEENS_22__hash_node_destructorINS6_ISB_EEEEE7releaseB8ne180100Ev, symObjAddr: 0x53D8, symBinAddr: 0x100009A80, symSize: 0x44 }
  - { offset: 0x26645, size: 0x8, addend: 0x0, symName: __ZNSt3__110unique_ptrINS_11__hash_nodeINS_17__hash_value_typeIiNS_12basic_stringIcNS_11char_traitsIcEENS_9allocatorIcEEEEEEPvEENS_22__hash_node_destructorINS6_ISB_EEEEED1B8ne180100Ev, symObjAddr: 0x541C, symBinAddr: 0x100009AC4, symSize: 0x2C }
  - { offset: 0x2666D, size: 0x8, addend: 0x0, symName: __ZNSt3__115__hash_iteratorIPNS_11__hash_nodeINS_17__hash_value_typeIiNS_12basic_stringIcNS_11char_traitsIcEENS_9allocatorIcEEEEEEPvEEEC1B8ne180100EPNS_16__hash_node_baseISC_EE, symObjAddr: 0x5448, symBinAddr: 0x100009AF0, symSize: 0x34 }
  - { offset: 0x266AE, size: 0x8, addend: 0x0, symName: __ZNSt3__14pairINS_15__hash_iteratorIPNS_11__hash_nodeINS_17__hash_value_typeIiNS_12basic_stringIcNS_11char_traitsIcEENS_9allocatorIcEEEEEEPvEEEEbEC1B8ne180100ISE_RbLi0EEEOT_OT0_, symObjAddr: 0x547C, symBinAddr: 0x100009B24, symSize: 0x3C }
  - { offset: 0x2670A, size: 0x8, addend: 0x0, symName: __ZNSt3__117__compressed_pairImNS_22__unordered_map_hasherIiNS_17__hash_value_typeIiNS_12basic_stringIcNS_11char_traitsIcEENS_9allocatorIcEEEEEENS_4hashIiEENS_8equal_toIiEELb1EEEE6secondB8ne180100Ev, symObjAddr: 0x54B8, symBinAddr: 0x100009B60, symSize: 0x24 }
  - { offset: 0x2672E, size: 0x8, addend: 0x0, symName: __ZNSt3__122__compressed_pair_elemINS_22__unordered_map_hasherIiNS_17__hash_value_typeIiNS_12basic_stringIcNS_11char_traitsIcEENS_9allocatorIcEEEEEENS_4hashIiEENS_8equal_toIiEELb1EEELi1ELb1EE5__getB8ne180100Ev, symObjAddr: 0x54DC, symBinAddr: 0x100009B84, symSize: 0x14 }
  - { offset: 0x26752, size: 0x8, addend: 0x0, symName: __ZNKSt3__14hashIiEclB8ne180100Ei, symObjAddr: 0x54F0, symBinAddr: 0x100009B98, symSize: 0x18 }
  - { offset: 0x26785, size: 0x8, addend: 0x0, symName: __ZNKSt3__110unique_ptrIA_PNS_16__hash_node_baseIPNS_11__hash_nodeINS_17__hash_value_typeIiNS_12basic_stringIcNS_11char_traitsIcEENS_9allocatorIcEEEEEEPvEEEENS_25__bucket_list_deallocatorINS7_ISF_EEEEE11get_deleterB8ne180100Ev, symObjAddr: 0x5508, symBinAddr: 0x100009BB0, symSize: 0x24 }
  - { offset: 0x267A9, size: 0x8, addend: 0x0, symName: __ZNKSt3__125__bucket_list_deallocatorINS_9allocatorIPNS_16__hash_node_baseIPNS_11__hash_nodeINS_17__hash_value_typeIiNS_12basic_stringIcNS_11char_traitsIcEENS1_IcEEEEEEPvEEEEEEE4sizeB8ne180100Ev, symObjAddr: 0x552C, symBinAddr: 0x100009BD4, symSize: 0x28 }
  - { offset: 0x267CD, size: 0x8, addend: 0x0, symName: __ZNKSt3__117__compressed_pairIPPNS_16__hash_node_baseIPNS_11__hash_nodeINS_17__hash_value_typeIiNS_12basic_stringIcNS_11char_traitsIcEENS_9allocatorIcEEEEEEPvEEEENS_25__bucket_list_deallocatorINS7_ISF_EEEEE6secondB8ne180100Ev, symObjAddr: 0x5554, symBinAddr: 0x100009BFC, symSize: 0x28 }
  - { offset: 0x267F1, size: 0x8, addend: 0x0, symName: __ZNKSt3__122__compressed_pair_elemINS_25__bucket_list_deallocatorINS_9allocatorIPNS_16__hash_node_baseIPNS_11__hash_nodeINS_17__hash_value_typeIiNS_12basic_stringIcNS_11char_traitsIcEENS2_IcEEEEEEPvEEEEEEEELi1ELb0EE5__getB8ne180100Ev, symObjAddr: 0x557C, symBinAddr: 0x100009C24, symSize: 0x14 }
  - { offset: 0x26815, size: 0x8, addend: 0x0, symName: __ZNKSt3__117__compressed_pairImNS_9allocatorIPNS_16__hash_node_baseIPNS_11__hash_nodeINS_17__hash_value_typeIiNS_12basic_stringIcNS_11char_traitsIcEENS1_IcEEEEEEPvEEEEEEE5firstB8ne180100Ev, symObjAddr: 0x5590, symBinAddr: 0x100009C38, symSize: 0x24 }
  - { offset: 0x26839, size: 0x8, addend: 0x0, symName: __ZNKSt3__122__compressed_pair_elemImLi0ELb0EE5__getB8ne180100Ev, symObjAddr: 0x55B4, symBinAddr: 0x100009C5C, symSize: 0x14 }
  - { offset: 0x2685D, size: 0x8, addend: 0x0, symName: __ZNKSt3__117__compressed_pairIPPNS_16__hash_node_baseIPNS_11__hash_nodeINS_17__hash_value_typeIiNS_12basic_stringIcNS_11char_traitsIcEENS_9allocatorIcEEEEEEPvEEEENS_25__bucket_list_deallocatorINS7_ISF_EEEEE5firstB8ne180100Ev, symObjAddr: 0x55C8, symBinAddr: 0x100009C70, symSize: 0x24 }
  - { offset: 0x26881, size: 0x8, addend: 0x0, symName: __ZNKSt3__122__compressed_pair_elemIPPNS_16__hash_node_baseIPNS_11__hash_nodeINS_17__hash_value_typeIiNS_12basic_stringIcNS_11char_traitsIcEENS_9allocatorIcEEEEEEPvEEEELi0ELb0EE5__getB8ne180100Ev, symObjAddr: 0x55EC, symBinAddr: 0x100009C94, symSize: 0x14 }
  - { offset: 0x268A5, size: 0x8, addend: 0x0, symName: __ZNSt3__117__compressed_pairIfNS_21__unordered_map_equalIiNS_17__hash_value_typeIiNS_12basic_stringIcNS_11char_traitsIcEENS_9allocatorIcEEEEEENS_8equal_toIiEENS_4hashIiEELb1EEEE6secondB8ne180100Ev, symObjAddr: 0x5600, symBinAddr: 0x100009CA8, symSize: 0x24 }
  - { offset: 0x268C9, size: 0x8, addend: 0x0, symName: __ZNSt3__122__compressed_pair_elemINS_21__unordered_map_equalIiNS_17__hash_value_typeIiNS_12basic_stringIcNS_11char_traitsIcEENS_9allocatorIcEEEEEENS_8equal_toIiEENS_4hashIiEELb1EEELi1ELb1EE5__getB8ne180100Ev, symObjAddr: 0x5624, symBinAddr: 0x100009CCC, symSize: 0x14 }
  - { offset: 0x268ED, size: 0x8, addend: 0x0, symName: __ZNKSt3__18equal_toIiEclB8ne180100ERKiS3_, symObjAddr: 0x5638, symBinAddr: 0x100009CE0, symSize: 0x34 }
  - { offset: 0x2692F, size: 0x8, addend: 0x0, symName: __ZNKSt3__117__hash_value_typeIiNS_12basic_stringIcNS_11char_traitsIcEENS_9allocatorIcEEEEE11__get_valueB8ne180100Ev, symObjAddr: 0x566C, symBinAddr: 0x100009D14, symSize: 0x24 }
  - { offset: 0x26953, size: 0x8, addend: 0x0, symName: __ZNSt3__116allocator_traitsINS_9allocatorINS_11__hash_nodeINS_17__hash_value_typeIiNS_12basic_stringIcNS_11char_traitsIcEENS1_IcEEEEEEPvEEEEE8allocateB8ne180100ERSC_m, symObjAddr: 0x56C8, symBinAddr: 0x100009D70, symSize: 0x2C }
  - { offset: 0x26985, size: 0x8, addend: 0x0, symName: __ZNSt3__122__hash_node_destructorINS_9allocatorINS_11__hash_nodeINS_17__hash_value_typeIiNS_12basic_stringIcNS_11char_traitsIcEENS1_IcEEEEEEPvEEEEEC1B8ne180100ERSC_b, symObjAddr: 0x56F4, symBinAddr: 0x100009D9C, symSize: 0x48 }
  - { offset: 0x269D0, size: 0x8, addend: 0x0, symName: __ZNSt3__110unique_ptrINS_11__hash_nodeINS_17__hash_value_typeIiNS_12basic_stringIcNS_11char_traitsIcEENS_9allocatorIcEEEEEEPvEENS_22__hash_node_destructorINS6_ISB_EEEEEC1B8ne180100ILb1EvEEPSB_NS_16__dependent_typeINS_27__unique_ptr_deleter_sfinaeISE_EEXT_EE20__good_rval_ref_typeE, symObjAddr: 0x573C, symBinAddr: 0x100009DE4, symSize: 0x3C }
  - { offset: 0x26A1F, size: 0x8, addend: 0x0, symName: __ZNKSt3__110unique_ptrINS_11__hash_nodeINS_17__hash_value_typeIiNS_12basic_stringIcNS_11char_traitsIcEENS_9allocatorIcEEEEEEPvEENS_22__hash_node_destructorINS6_ISB_EEEEEdeB8ne180100Ev, symObjAddr: 0x57B8, symBinAddr: 0x100009E60, symSize: 0x28 }
  - { offset: 0x26A43, size: 0x8, addend: 0x0, symName: __ZNSt3__116allocator_traitsINS_9allocatorINS_11__hash_nodeINS_17__hash_value_typeIiNS_12basic_stringIcNS_11char_traitsIcEENS1_IcEEEEEEPvEEEEE9constructB8ne180100INS_4pairIKiS8_EEJSH_EvEEvRSC_PT_DpOT0_, symObjAddr: 0x57E0, symBinAddr: 0x100009E88, symSize: 0x34 }
  - { offset: 0x26A99, size: 0x8, addend: 0x0, symName: __ZNSt3__110unique_ptrINS_11__hash_nodeINS_17__hash_value_typeIiNS_12basic_stringIcNS_11char_traitsIcEENS_9allocatorIcEEEEEEPvEENS_22__hash_node_destructorINS6_ISB_EEEEE11get_deleterB8ne180100Ev, symObjAddr: 0x5814, symBinAddr: 0x100009EBC, symSize: 0x24 }
  - { offset: 0x26ABD, size: 0x8, addend: 0x0, symName: __ZNSt3__19allocatorINS_11__hash_nodeINS_17__hash_value_typeIiNS_12basic_stringIcNS_11char_traitsIcEENS0_IcEEEEEEPvEEE8allocateB8ne180100Em, symObjAddr: 0x5838, symBinAddr: 0x100009EE0, symSize: 0x5C }
  - { offset: 0x26AF9, size: 0x8, addend: 0x0, symName: __ZNSt3__116allocator_traitsINS_9allocatorINS_11__hash_nodeINS_17__hash_value_typeIiNS_12basic_stringIcNS_11char_traitsIcEENS1_IcEEEEEEPvEEEEE8max_sizeB8ne180100ISC_vEEmRKSC_, symObjAddr: 0x5894, symBinAddr: 0x100009F3C, symSize: 0x24 }
  - { offset: 0x26B26, size: 0x8, addend: 0x0, symName: __ZNKSt3__19allocatorINS_11__hash_nodeINS_17__hash_value_typeIiNS_12basic_stringIcNS_11char_traitsIcEENS0_IcEEEEEEPvEEE8max_sizeB8ne180100Ev, symObjAddr: 0x58B8, symBinAddr: 0x100009F60, symSize: 0x18 }
  - { offset: 0x26B4A, size: 0x8, addend: 0x0, symName: __ZNSt3__122__hash_node_destructorINS_9allocatorINS_11__hash_nodeINS_17__hash_value_typeIiNS_12basic_stringIcNS_11char_traitsIcEENS1_IcEEEEEEPvEEEEEC2B8ne180100ERSC_b, symObjAddr: 0x58D0, symBinAddr: 0x100009F78, symSize: 0x38 }
  - { offset: 0x26B90, size: 0x8, addend: 0x0, symName: __ZNSt3__110unique_ptrINS_11__hash_nodeINS_17__hash_value_typeIiNS_12basic_stringIcNS_11char_traitsIcEENS_9allocatorIcEEEEEEPvEENS_22__hash_node_destructorINS6_ISB_EEEEEC2B8ne180100ILb1EvEEPSB_NS_16__dependent_typeINS_27__unique_ptr_deleter_sfinaeISE_EEXT_EE20__good_rval_ref_typeE, symObjAddr: 0x5908, symBinAddr: 0x100009FB0, symSize: 0x48 }
  - { offset: 0x26BDF, size: 0x8, addend: 0x0, symName: __ZNSt3__117__compressed_pairIPNS_11__hash_nodeINS_17__hash_value_typeIiNS_12basic_stringIcNS_11char_traitsIcEENS_9allocatorIcEEEEEEPvEENS_22__hash_node_destructorINS6_ISB_EEEEEC1B8ne180100IRSC_SF_EEOT_OT0_, symObjAddr: 0x5950, symBinAddr: 0x100009FF8, symSize: 0x3C }
  - { offset: 0x26C35, size: 0x8, addend: 0x0, symName: __ZNSt3__117__compressed_pairIPNS_11__hash_nodeINS_17__hash_value_typeIiNS_12basic_stringIcNS_11char_traitsIcEENS_9allocatorIcEEEEEEPvEENS_22__hash_node_destructorINS6_ISB_EEEEEC2B8ne180100IRSC_SF_EEOT_OT0_, symObjAddr: 0x598C, symBinAddr: 0x10000A034, symSize: 0x48 }
  - { offset: 0x26C8B, size: 0x8, addend: 0x0, symName: __ZNSt3__122__compressed_pair_elemIPNS_11__hash_nodeINS_17__hash_value_typeIiNS_12basic_stringIcNS_11char_traitsIcEENS_9allocatorIcEEEEEEPvEELi0ELb0EEC2B8ne180100IRSC_vEEOT_, symObjAddr: 0x59D4, symBinAddr: 0x10000A07C, symSize: 0x24 }
  - { offset: 0x26CCB, size: 0x8, addend: 0x0, symName: __ZNSt3__122__compressed_pair_elemINS_22__hash_node_destructorINS_9allocatorINS_11__hash_nodeINS_17__hash_value_typeIiNS_12basic_stringIcNS_11char_traitsIcEENS2_IcEEEEEEPvEEEEEELi1ELb0EEC2B8ne180100ISE_vEEOT_, symObjAddr: 0x59F8, symBinAddr: 0x10000A0A0, symSize: 0x24 }
  - { offset: 0x26D0B, size: 0x8, addend: 0x0, symName: __ZNSt3__111__hash_nodeINS_17__hash_value_typeIiNS_12basic_stringIcNS_11char_traitsIcEENS_9allocatorIcEEEEEEPvEC1B8ne180100EPNS_16__hash_node_baseIPSA_EEm, symObjAddr: 0x5A1C, symBinAddr: 0x10000A0C4, symSize: 0x3C }
  - { offset: 0x26D4F, size: 0x8, addend: 0x0, symName: __ZNSt3__111__hash_nodeINS_17__hash_value_typeIiNS_12basic_stringIcNS_11char_traitsIcEENS_9allocatorIcEEEEEEPvEC2B8ne180100EPNS_16__hash_node_baseIPSA_EEm, symObjAddr: 0x5A58, symBinAddr: 0x10000A100, symSize: 0x40 }
  - { offset: 0x26D93, size: 0x8, addend: 0x0, symName: __ZNSt3__116__hash_node_baseIPNS_11__hash_nodeINS_17__hash_value_typeIiNS_12basic_stringIcNS_11char_traitsIcEENS_9allocatorIcEEEEEEPvEEEC2B8ne180100EPSD_, symObjAddr: 0x5A98, symBinAddr: 0x10000A140, symSize: 0x20 }
  - { offset: 0x26DC9, size: 0x8, addend: 0x0, symName: __ZNKSt3__117__compressed_pairIPNS_11__hash_nodeINS_17__hash_value_typeIiNS_12basic_stringIcNS_11char_traitsIcEENS_9allocatorIcEEEEEEPvEENS_22__hash_node_destructorINS6_ISB_EEEEE5firstB8ne180100Ev, symObjAddr: 0x5AB8, symBinAddr: 0x10000A160, symSize: 0x24 }
  - { offset: 0x26DED, size: 0x8, addend: 0x0, symName: __ZNKSt3__122__compressed_pair_elemIPNS_11__hash_nodeINS_17__hash_value_typeIiNS_12basic_stringIcNS_11char_traitsIcEENS_9allocatorIcEEEEEEPvEELi0ELb0EE5__getB8ne180100Ev, symObjAddr: 0x5ADC, symBinAddr: 0x10000A184, symSize: 0x14 }
  - { offset: 0x26E11, size: 0x8, addend: 0x0, symName: __ZNSt3__19allocatorINS_11__hash_nodeINS_17__hash_value_typeIiNS_12basic_stringIcNS_11char_traitsIcEENS0_IcEEEEEEPvEEE9constructB8ne180100INS_4pairIKiS7_EEJSF_EEEvPT_DpOT0_, symObjAddr: 0x5AF0, symBinAddr: 0x10000A198, symSize: 0x30 }
  - { offset: 0x26E65, size: 0x8, addend: 0x0, symName: __ZNSt3__14pairIKiNS_12basic_stringIcNS_11char_traitsIcEENS_9allocatorIcEEEEEC1B8ne180100EOS8_, symObjAddr: 0x5B20, symBinAddr: 0x10000A1C8, symSize: 0x34 }
  - { offset: 0x26E97, size: 0x8, addend: 0x0, symName: __ZNSt3__14pairIKiNS_12basic_stringIcNS_11char_traitsIcEENS_9allocatorIcEEEEEC2B8ne180100EOS8_, symObjAddr: 0x5B54, symBinAddr: 0x10000A1FC, symSize: 0x48 }
  - { offset: 0x26EC9, size: 0x8, addend: 0x0, symName: __ZNSt3__117__compressed_pairIPNS_11__hash_nodeINS_17__hash_value_typeIiNS_12basic_stringIcNS_11char_traitsIcEENS_9allocatorIcEEEEEEPvEENS_22__hash_node_destructorINS6_ISB_EEEEE6secondB8ne180100Ev, symObjAddr: 0x5B9C, symBinAddr: 0x10000A244, symSize: 0x28 }
  - { offset: 0x26EED, size: 0x8, addend: 0x0, symName: __ZNSt3__122__compressed_pair_elemINS_22__hash_node_destructorINS_9allocatorINS_11__hash_nodeINS_17__hash_value_typeIiNS_12basic_stringIcNS_11char_traitsIcEENS2_IcEEEEEEPvEEEEEELi1ELb0EE5__getB8ne180100Ev, symObjAddr: 0x5BC4, symBinAddr: 0x10000A26C, symSize: 0x14 }
  - { offset: 0x26F11, size: 0x8, addend: 0x0, symName: __ZNSt3__117__compressed_pairImNS_22__unordered_map_hasherIiNS_17__hash_value_typeIiNS_12basic_stringIcNS_11char_traitsIcEENS_9allocatorIcEEEEEENS_4hashIiEENS_8equal_toIiEELb1EEEE5firstB8ne180100Ev, symObjAddr: 0x5BD8, symBinAddr: 0x10000A280, symSize: 0x24 }
  - { offset: 0x26F35, size: 0x8, addend: 0x0, symName: __ZNSt3__117__compressed_pairIfNS_21__unordered_map_equalIiNS_17__hash_value_typeIiNS_12basic_stringIcNS_11char_traitsIcEENS_9allocatorIcEEEEEENS_8equal_toIiEENS_4hashIiEELb1EEEE5firstB8ne180100Ev, symObjAddr: 0x5BFC, symBinAddr: 0x10000A2A4, symSize: 0x24 }
  - { offset: 0x26F59, size: 0x8, addend: 0x0, symName: __ZNSt3__122__compressed_pair_elemIfLi0ELb0EE5__getB8ne180100Ev, symObjAddr: 0x5C20, symBinAddr: 0x10000A2C8, symSize: 0x14 }
  - { offset: 0x26F7D, size: 0x8, addend: 0x0, symName: __ZNSt3__112__hash_tableINS_17__hash_value_typeIiNS_12basic_stringIcNS_11char_traitsIcEENS_9allocatorIcEEEEEENS_22__unordered_map_hasherIiS8_NS_4hashIiEENS_8equal_toIiEELb1EEENS_21__unordered_map_equalIiS8_SD_SB_Lb1EEENS5_IS8_EEE8__rehashILb1EEEvm, symObjAddr: 0x5C34, symBinAddr: 0x10000A2DC, symSize: 0x1A8 }
  - { offset: 0x26FCB, size: 0x8, addend: 0x0, symName: __ZNSt3__112__hash_tableINS_17__hash_value_typeIiNS_12basic_stringIcNS_11char_traitsIcEENS_9allocatorIcEEEEEENS_22__unordered_map_hasherIiS8_NS_4hashIiEENS_8equal_toIiEELb1EEENS_21__unordered_map_equalIiS8_SD_SB_Lb1EEENS5_IS8_EEE11__do_rehashILb1EEEvm, symObjAddr: 0x5DDC, symBinAddr: 0x10000A484, symSize: 0x288 }
  - { offset: 0x270AC, size: 0x8, addend: 0x0, symName: __ZNSt3__110unique_ptrIA_PNS_16__hash_node_baseIPNS_11__hash_nodeINS_17__hash_value_typeIiNS_12basic_stringIcNS_11char_traitsIcEENS_9allocatorIcEEEEEEPvEEEENS_25__bucket_list_deallocatorINS7_ISF_EEEEE11get_deleterB8ne180100Ev, symObjAddr: 0x60D0, symBinAddr: 0x10000A778, symSize: 0x24 }
  - { offset: 0x270D0, size: 0x8, addend: 0x0, symName: __ZNSt3__110unique_ptrIA_PNS_16__hash_node_baseIPNS_11__hash_nodeINS_17__hash_value_typeIiNS_12basic_stringIcNS_11char_traitsIcEENS_9allocatorIcEEEEEEPvEEEENS_25__bucket_list_deallocatorINS7_ISF_EEEEE5resetB8ne180100IPSF_Li0EEEvT_, symObjAddr: 0x60F4, symBinAddr: 0x10000A79C, symSize: 0x78 }
  - { offset: 0x27121, size: 0x8, addend: 0x0, symName: __ZNSt3__116allocator_traitsINS_9allocatorIPNS_16__hash_node_baseIPNS_11__hash_nodeINS_17__hash_value_typeIiNS_12basic_stringIcNS_11char_traitsIcEENS1_IcEEEEEEPvEEEEEEE8allocateB8ne180100ERSG_m, symObjAddr: 0x616C, symBinAddr: 0x10000A814, symSize: 0x2C }
  - { offset: 0x27153, size: 0x8, addend: 0x0, symName: __ZNSt3__19allocatorIPNS_16__hash_node_baseIPNS_11__hash_nodeINS_17__hash_value_typeIiNS_12basic_stringIcNS_11char_traitsIcEENS0_IcEEEEEEPvEEEEE8allocateB8ne180100Em, symObjAddr: 0x6198, symBinAddr: 0x10000A840, symSize: 0x58 }
  - { offset: 0x2718F, size: 0x8, addend: 0x0, symName: __ZNSt3__116allocator_traitsINS_9allocatorIPNS_16__hash_node_baseIPNS_11__hash_nodeINS_17__hash_value_typeIiNS_12basic_stringIcNS_11char_traitsIcEENS1_IcEEEEEEPvEEEEEEE8max_sizeB8ne180100ISG_vEEmRKSG_, symObjAddr: 0x61F0, symBinAddr: 0x10000A898, symSize: 0x24 }
  - { offset: 0x271BC, size: 0x8, addend: 0x0, symName: __ZNKSt3__19allocatorIPNS_16__hash_node_baseIPNS_11__hash_nodeINS_17__hash_value_typeIiNS_12basic_stringIcNS_11char_traitsIcEENS0_IcEEEEEEPvEEEEE8max_sizeB8ne180100Ev, symObjAddr: 0x6214, symBinAddr: 0x10000A8BC, symSize: 0x14 }
  - { offset: 0x271E0, size: 0x8, addend: 0x0, symName: __ZNKSt3__16__lessIvvEclB8ne180100ImmEEbRKT_RKT0_, symObjAddr: 0x6298, symBinAddr: 0x10000A940, symSize: 0x34 }
  - { offset: 0x27232, size: 0x8, addend: 0x0, symName: __ZNSt3__117__compressed_pairIPNS_11__hash_nodeINS_17__hash_value_typeIiNS_12basic_stringIcNS_11char_traitsIcEENS_9allocatorIcEEEEEEPvEENS_22__hash_node_destructorINS6_ISB_EEEEE5firstB8ne180100Ev, symObjAddr: 0x62CC, symBinAddr: 0x10000A974, symSize: 0x24 }
  - { offset: 0x27256, size: 0x8, addend: 0x0, symName: __ZNSt3__122__compressed_pair_elemIPNS_11__hash_nodeINS_17__hash_value_typeIiNS_12basic_stringIcNS_11char_traitsIcEENS_9allocatorIcEEEEEEPvEELi0ELb0EE5__getB8ne180100Ev, symObjAddr: 0x62F0, symBinAddr: 0x10000A998, symSize: 0x14 }
  - { offset: 0x2727A, size: 0x8, addend: 0x0, symName: __ZNSt3__110unique_ptrINS_11__hash_nodeINS_17__hash_value_typeIiNS_12basic_stringIcNS_11char_traitsIcEENS_9allocatorIcEEEEEEPvEENS_22__hash_node_destructorINS6_ISB_EEEEED2B8ne180100Ev, symObjAddr: 0x6304, symBinAddr: 0x10000A9AC, symSize: 0x30 }
  - { offset: 0x272A2, size: 0x8, addend: 0x0, symName: __ZNSt3__110unique_ptrINS_11__hash_nodeINS_17__hash_value_typeIiNS_12basic_stringIcNS_11char_traitsIcEENS_9allocatorIcEEEEEEPvEENS_22__hash_node_destructorINS6_ISB_EEEEE5resetB8ne180100EPSB_, symObjAddr: 0x6334, symBinAddr: 0x10000A9DC, symSize: 0x78 }
  - { offset: 0x272E4, size: 0x8, addend: 0x0, symName: __ZNSt3__122__hash_node_destructorINS_9allocatorINS_11__hash_nodeINS_17__hash_value_typeIiNS_12basic_stringIcNS_11char_traitsIcEENS1_IcEEEEEEPvEEEEEclB8ne180100EPSB_, symObjAddr: 0x63AC, symBinAddr: 0x10000AA54, symSize: 0xA0 }
  - { offset: 0x27317, size: 0x8, addend: 0x0, symName: __ZNSt3__115__hash_iteratorIPNS_11__hash_nodeINS_17__hash_value_typeIiNS_12basic_stringIcNS_11char_traitsIcEENS_9allocatorIcEEEEEEPvEEEC2B8ne180100EPNS_16__hash_node_baseISC_EE, symObjAddr: 0x644C, symBinAddr: 0x10000AAF4, symSize: 0x20 }
  - { offset: 0x2734E, size: 0x8, addend: 0x0, symName: __ZNSt3__14pairINS_15__hash_iteratorIPNS_11__hash_nodeINS_17__hash_value_typeIiNS_12basic_stringIcNS_11char_traitsIcEENS_9allocatorIcEEEEEEPvEEEEbEC2B8ne180100ISE_RbLi0EEEOT_OT0_, symObjAddr: 0x646C, symBinAddr: 0x10000AB14, symSize: 0x38 }
  - { offset: 0x273AA, size: 0x8, addend: 0x0, symName: __ZNSt3__14pairINS_19__hash_map_iteratorINS_15__hash_iteratorIPNS_11__hash_nodeINS_17__hash_value_typeIiNS_12basic_stringIcNS_11char_traitsIcEENS_9allocatorIcEEEEEEPvEEEEEEbEC2B8ne180100ISF_bLi0EEEONS0_IT_T0_EE, symObjAddr: 0x64A4, symBinAddr: 0x10000AB4C, symSize: 0x50 }
  - { offset: 0x273F8, size: 0x8, addend: 0x0, symName: __ZNSt3__119__hash_map_iteratorINS_15__hash_iteratorIPNS_11__hash_nodeINS_17__hash_value_typeIiNS_12basic_stringIcNS_11char_traitsIcEENS_9allocatorIcEEEEEEPvEEEEEC1B8ne180100ESE_, symObjAddr: 0x64F4, symBinAddr: 0x10000AB9C, symSize: 0x34 }
  - { offset: 0x2742F, size: 0x8, addend: 0x0, symName: __ZNSt3__119__hash_map_iteratorINS_15__hash_iteratorIPNS_11__hash_nodeINS_17__hash_value_typeIiNS_12basic_stringIcNS_11char_traitsIcEENS_9allocatorIcEEEEEEPvEEEEEC2B8ne180100ESE_, symObjAddr: 0x6528, symBinAddr: 0x10000ABD0, symSize: 0x20 }
  - { offset: 0x27466, size: 0x8, addend: 0x0, symName: __ZNSt3__113unordered_mapIiNS_12basic_stringIcNS_11char_traitsIcEENS_9allocatorIcEEEENS_4hashIiEENS_8equal_toIiEENS4_INS_4pairIKiS6_EEEEE4findB8ne180100ERSC_, symObjAddr: 0x6548, symBinAddr: 0x10000ABF0, symSize: 0x40 }
  - { offset: 0x27499, size: 0x8, addend: 0x0, symName: __ZNSt3__113unordered_mapIiNS_12basic_stringIcNS_11char_traitsIcEENS_9allocatorIcEEEENS_4hashIiEENS_8equal_toIiEENS4_INS_4pairIKiS6_EEEEE3endB8ne180100Ev, symObjAddr: 0x65B8, symBinAddr: 0x10000AC60, symSize: 0x38 }
  - { offset: 0x274BD, size: 0x8, addend: 0x0, symName: __ZNKSt3__119__hash_map_iteratorINS_15__hash_iteratorIPNS_11__hash_nodeINS_17__hash_value_typeIiNS_12basic_stringIcNS_11char_traitsIcEENS_9allocatorIcEEEEEEPvEEEEEptB8ne180100Ev, symObjAddr: 0x6654, symBinAddr: 0x10000ACFC, symSize: 0x2C }
  - { offset: 0x274E1, size: 0x8, addend: 0x0, symName: __ZNSt3__112__hash_tableINS_17__hash_value_typeIiNS_12basic_stringIcNS_11char_traitsIcEENS_9allocatorIcEEEEEENS_22__unordered_map_hasherIiS8_NS_4hashIiEENS_8equal_toIiEELb1EEENS_21__unordered_map_equalIiS8_SD_SB_Lb1EEENS5_IS8_EEE4findIiEENS_15__hash_iteratorIPNS_11__hash_nodeIS8_PvEEEERKT_, symObjAddr: 0x6680, symBinAddr: 0x10000AD28, symSize: 0x1B0 }
  - { offset: 0x27569, size: 0x8, addend: 0x0, symName: __ZNSt3__112__hash_tableINS_17__hash_value_typeIiNS_12basic_stringIcNS_11char_traitsIcEENS_9allocatorIcEEEEEENS_22__unordered_map_hasherIiS8_NS_4hashIiEENS_8equal_toIiEELb1EEENS_21__unordered_map_equalIiS8_SD_SB_Lb1EEENS5_IS8_EEE3endEv, symObjAddr: 0x6830, symBinAddr: 0x10000AED8, symSize: 0x2C }
  - { offset: 0x2758F, size: 0x8, addend: 0x0, symName: __ZNSt12out_of_rangeC1B8ne180100EPKc, symObjAddr: 0x688C, symBinAddr: 0x10000AF34, symSize: 0x34 }
  - { offset: 0x275C5, size: 0x8, addend: 0x0, symName: __ZNSt12out_of_rangeC2B8ne180100EPKc, symObjAddr: 0x68C0, symBinAddr: 0x10000AF68, symSize: 0x44 }
  - { offset: 0x275FB, size: 0x8, addend: 0x0, symName: __ZNSt3__114pointer_traitsIPNS_4pairIKiNS_12basic_stringIcNS_11char_traitsIcEENS_9allocatorIcEEEEEEE10pointer_toB8ne180100ERS9_, symObjAddr: 0x6904, symBinAddr: 0x10000AFAC, symSize: 0x14 }
  - { offset: 0x2761D, size: 0x8, addend: 0x0, symName: __ZNKSt3__115__hash_iteratorIPNS_11__hash_nodeINS_17__hash_value_typeIiNS_12basic_stringIcNS_11char_traitsIcEENS_9allocatorIcEEEEEEPvEEEptB8ne180100Ev, symObjAddr: 0x6918, symBinAddr: 0x10000AFC0, symSize: 0x30 }
  - { offset: 0x27641, size: 0x8, addend: 0x0, symName: __ZNSt3__114pointer_traitsIPNS_17__hash_value_typeIiNS_12basic_stringIcNS_11char_traitsIcEENS_9allocatorIcEEEEEEE10pointer_toB8ne180100ERS8_, symObjAddr: 0x6948, symBinAddr: 0x10000AFF0, symSize: 0x14 }
  - { offset: 0x27663, size: 0x8, addend: 0x0, symName: __ZNKSt3__16__treeIiNS_4lessIiEENS_9allocatorIiEEE4findIiEENS_21__tree_const_iteratorIiPNS_11__tree_nodeIiPvEElEERKT_, symObjAddr: 0x695C, symBinAddr: 0x10000B004, symSize: 0xF8 }
  - { offset: 0x276B0, size: 0x8, addend: 0x0, symName: __ZNKSt3__16__treeIiNS_4lessIiEENS_9allocatorIiEEE13__lower_boundIiEENS_21__tree_const_iteratorIiPNS_11__tree_nodeIiPvEElEERKT_SB_PNS_15__tree_end_nodeIPNS_16__tree_node_baseIS9_EEEE, symObjAddr: 0x6A54, symBinAddr: 0x10000B0FC, symSize: 0xA4 }
  - { offset: 0x2770C, size: 0x8, addend: 0x0, symName: __ZNKSt3__16__treeIiNS_4lessIiEENS_9allocatorIiEEE10value_compB8ne180100Ev, symObjAddr: 0x6BB4, symBinAddr: 0x10000B1D4, symSize: 0x28 }
  - { offset: 0x27730, size: 0x8, addend: 0x0, symName: __ZNKSt3__117__compressed_pairImNS_4lessIiEEE6secondB8ne180100Ev, symObjAddr: 0x6CD8, symBinAddr: 0x10000B1FC, symSize: 0x24 }
  - { offset: 0x27754, size: 0x8, addend: 0x0, symName: __ZNKSt3__122__compressed_pair_elemINS_4lessIiEELi1ELb1EE5__getB8ne180100Ev, symObjAddr: 0x6CFC, symBinAddr: 0x10000B220, symSize: 0x14 }
  - { offset: 0x29661, size: 0x8, addend: 0x0, symName: __ZN22GeneralPurposeRegister8get_dataEv, symObjAddr: 0x0, symBinAddr: 0x10000B234, symSize: 0x18 }
  - { offset: 0x29676, size: 0x8, addend: 0x0, symName: __ZN22GeneralPurposeRegister8get_dataEv, symObjAddr: 0x0, symBinAddr: 0x10000B234, symSize: 0x18 }
  - { offset: 0x2969D, size: 0x8, addend: 0x0, symName: __ZN22GeneralPurposeRegister11update_dataEt, symObjAddr: 0x18, symBinAddr: 0x10000B24C, symSize: 0x20 }
  - { offset: 0x296D2, size: 0x8, addend: 0x0, symName: __ZN22GeneralPurposeRegister10reset_dataEv, symObjAddr: 0x38, symBinAddr: 0x10000B26C, symSize: 0x18 }
  - { offset: 0x296F9, size: 0x8, addend: 0x0, symName: __ZN19InstructionRegister8get_dataEv, symObjAddr: 0x50, symBinAddr: 0x10000B284, symSize: 0x18 }
  - { offset: 0x29720, size: 0x8, addend: 0x0, symName: __ZN19InstructionRegister11update_dataEt, symObjAddr: 0x68, symBinAddr: 0x10000B29C, symSize: 0x20 }
  - { offset: 0x29755, size: 0x8, addend: 0x0, symName: __ZN19InstructionRegister10reset_dataEv, symObjAddr: 0x88, symBinAddr: 0x10000B2BC, symSize: 0x18 }
  - { offset: 0x2977C, size: 0x8, addend: 0x0, symName: __ZN14ProgramCounter11get_addressEv, symObjAddr: 0xA0, symBinAddr: 0x10000B2D4, symSize: 0x18 }
  - { offset: 0x297A3, size: 0x8, addend: 0x0, symName: __ZN14ProgramCounter11set_addressEt, symObjAddr: 0xB8, symBinAddr: 0x10000B2EC, symSize: 0x20 }
  - { offset: 0x297D8, size: 0x8, addend: 0x0, symName: __ZN14ProgramCounter13reset_addressEv, symObjAddr: 0xD8, symBinAddr: 0x10000B30C, symSize: 0x18 }
  - { offset: 0x29805, size: 0x8, addend: 0x0, symName: __ZN9RegistersC2Ev, symObjAddr: 0xF0, symBinAddr: 0x10000B324, symSize: 0x3C }
  - { offset: 0x2982F, size: 0x8, addend: 0x0, symName: __ZN9Registers30init_general_purpose_registersEv, symObjAddr: 0x12C, symBinAddr: 0x10000B360, symSize: 0x68 }
  - { offset: 0x2986F, size: 0x8, addend: 0x0, symName: __ZN9Registers25init_instruction_registerEv, symObjAddr: 0x194, symBinAddr: 0x10000B3C8, symSize: 0x2C }
  - { offset: 0x29893, size: 0x8, addend: 0x0, symName: __ZN9Registers20init_program_counterEv, symObjAddr: 0x1C0, symBinAddr: 0x10000B3F4, symSize: 0x2C }
  - { offset: 0x298B7, size: 0x8, addend: 0x0, symName: __ZN9RegistersC1Ev, symObjAddr: 0x1EC, symBinAddr: 0x10000B420, symSize: 0x2C }
  - { offset: 0x298E2, size: 0x8, addend: 0x0, symName: __ZN9Registers33get_data_general_purpose_registerEt, symObjAddr: 0x218, symBinAddr: 0x10000B44C, symSize: 0x34 }
  - { offset: 0x29917, size: 0x8, addend: 0x0, symName: __ZN9Registers31update_general_purpose_registerEtt, symObjAddr: 0x24C, symBinAddr: 0x10000B480, symSize: 0x38 }
  - { offset: 0x2995A, size: 0x8, addend: 0x0, symName: __ZN9Registers35clear_all_general_purpose_registersEv, symObjAddr: 0x284, symBinAddr: 0x10000B4B8, symSize: 0x64 }
  - { offset: 0x2999D, size: 0x8, addend: 0x0, symName: __ZN9Registers26clear_instruction_registerEv, symObjAddr: 0x2E8, symBinAddr: 0x10000B51C, symSize: 0x28 }
  - { offset: 0x299C4, size: 0x8, addend: 0x0, symName: __ZN9Registers21clear_program_counterEv, symObjAddr: 0x310, symBinAddr: 0x10000B544, symSize: 0x2C }
  - { offset: 0x299EB, size: 0x8, addend: 0x0, symName: __ZN9Registers22update_program_counterEt, symObjAddr: 0x33C, symBinAddr: 0x10000B570, symSize: 0x30 }
  - { offset: 0x29A20, size: 0x8, addend: 0x0, symName: __ZN9Registers19get_program_counterEv, symObjAddr: 0x36C, symBinAddr: 0x10000B5A0, symSize: 0x2C }
  - { offset: 0x29A47, size: 0x8, addend: 0x0, symName: __ZN9Registers27update_instruction_registerEt, symObjAddr: 0x398, symBinAddr: 0x10000B5CC, symSize: 0x30 }
  - { offset: 0x29A7C, size: 0x8, addend: 0x0, symName: __ZN9Registers24get_instruction_registerEv, symObjAddr: 0x3C8, symBinAddr: 0x10000B5FC, symSize: 0x2C }
  - { offset: 0x29AE4, size: 0x8, addend: 0x0, symName: __ZN7RAMCell8get_dataEv, symObjAddr: 0x0, symBinAddr: 0x10000B628, symSize: 0x18 }
  - { offset: 0x29B14, size: 0x8, addend: 0x0, symName: __ZN7RAMCell8get_dataEv, symObjAddr: 0x0, symBinAddr: 0x10000B628, symSize: 0x18 }
  - { offset: 0x29B3B, size: 0x8, addend: 0x0, symName: __ZN7RAMCell11update_dataEt, symObjAddr: 0x18, symBinAddr: 0x10000B640, symSize: 0x20 }
  - { offset: 0x29B70, size: 0x8, addend: 0x0, symName: __ZN7RAMCell10reset_dataEv, symObjAddr: 0x38, symBinAddr: 0x10000B660, symSize: 0x18 }
  - { offset: 0x29B9D, size: 0x8, addend: 0x0, symName: __ZN18RandomAccessMemoryC2Ev, symObjAddr: 0x50, symBinAddr: 0x10000B678, symSize: 0x2C }
  - { offset: 0x29BC7, size: 0x8, addend: 0x0, symName: __ZN18RandomAccessMemory8init_ramEv, symObjAddr: 0x7C, symBinAddr: 0x10000B6A4, symSize: 0x64 }
  - { offset: 0x29C07, size: 0x8, addend: 0x0, symName: __ZN18RandomAccessMemoryC1Ev, symObjAddr: 0xE0, symBinAddr: 0x10000B708, symSize: 0x2C }
  - { offset: 0x29C32, size: 0x8, addend: 0x0, symName: __ZN18RandomAccessMemory11get_ramcellEt, symObjAddr: 0x10C, symBinAddr: 0x10000B734, symSize: 0x34 }
  - { offset: 0x29C67, size: 0x8, addend: 0x0, symName: __ZN18RandomAccessMemory14update_ramcellEtt, symObjAddr: 0x140, symBinAddr: 0x10000B768, symSize: 0x38 }
  - { offset: 0x29CAA, size: 0x8, addend: 0x0, symName: __ZN18RandomAccessMemory13reset_ramcellEt, symObjAddr: 0x178, symBinAddr: 0x10000B7A0, symSize: 0x34 }
  - { offset: 0x29CDF, size: 0x8, addend: 0x0, symName: __ZN18RandomAccessMemory14clear_ramcellsEv, symObjAddr: 0x1AC, symBinAddr: 0x10000B7D4, symSize: 0x64 }
  - { offset: 0x2B010, size: 0x8, addend: 0x0, symName: __ZNSt3__122__make_exception_guardB8ne180100INS_6vectorItNS_9allocatorItEEE16__destroy_vectorEEENS_28__exception_guard_exceptionsIT_EES7_, symObjAddr: 0xC7C, symBinAddr: 0x10000C4B4, symSize: 0x40 }
  - { offset: 0x2B045, size: 0x8, addend: 0x0, symName: __ZNSt3__119__allocate_at_leastB8ne180100INS_9allocatorItEEEENS_19__allocation_resultINS_16allocator_traitsIT_E7pointerEEERS5_m, symObjAddr: 0xF64, symBinAddr: 0x10000C79C, symSize: 0x40 }
  - { offset: 0x2B088, size: 0x8, addend: 0x0, symName: __ZNSt3__13minB8ne180100ImEERKT_S3_S3_, symObjAddr: 0x1008, symBinAddr: 0x10000C840, symSize: 0x2C }
  - { offset: 0x2B2BE, size: 0x8, addend: 0x0, symName: __ZNSt3__13minB8ne180100ImNS_6__lessIvvEEEERKT_S5_S5_T0_, symObjAddr: 0x107C, symBinAddr: 0x10000C8A4, symSize: 0x54 }
  - { offset: 0x2B318, size: 0x8, addend: 0x0, symName: __ZNSt3__130__uninitialized_allocator_copyB8ne180100INS_9allocatorItEEPtS3_S3_EET2_RT_T0_T1_S4_, symObjAddr: 0x1404, symBinAddr: 0x10000CA18, symSize: 0x80 }
  - { offset: 0x2B3B5, size: 0x8, addend: 0x0, symName: __ZNSt3__114__unwrap_rangeB8ne180100IPtS1_EENS_4pairIT0_S3_EET_S5_, symObjAddr: 0x14F4, symBinAddr: 0x10000CB08, symSize: 0x60 }
  - { offset: 0x2B401, size: 0x8, addend: 0x0, symName: __ZNSt3__135__uninitialized_allocator_copy_implB8ne180100INS_9allocatorItEEtttLPv0EEEPT2_RT_PT0_S9_S5_, symObjAddr: 0x1554, symBinAddr: 0x10000CB68, symSize: 0x38 }
  - { offset: 0x2B482, size: 0x8, addend: 0x0, symName: __ZNSt3__113__unwrap_iterB8ne180100IPtNS_18__unwrap_iter_implIS1_Lb1EEELi0EEEDTclsrT0_8__unwrapclsr3stdE7declvalIT_EEEES5_, symObjAddr: 0x158C, symBinAddr: 0x10000CBA0, symSize: 0x24 }
  - { offset: 0x2B4C6, size: 0x8, addend: 0x0, symName: __ZNSt3__113__rewrap_iterB8ne180100IPtS1_NS_18__unwrap_iter_implIS1_Lb1EEEEET_S4_T0_, symObjAddr: 0x15B0, symBinAddr: 0x10000CBC4, symSize: 0x3C }
  - { offset: 0x2B51B, size: 0x8, addend: 0x0, symName: __ZNSt3__19make_pairB8ne180100IPtS1_EENS_4pairINS_18__unwrap_ref_decayIT_E4typeENS3_IT0_E4typeEEEOS4_OS7_, symObjAddr: 0x15EC, symBinAddr: 0x10000CC00, symSize: 0x38 }
  - { offset: 0x2B66D, size: 0x8, addend: 0x0, symName: __ZNSt3__14copyB8ne180100IPtS1_EET0_T_S3_S2_, symObjAddr: 0x1694, symBinAddr: 0x10000CCA8, symSize: 0x40 }
  - { offset: 0x2B6C7, size: 0x8, addend: 0x0, symName: __ZNSt3__16__copyB8ne180100INS_17_ClassicAlgPolicyEPtS2_S2_EENS_4pairIT0_T2_EES4_T1_S5_, symObjAddr: 0x16D4, symBinAddr: 0x10000CCE8, symSize: 0x44 }
  - { offset: 0x2B733, size: 0x8, addend: 0x0, symName: __ZNSt3__123__dispatch_copy_or_moveB8ne180100INS_17_ClassicAlgPolicyENS_11__copy_loopIS1_EENS_14__copy_trivialEPtS5_S5_EENS_4pairIT2_T4_EES7_T3_S8_, symObjAddr: 0x1718, symBinAddr: 0x10000CD2C, symSize: 0x44 }
  - { offset: 0x2B7B1, size: 0x8, addend: 0x0, symName: __ZNSt3__121__unwrap_and_dispatchB8ne180100INS_10__overloadINS_11__copy_loopINS_17_ClassicAlgPolicyEEENS_14__copy_trivialEEEPtS7_S7_Li0EEENS_4pairIT0_T2_EES9_T1_SA_, symObjAddr: 0x175C, symBinAddr: 0x10000CD70, symSize: 0xB4 }
  - { offset: 0x2B885, size: 0x8, addend: 0x0, symName: __ZNSt3__114__rewrap_rangeB8ne180100IPtS1_EET_S2_T0_, symObjAddr: 0x1858, symBinAddr: 0x10000CE6C, symSize: 0x2C }
  - { offset: 0x2B8D1, size: 0x8, addend: 0x0, symName: __ZNSt3__119__copy_trivial_implB8ne180100IttEENS_4pairIPT_PT0_EES3_S3_S5_, symObjAddr: 0x1884, symBinAddr: 0x10000CE98, symSize: 0x80 }
  - { offset: 0x2B939, size: 0x8, addend: 0x0, symName: __ZNSt3__119__constexpr_memmoveB8ne180100IttLi0EEEPT_S2_PT0_NS_15__element_countE, symObjAddr: 0x1904, symBinAddr: 0x10000CF18, symSize: 0x64 }
  - { offset: 0x2B9A7, size: 0x8, addend: 0x0, symName: __ZNSt3__19make_pairB8ne180100IRPtS1_EENS_4pairINS_18__unwrap_ref_decayIT_E4typeENS4_IT0_E4typeEEEOS5_OS8_, symObjAddr: 0x1968, symBinAddr: 0x10000CF7C, symSize: 0x38 }
  - { offset: 0x2BA49, size: 0x8, addend: 0x0, symName: __ZNSt3__112__to_addressB8ne180100ItEEPT_S2_, symObjAddr: 0x1A34, symBinAddr: 0x10000D048, symSize: 0x14 }
  - { offset: 0x2C876, size: 0x8, addend: 0x0, symName: __ZN11ControlUnitC2EP9RegistersP18RandomAccessMemoryP19ArithmeticLogicUnit, symObjAddr: 0x0, symBinAddr: 0x10000B838, symSize: 0x38 }
  - { offset: 0x2C8CA, size: 0x8, addend: 0x0, symName: __ZN11ControlUnitC1EP9RegistersP18RandomAccessMemoryP19ArithmeticLogicUnit, symObjAddr: 0x38, symBinAddr: 0x10000B870, symSize: 0x44 }
  - { offset: 0x2C91F, size: 0x8, addend: 0x0, symName: __ZN11ControlUnit18decode_instructionEt, symObjAddr: 0x7C, symBinAddr: 0x10000B8B4, symSize: 0x14C }
  - { offset: 0x2C962, size: 0x8, addend: 0x0, symName: __ZN11ControlUnit11decode_loadEt, symObjAddr: 0x200, symBinAddr: 0x10000BA38, symSize: 0x4C }
  - { offset: 0x2C9B3, size: 0x8, addend: 0x0, symName: __ZN11ControlUnit12decode_storeEt, symObjAddr: 0x24C, symBinAddr: 0x10000BA84, symSize: 0x4C }
  - { offset: 0x2CA04, size: 0x8, addend: 0x0, symName: __ZN11ControlUnit10decode_addEt, symObjAddr: 0x298, symBinAddr: 0x10000BAD0, symSize: 0x64 }
  - { offset: 0x2CA63, size: 0x8, addend: 0x0, symName: __ZN11ControlUnit10decode_subEt, symObjAddr: 0x2FC, symBinAddr: 0x10000BB34, symSize: 0x64 }
  - { offset: 0x2CAC2, size: 0x8, addend: 0x0, symName: __ZN11ControlUnit10decode_andEt, symObjAddr: 0x360, symBinAddr: 0x10000BB98, symSize: 0x64 }
  - { offset: 0x2CB21, size: 0x8, addend: 0x0, symName: __ZN11ControlUnit9decode_orEt, symObjAddr: 0x3C4, symBinAddr: 0x10000BBFC, symSize: 0x64 }
  - { offset: 0x2CB80, size: 0x8, addend: 0x0, symName: __ZN11ControlUnit10decode_xorEt, symObjAddr: 0x428, symBinAddr: 0x10000BC60, symSize: 0x64 }
  - { offset: 0x2CBDF, size: 0x8, addend: 0x0, symName: __ZN11ControlUnit10decode_notEt, symObjAddr: 0x48C, symBinAddr: 0x10000BCC4, symSize: 0x54 }
  - { offset: 0x2CC30, size: 0x8, addend: 0x0, symName: __ZN11ControlUnit11decode_addiEt, symObjAddr: 0x4E0, symBinAddr: 0x10000BD18, symSize: 0x64 }
  - { offset: 0x2CC8F, size: 0x8, addend: 0x0, symName: __ZN11ControlUnit11decode_subiEt, symObjAddr: 0x544, symBinAddr: 0x10000BD7C, symSize: 0x64 }
  - { offset: 0x2CCEE, size: 0x8, addend: 0x0, symName: __ZN11ControlUnit11decode_andiEt, symObjAddr: 0x5A8, symBinAddr: 0x10000BDE0, symSize: 0x64 }
  - { offset: 0x2CD4D, size: 0x8, addend: 0x0, symName: __ZN11ControlUnit10decode_oriEt, symObjAddr: 0x60C, symBinAddr: 0x10000BE44, symSize: 0x64 }
  - { offset: 0x2CDAC, size: 0x8, addend: 0x0, symName: __ZN11ControlUnit11decode_xoriEt, symObjAddr: 0x670, symBinAddr: 0x10000BEA8, symSize: 0x64 }
  - { offset: 0x2CE0B, size: 0x8, addend: 0x0, symName: __ZN11ControlUnit10decode_jmpEt, symObjAddr: 0x6D4, symBinAddr: 0x10000BF0C, symSize: 0x3C }
  - { offset: 0x2CE4E, size: 0x8, addend: 0x0, symName: __ZN11ControlUnit18decode_instructionENSt3__16vectorItNS0_9allocatorItEEEE, symObjAddr: 0x710, symBinAddr: 0x10000BF48, symSize: 0x108 }
  - { offset: 0x2CE92, size: 0x8, addend: 0x0, symName: __ZNSt3__16vectorItNS_9allocatorItEEEixB8ne180100Em, symObjAddr: 0x818, symBinAddr: 0x10000C050, symSize: 0x24 }
  - { offset: 0x2CEC8, size: 0x8, addend: 0x0, symName: __ZN11ControlUnit10decode_beqENSt3__16vectorItNS0_9allocatorItEEEE, symObjAddr: 0x83C, symBinAddr: 0x10000C074, symSize: 0xA4 }
  - { offset: 0x2CF27, size: 0x8, addend: 0x0, symName: __ZNSt3__16vectorItNS_9allocatorItEEEC1ERKS3_, symObjAddr: 0x8E0, symBinAddr: 0x10000C118, symSize: 0x34 }
  - { offset: 0x2CF60, size: 0x8, addend: 0x0, symName: __ZNSt3__16vectorItNS_9allocatorItEEED1B8ne180100Ev, symObjAddr: 0x914, symBinAddr: 0x10000C14C, symSize: 0x2C }
  - { offset: 0x2CF89, size: 0x8, addend: 0x0, symName: __ZN11ControlUnit10decode_bneENSt3__16vectorItNS0_9allocatorItEEEE, symObjAddr: 0x940, symBinAddr: 0x10000C178, symSize: 0xA4 }
  - { offset: 0x2CFE8, size: 0x8, addend: 0x0, symName: __ZNSt3__16vectorItNS_9allocatorItEEEC2ERKS3_, symObjAddr: 0x9E4, symBinAddr: 0x10000C21C, symSize: 0x94 }
  - { offset: 0x2D02B, size: 0x8, addend: 0x0, symName: __ZNSt3__116allocator_traitsINS_9allocatorItEEE37select_on_container_copy_constructionB8ne180100IS2_vvEES2_RKS2_, symObjAddr: 0xA78, symBinAddr: 0x10000C2B0, symSize: 0x10 }
  - { offset: 0x2D059, size: 0x8, addend: 0x0, symName: __ZNKSt3__16vectorItNS_9allocatorItEEE7__allocB8ne180100Ev, symObjAddr: 0xA88, symBinAddr: 0x10000C2C0, symSize: 0x28 }
  - { offset: 0x2D08C, size: 0x8, addend: 0x0, symName: __ZNSt3__117__compressed_pairIPtNS_9allocatorItEEEC1B8ne180100IDnS3_EEOT_OT0_, symObjAddr: 0xAB0, symBinAddr: 0x10000C2E8, symSize: 0x3C }
  - { offset: 0x2D0E2, size: 0x8, addend: 0x0, symName: __ZNSt3__16vectorItNS_9allocatorItEEE16__init_with_sizeB8ne180100IPtS5_EEvT_T0_m, symObjAddr: 0xAEC, symBinAddr: 0x10000C324, symSize: 0xB8 }
  - { offset: 0x2D154, size: 0x8, addend: 0x0, symName: __ZNKSt3__16vectorItNS_9allocatorItEEE4sizeB8ne180100Ev, symObjAddr: 0xBA4, symBinAddr: 0x10000C3DC, symSize: 0x28 }
  - { offset: 0x2D178, size: 0x8, addend: 0x0, symName: __ZNKSt3__117__compressed_pairIPtNS_9allocatorItEEE6secondB8ne180100Ev, symObjAddr: 0xBCC, symBinAddr: 0x10000C404, symSize: 0x24 }
  - { offset: 0x2D19C, size: 0x8, addend: 0x0, symName: __ZNKSt3__122__compressed_pair_elemINS_9allocatorItEELi1ELb1EE5__getB8ne180100Ev, symObjAddr: 0xBF0, symBinAddr: 0x10000C428, symSize: 0x14 }
  - { offset: 0x2D1C0, size: 0x8, addend: 0x0, symName: __ZNSt3__117__compressed_pairIPtNS_9allocatorItEEEC2B8ne180100IDnS3_EEOT_OT0_, symObjAddr: 0xC04, symBinAddr: 0x10000C43C, symSize: 0x44 }
  - { offset: 0x2D216, size: 0x8, addend: 0x0, symName: __ZNSt3__122__compressed_pair_elemIPtLi0ELb0EEC2B8ne180100IDnvEEOT_, symObjAddr: 0xC48, symBinAddr: 0x10000C480, symSize: 0x1C }
  - { offset: 0x2D256, size: 0x8, addend: 0x0, symName: __ZNSt3__122__compressed_pair_elemINS_9allocatorItEELi1ELb1EEC2B8ne180100IS2_vEEOT_, symObjAddr: 0xC64, symBinAddr: 0x10000C49C, symSize: 0x18 }
  - { offset: 0x2D296, size: 0x8, addend: 0x0, symName: __ZNSt3__16vectorItNS_9allocatorItEEE16__destroy_vectorC1B8ne180100ERS3_, symObjAddr: 0xCBC, symBinAddr: 0x10000C4F4, symSize: 0x34 }
  - { offset: 0x2D2CD, size: 0x8, addend: 0x0, symName: __ZNSt3__16vectorItNS_9allocatorItEEE11__vallocateB8ne180100Em, symObjAddr: 0xCF0, symBinAddr: 0x10000C528, symSize: 0xAC }
  - { offset: 0x2D30F, size: 0x8, addend: 0x0, symName: __ZNSt3__16vectorItNS_9allocatorItEEE18__construct_at_endIPtS5_EEvT_T0_m, symObjAddr: 0xD9C, symBinAddr: 0x10000C5D4, symSize: 0x8C }
  - { offset: 0x2D383, size: 0x8, addend: 0x0, symName: __ZNSt3__128__exception_guard_exceptionsINS_6vectorItNS_9allocatorItEEE16__destroy_vectorEE10__completeB8ne180100Ev, symObjAddr: 0xE28, symBinAddr: 0x10000C660, symSize: 0x1C }
  - { offset: 0x2D3A7, size: 0x8, addend: 0x0, symName: __ZNSt3__128__exception_guard_exceptionsINS_6vectorItNS_9allocatorItEEE16__destroy_vectorEED1B8ne180100Ev, symObjAddr: 0xE44, symBinAddr: 0x10000C67C, symSize: 0x2C }
  - { offset: 0x2D3CF, size: 0x8, addend: 0x0, symName: __ZNSt3__128__exception_guard_exceptionsINS_6vectorItNS_9allocatorItEEE16__destroy_vectorEEC1B8ne180100ES5_, symObjAddr: 0xE70, symBinAddr: 0x10000C6A8, symSize: 0x34 }
  - { offset: 0x2D405, size: 0x8, addend: 0x0, symName: __ZNSt3__128__exception_guard_exceptionsINS_6vectorItNS_9allocatorItEEE16__destroy_vectorEEC2B8ne180100ES5_, symObjAddr: 0xEA4, symBinAddr: 0x10000C6DC, symSize: 0x24 }
  - { offset: 0x2D43B, size: 0x8, addend: 0x0, symName: __ZNSt3__16vectorItNS_9allocatorItEEE16__destroy_vectorC2B8ne180100ERS3_, symObjAddr: 0xEC8, symBinAddr: 0x10000C700, symSize: 0x20 }
  - { offset: 0x2D472, size: 0x8, addend: 0x0, symName: __ZNKSt3__16vectorItNS_9allocatorItEEE8max_sizeEv, symObjAddr: 0xEE8, symBinAddr: 0x10000C720, symSize: 0x60 }
  - { offset: 0x2D498, size: 0x8, addend: 0x0, symName: __ZNKSt3__16vectorItNS_9allocatorItEEE20__throw_length_errorB8ne180100Ev, symObjAddr: 0xF48, symBinAddr: 0x10000C780, symSize: 0x1C }
  - { offset: 0x2D4BC, size: 0x8, addend: 0x0, symName: __ZNSt3__16vectorItNS_9allocatorItEEE7__allocB8ne180100Ev, symObjAddr: 0xFA4, symBinAddr: 0x10000C7DC, symSize: 0x28 }
  - { offset: 0x2D4E0, size: 0x8, addend: 0x0, symName: __ZNSt3__16vectorItNS_9allocatorItEEE9__end_capB8ne180100Ev, symObjAddr: 0xFCC, symBinAddr: 0x10000C804, symSize: 0x28 }
  - { offset: 0x2D504, size: 0x8, addend: 0x0, symName: __ZNKSt3__16vectorItNS_9allocatorItEEE14__annotate_newB8ne180100Em, symObjAddr: 0xFF4, symBinAddr: 0x10000C82C, symSize: 0x14 }
  - { offset: 0x2D537, size: 0x8, addend: 0x0, symName: __ZNSt3__116allocator_traitsINS_9allocatorItEEE8max_sizeB8ne180100IS2_vEEmRKS2_, symObjAddr: 0x1034, symBinAddr: 0x10000C86C, symSize: 0x24 }
  - { offset: 0x2D565, size: 0x8, addend: 0x0, symName: __ZNSt3__114numeric_limitsIlE3maxB8ne180100Ev, symObjAddr: 0x1058, symBinAddr: 0x10000C890, symSize: 0x14 }
  - { offset: 0x2D582, size: 0x8, addend: 0x0, symName: __ZNKSt3__19allocatorItE8max_sizeB8ne180100Ev, symObjAddr: 0x1104, symBinAddr: 0x10000C8F8, symSize: 0x14 }
  - { offset: 0x2D5A7, size: 0x8, addend: 0x0, symName: __ZNSt3__123__libcpp_numeric_limitsIlLb1EE3maxB8ne180100Ev, symObjAddr: 0x1118, symBinAddr: 0x10000C90C, symSize: 0x8 }
  - { offset: 0x2D5BA, size: 0x8, addend: 0x0, symName: __ZNSt3__19allocatorItE8allocateB8ne180100Em, symObjAddr: 0x11FC, symBinAddr: 0x10000C914, symSize: 0x58 }
  - { offset: 0x2D5EC, size: 0x8, addend: 0x0, symName: __ZNSt3__117__compressed_pairIPtNS_9allocatorItEEE6secondB8ne180100Ev, symObjAddr: 0x1358, symBinAddr: 0x10000C96C, symSize: 0x24 }
  - { offset: 0x2D610, size: 0x8, addend: 0x0, symName: __ZNSt3__122__compressed_pair_elemINS_9allocatorItEELi1ELb1EE5__getB8ne180100Ev, symObjAddr: 0x137C, symBinAddr: 0x10000C990, symSize: 0x14 }
  - { offset: 0x2D634, size: 0x8, addend: 0x0, symName: __ZNSt3__117__compressed_pairIPtNS_9allocatorItEEE5firstB8ne180100Ev, symObjAddr: 0x1390, symBinAddr: 0x10000C9A4, symSize: 0x24 }
  - { offset: 0x2D658, size: 0x8, addend: 0x0, symName: __ZNSt3__122__compressed_pair_elemIPtLi0ELb0EE5__getB8ne180100Ev, symObjAddr: 0x13B4, symBinAddr: 0x10000C9C8, symSize: 0x14 }
  - { offset: 0x2D695, size: 0x8, addend: 0x0, symName: __ZNSt3__16vectorItNS_9allocatorItEEE21_ConstructTransactionC1B8ne180100ERS3_m, symObjAddr: 0x13C8, symBinAddr: 0x10000C9DC, symSize: 0x3C }
  - { offset: 0x2D6DB, size: 0x8, addend: 0x0, symName: __ZNSt3__16vectorItNS_9allocatorItEEE21_ConstructTransactionD1B8ne180100Ev, symObjAddr: 0x1484, symBinAddr: 0x10000CA98, symSize: 0x2C }
  - { offset: 0x2D703, size: 0x8, addend: 0x0, symName: __ZNSt3__16vectorItNS_9allocatorItEEE21_ConstructTransactionC2B8ne180100ERS3_m, symObjAddr: 0x14B0, symBinAddr: 0x10000CAC4, symSize: 0x44 }
  - { offset: 0x2D767, size: 0x8, addend: 0x0, symName: __ZNSt3__14pairIPtS1_EC1B8ne180100IS1_S1_Li0EEEOT_OT0_, symObjAddr: 0x1624, symBinAddr: 0x10000CC38, symSize: 0x3C }
  - { offset: 0x2D7C3, size: 0x8, addend: 0x0, symName: __ZNSt3__14pairIPtS1_EC2B8ne180100IS1_S1_Li0EEEOT_OT0_, symObjAddr: 0x1660, symBinAddr: 0x10000CC74, symSize: 0x34 }
  - { offset: 0x2D829, size: 0x8, addend: 0x0, symName: __ZNKSt3__114__copy_trivialclB8ne180100IttLi0EEENS_4pairIPT_PT0_EES4_S4_S6_, symObjAddr: 0x1810, symBinAddr: 0x10000CE24, symSize: 0x48 }
  - { offset: 0x2D88F, size: 0x8, addend: 0x0, symName: __ZNSt3__14pairIPtS1_EC1B8ne180100IRS1_S1_Li0EEEOT_OT0_, symObjAddr: 0x19A0, symBinAddr: 0x10000CFB4, symSize: 0x3C }
  - { offset: 0x2D8EB, size: 0x8, addend: 0x0, symName: __ZNSt3__14pairIPtS1_EC2B8ne180100IRS1_S1_Li0EEEOT_OT0_, symObjAddr: 0x19DC, symBinAddr: 0x10000CFF0, symSize: 0x34 }
  - { offset: 0x2D947, size: 0x8, addend: 0x0, symName: __ZNSt3__118__unwrap_iter_implIPtLb1EE8__unwrapB8ne180100ES1_, symObjAddr: 0x1A10, symBinAddr: 0x10000D024, symSize: 0x24 }
  - { offset: 0x2D969, size: 0x8, addend: 0x0, symName: __ZNSt3__118__unwrap_iter_implIPtLb1EE8__rewrapB8ne180100ES1_S1_, symObjAddr: 0x1A48, symBinAddr: 0x10000D05C, symSize: 0x50 }
  - { offset: 0x2D999, size: 0x8, addend: 0x0, symName: __ZNSt3__16vectorItNS_9allocatorItEEE21_ConstructTransactionD2B8ne180100Ev, symObjAddr: 0x1A98, symBinAddr: 0x10000D0AC, symSize: 0x20 }
  - { offset: 0x2D9C1, size: 0x8, addend: 0x0, symName: __ZNSt3__128__exception_guard_exceptionsINS_6vectorItNS_9allocatorItEEE16__destroy_vectorEED2B8ne180100Ev, symObjAddr: 0x1AB8, symBinAddr: 0x10000D0CC, symSize: 0x50 }
  - { offset: 0x2D9E9, size: 0x8, addend: 0x0, symName: __ZNSt3__16vectorItNS_9allocatorItEEE16__destroy_vectorclB8ne180100Ev, symObjAddr: 0x1B08, symBinAddr: 0x10000D11C, symSize: 0x90 }
  - { offset: 0x2DA0D, size: 0x8, addend: 0x0, symName: __ZNSt3__16vectorItNS_9allocatorItEEE7__clearB8ne180100Ev, symObjAddr: 0x1B98, symBinAddr: 0x10000D1AC, symSize: 0x28 }
  - { offset: 0x2DA31, size: 0x8, addend: 0x0, symName: __ZNKSt3__16vectorItNS_9allocatorItEEE17__annotate_deleteB8ne180100Ev, symObjAddr: 0x1BC0, symBinAddr: 0x10000D1D4, symSize: 0x10 }
  - { offset: 0x2DA55, size: 0x8, addend: 0x0, symName: __ZNSt3__116allocator_traitsINS_9allocatorItEEE10deallocateB8ne180100ERS2_Ptm, symObjAddr: 0x1BD0, symBinAddr: 0x10000D1E4, symSize: 0x34 }
  - { offset: 0x2DA96, size: 0x8, addend: 0x0, symName: __ZNKSt3__16vectorItNS_9allocatorItEEE8capacityB8ne180100Ev, symObjAddr: 0x1C04, symBinAddr: 0x10000D218, symSize: 0x40 }
  - { offset: 0x2DABA, size: 0x8, addend: 0x0, symName: __ZNSt3__16vectorItNS_9allocatorItEEE22__base_destruct_at_endB8ne180100EPt, symObjAddr: 0x1C44, symBinAddr: 0x10000D258, symSize: 0x8C }
  - { offset: 0x2DAFC, size: 0x8, addend: 0x0, symName: __ZNSt3__116allocator_traitsINS_9allocatorItEEE7destroyB8ne180100ItvEEvRS2_PT_, symObjAddr: 0x1CD0, symBinAddr: 0x10000D2E4, symSize: 0x2C }
  - { offset: 0x2DB38, size: 0x8, addend: 0x0, symName: __ZNSt3__19allocatorItE7destroyB8ne180100EPt, symObjAddr: 0x1CFC, symBinAddr: 0x10000D310, symSize: 0x14 }
  - { offset: 0x2DB6A, size: 0x8, addend: 0x0, symName: __ZNSt3__19allocatorItE10deallocateB8ne180100EPtm, symObjAddr: 0x1D10, symBinAddr: 0x10000D324, symSize: 0x40 }
  - { offset: 0x2DBAA, size: 0x8, addend: 0x0, symName: __ZNKSt3__16vectorItNS_9allocatorItEEE9__end_capB8ne180100Ev, symObjAddr: 0x1E58, symBinAddr: 0x10000D364, symSize: 0x28 }
  - { offset: 0x2DBCE, size: 0x8, addend: 0x0, symName: __ZNKSt3__117__compressed_pairIPtNS_9allocatorItEEE5firstB8ne180100Ev, symObjAddr: 0x1E80, symBinAddr: 0x10000D38C, symSize: 0x24 }
  - { offset: 0x2DBF2, size: 0x8, addend: 0x0, symName: __ZNKSt3__122__compressed_pair_elemIPtLi0ELb0EE5__getB8ne180100Ev, symObjAddr: 0x1EA4, symBinAddr: 0x10000D3B0, symSize: 0x14 }
  - { offset: 0x2DC16, size: 0x8, addend: 0x0, symName: __ZNSt3__16vectorItNS_9allocatorItEEED2B8ne180100Ev, symObjAddr: 0x1EB8, symBinAddr: 0x10000D3C4, symSize: 0x40 }
  - { offset: 0x38AE7, size: 0x8, addend: 0x0, symName: __ZNSt3__17getlineB8ne180100IcNS_11char_traitsIcEENS_9allocatorIcEEEERNS_13basic_istreamIT_T0_EES9_RNS_12basic_stringIS6_S7_T1_EE, symObjAddr: 0xD14, symBinAddr: 0x10000E0A4, symSize: 0x5C }
  - { offset: 0x38B3F, size: 0x8, addend: 0x0, symName: __ZNSt3__1eqB8ne180100IcNS_11char_traitsIcEENS_9allocatorIcEEEEbRKNS_12basic_stringIT_T0_T1_EEPKS6_, symObjAddr: 0xD70, symBinAddr: 0x10000E100, symSize: 0xAC }
  - { offset: 0x3957D, size: 0x8, addend: 0x0, symName: __ZNSt3__1rsB8ne180100IcNS_11char_traitsIcEENS_9allocatorIcEEEERNS_13basic_istreamIT_T0_EES9_RNS_12basic_stringIS6_S7_T1_EE, symObjAddr: 0xF78, symBinAddr: 0x10000E308, symSize: 0x308 }
  - { offset: 0x3964A, size: 0x8, addend: 0x0, symName: __ZNSt3__1neB8ne180100IPcEEbRKNS_11__wrap_iterIT_EES6_, symObjAddr: 0x1408, symBinAddr: 0x10000E798, symSize: 0x34 }
  - { offset: 0x3968D, size: 0x8, addend: 0x0, symName: __ZNSt3__1eqB8ne180100ERKNS_21__hash_const_iteratorIPNS_11__hash_nodeINS_12basic_stringIcNS_11char_traitsIcEENS_9allocatorIcEEEEPvEEEESD_, symObjAddr: 0x14D0, symBinAddr: 0x10000E860, symSize: 0x30 }
  - { offset: 0x396D5, size: 0x8, addend: 0x0, symName: __ZNSt3__1neB8ne180100IPtEEbRKNS_11__wrap_iterIT_EES6_, symObjAddr: 0x23D8, symBinAddr: 0x10000F6DC, symSize: 0x34 }
  - { offset: 0x39718, size: 0x8, addend: 0x0, symName: __ZNSt3__1eqB8ne180100IPcEEbRKNS_11__wrap_iterIT_EES6_, symObjAddr: 0x2D58, symBinAddr: 0x10000FFB0, symSize: 0x48 }
  - { offset: 0x3975B, size: 0x8, addend: 0x0, symName: __ZNSt3__1eqB8ne180100IPtEEbRKNS_11__wrap_iterIT_EES6_, symObjAddr: 0x2FFC, symBinAddr: 0x100010254, symSize: 0x48 }
  - { offset: 0x397E8, size: 0x8, addend: 0x0, symName: __ZNSt3__116__do_string_hashB8ne180100IPKcEEmT_S3_, symObjAddr: 0x4584, symBinAddr: 0x10001134C, symSize: 0x3C }
  - { offset: 0x3982E, size: 0x8, addend: 0x0, symName: __ZNSt3__110__loadwordB8ne180100ImEET_PKv, symObjAddr: 0x4FA8, symBinAddr: 0x100011D48, symSize: 0x20 }
  - { offset: 0x39871, size: 0x8, addend: 0x0, symName: __ZNSt3__14swapB8ne180100ImEENS_9enable_ifIXaasr21is_move_constructibleIT_EE5valuesr18is_move_assignableIS2_EE5valueEvE4typeERS2_S5_, symObjAddr: 0x5164, symBinAddr: 0x100011F04, symSize: 0x3C }
  - { offset: 0x398C2, size: 0x8, addend: 0x0, symName: __ZNSt3__110__loadwordB8ne180100IjEET_PKv, symObjAddr: 0x51F4, symBinAddr: 0x100011F94, symSize: 0x20 }
  - { offset: 0x39905, size: 0x8, addend: 0x0, symName: __ZNSt3__1eqB8ne180100INS_9allocatorIcEEEEbRKNS_12basic_stringIcNS_11char_traitsIcEET_EES9_, symObjAddr: 0x5558, symBinAddr: 0x100012218, symSize: 0x148 }
  - { offset: 0x39996, size: 0x8, addend: 0x0, symName: __ZNSt3__114__construct_atB8ne180100INS_11__hash_nodeINS_12basic_stringIcNS_11char_traitsIcEENS_9allocatorIcEEEEPvEEJDnRmEPS9_EEPT_SD_DpOT0_, symObjAddr: 0x57C0, symBinAddr: 0x100012444, symSize: 0x40 }
  - { offset: 0x399FC, size: 0x8, addend: 0x0, symName: __ZNSt3__17getlineB8ne180100IcNS_11char_traitsIcEENS_9allocatorIcEEEERNS_13basic_istreamIT_T0_EES9_RNS_12basic_stringIS6_S7_T1_EES6_, symObjAddr: 0x7644, symBinAddr: 0x100013024, symSize: 0x238 }
  - { offset: 0x39ABA, size: 0x8, addend: 0x0, symName: __ZNSt3__112__to_addressB8ne180100INS_12basic_stringIcNS_11char_traitsIcEENS_9allocatorIcEEEEEEPT_S8_, symObjAddr: 0x80E0, symBinAddr: 0x100013868, symSize: 0x14 }
  - { offset: 0x39AEF, size: 0x8, addend: 0x0, symName: __ZNSt3__119__allocate_at_leastB8ne180100INS_9allocatorINS_12basic_stringIcNS_11char_traitsIcEENS1_IcEEEEEEEENS_19__allocation_resultINS_16allocator_traitsIT_E7pointerEEERSA_m, symObjAddr: 0x9028, symBinAddr: 0x100014620, symSize: 0x40 }
  - { offset: 0x39B32, size: 0x8, addend: 0x0, symName: __ZNSt3__142__uninitialized_allocator_move_if_noexceptB8ne180100INS_9allocatorINS_12basic_stringIcNS_11char_traitsIcEENS1_IcEEEEEENS_16reverse_iteratorIPS6_EESA_SA_EET2_RT_T0_T1_SB_, symObjAddr: 0x91E0, symBinAddr: 0x1000147D8, symSize: 0x12C }
  - { offset: 0x39BD2, size: 0x8, addend: 0x0, symName: __ZNSt3__14swapB8ne180100IPNS_12basic_stringIcNS_11char_traitsIcEENS_9allocatorIcEEEEEENS_9enable_ifIXaasr21is_move_constructibleIT_EE5valuesr18is_move_assignableIS9_EE5valueEvE4typeERS9_SC_, symObjAddr: 0x9358, symBinAddr: 0x100014950, symSize: 0x3C }
  - { offset: 0x39C23, size: 0x8, addend: 0x0, symName: __ZNSt3__122__make_exception_guardB8ne180100INS_29_AllocatorDestroyRangeReverseINS_9allocatorINS_12basic_stringIcNS_11char_traitsIcEENS2_IcEEEEEENS_16reverse_iteratorIPS7_EEEEEENS_28__exception_guard_exceptionsIT_EESE_, symObjAddr: 0x93A8, symBinAddr: 0x1000149A0, symSize: 0x4C }
  - { offset: 0x39C59, size: 0x8, addend: 0x0, symName: __ZNSt3__1neB8ne180100IPNS_12basic_stringIcNS_11char_traitsIcEENS_9allocatorIcEEEES7_EEbRKNS_16reverse_iteratorIT_EERKNS8_IT0_EE, symObjAddr: 0x9438, symBinAddr: 0x100014A30, symSize: 0x48 }
  - { offset: 0x39CA5, size: 0x8, addend: 0x0, symName: __ZNSt3__112__to_addressB8ne180100INS_16reverse_iteratorIPNS_12basic_stringIcNS_11char_traitsIcEENS_9allocatorIcEEEEEEvEEu7__decayIDTclsr19__to_address_helperIT_EE6__callclsr3stdE7declvalIRKSA_EEEEESC_, symObjAddr: 0x94B4, symBinAddr: 0x100014AAC, symSize: 0x24 }
  - { offset: 0x39D05, size: 0x8, addend: 0x0, symName: __ZNSt3__119__allocator_destroyB8ne180100INS_9allocatorINS_12basic_stringIcNS_11char_traitsIcEENS1_IcEEEEEENS_16reverse_iteratorINS8_IPS6_EEEESB_EEvRT_T0_T1_, symObjAddr: 0x98D0, symBinAddr: 0x100014D8C, symSize: 0x70 }
  - { offset: 0x39D6A, size: 0x8, addend: 0x0, symName: __ZNSt3__1neB8ne180100INS_16reverse_iteratorIPNS_12basic_stringIcNS_11char_traitsIcEENS_9allocatorIcEEEEEES9_EEbRKNS1_IT_EERKNS1_IT0_EE, symObjAddr: 0x997C, symBinAddr: 0x100014E38, symSize: 0x60 }
  - { offset: 0x39DB6, size: 0x8, addend: 0x0, symName: __ZNSt3__112__to_addressB8ne180100INS_16reverse_iteratorINS1_IPNS_12basic_stringIcNS_11char_traitsIcEENS_9allocatorIcEEEEEEEEvEEu7__decayIDTclsr19__to_address_helperIT_EE6__callclsr3stdE7declvalIRKSB_EEEEESD_, symObjAddr: 0x99DC, symBinAddr: 0x100014E98, symSize: 0x24 }
  - { offset: 0x39E16, size: 0x8, addend: 0x0, symName: __ZNSt3__110__str_findB8ne180100IcmNS_11char_traitsIcEELm18446744073709551615EEET0_PKT_S3_S6_S3_S3_, symObjAddr: 0xA500, symBinAddr: 0x1000155EC, symSize: 0xE4 }
  - { offset: 0x39EBD, size: 0x8, addend: 0x0, symName: __ZNSt3__118__search_substringB8ne180100IcNS_11char_traitsIcEEEEPKT_S5_S5_S5_S5_, symObjAddr: 0xA5E4, symBinAddr: 0x1000156D0, symSize: 0x154 }
  - { offset: 0x39F57, size: 0x8, addend: 0x0, symName: __ZNSt3__118__constexpr_memchrB8ne180100IKccEEPT_S3_T0_m, symObjAddr: 0xA7A8, symBinAddr: 0x100015894, symSize: 0x40 }
  - { offset: 0x39FCD, size: 0x8, addend: 0x0, symName: __ZNSt3__142__uninitialized_allocator_move_if_noexceptB8ne180100INS_9allocatorItEENS_16reverse_iteratorIPtEES5_tvEET1_RT_T0_S9_S6_, symObjAddr: 0xB178, symBinAddr: 0x100015F8C, symSize: 0x78 }
  - { offset: 0x3A04A, size: 0x8, addend: 0x0, symName: __ZNSt3__14swapB8ne180100IPtEENS_9enable_ifIXaasr21is_move_constructibleIT_EE5valuesr18is_move_assignableIS3_EE5valueEvE4typeERS3_S6_, symObjAddr: 0xB23C, symBinAddr: 0x100016050, symSize: 0x3C }
  - { offset: 0x3A09B, size: 0x8, addend: 0x0, symName: __ZNSt3__14moveB8ne180100INS_16reverse_iteratorIPtEES3_EET0_T_S5_S4_, symObjAddr: 0xB28C, symBinAddr: 0x10001608C, symSize: 0x78 }
  - { offset: 0x3A0F5, size: 0x8, addend: 0x0, symName: __ZNSt3__16__moveB8ne180100INS_17_ClassicAlgPolicyENS_16reverse_iteratorIPtEES4_S4_EENS_4pairIT0_T2_EES6_T1_S7_, symObjAddr: 0xB304, symBinAddr: 0x100016104, symSize: 0x64 }
  - { offset: 0x3A161, size: 0x8, addend: 0x0, symName: __ZNSt3__123__dispatch_copy_or_moveB8ne180100INS_17_ClassicAlgPolicyENS_11__move_loopIS1_EENS_14__move_trivialENS_16reverse_iteratorIPtEES7_S7_EENS_4pairIT2_T4_EES9_T3_SA_, symObjAddr: 0xB368, symBinAddr: 0x100016168, symSize: 0x64 }
  - { offset: 0x3A1DF, size: 0x8, addend: 0x0, symName: __ZNSt3__121__unwrap_and_dispatchB8ne180100INS_10__overloadINS_11__move_loopINS_17_ClassicAlgPolicyEEENS_14__move_trivialEEENS_16reverse_iteratorIPtEES9_S9_Li0EEENS_4pairIT0_T2_EESB_T1_SC_, symObjAddr: 0xB3CC, symBinAddr: 0x1000161CC, symSize: 0x12C }
  - { offset: 0x3A26F, size: 0x8, addend: 0x0, symName: __ZNSt3__114__unwrap_rangeB8ne180100INS_16reverse_iteratorIPtEES3_EENS_4pairIT0_S5_EET_S7_, symObjAddr: 0xB4F8, symBinAddr: 0x1000162F8, symSize: 0x84 }
  - { offset: 0x3A3E1, size: 0x8, addend: 0x0, symName: __ZNSt3__113__unwrap_iterB8ne180100INS_16reverse_iteratorIPtEENS_18__unwrap_iter_implIS3_Lb0EEELi0EEEDTclsrT0_8__unwrapclsr3stdE7declvalIT_EEEES7_, symObjAddr: 0xB61C, symBinAddr: 0x10001641C, symSize: 0x44 }
  - { offset: 0x3A425, size: 0x8, addend: 0x0, symName: __ZNSt3__19make_pairB8ne180100INS_16reverse_iteratorIPtEES3_EENS_4pairINS_18__unwrap_ref_decayIT_E4typeENS5_IT0_E4typeEEEOS6_OS9_, symObjAddr: 0xB660, symBinAddr: 0x100016460, symSize: 0x38 }
  - { offset: 0x3A474, size: 0x8, addend: 0x0, symName: __ZNSt3__114__rewrap_rangeB8ne180100INS_16reverse_iteratorIPtEES3_EET_S4_T0_, symObjAddr: 0xB698, symBinAddr: 0x100016498, symSize: 0x5C }
  - { offset: 0x3A4C0, size: 0x8, addend: 0x0, symName: __ZNSt3__113__rewrap_iterB8ne180100INS_16reverse_iteratorIPtEES3_NS_18__unwrap_iter_implIS3_Lb0EEEEET_S6_T0_, symObjAddr: 0xB6F4, symBinAddr: 0x1000164F4, symSize: 0x74 }
  - { offset: 0x3A515, size: 0x8, addend: 0x0, symName: __ZNSt3__1neB8ne180100IPtS1_EEbRKNS_16reverse_iteratorIT_EERKNS2_IT0_EE, symObjAddr: 0xB768, symBinAddr: 0x100016568, symSize: 0x48 }
  - { offset: 0x3B906, size: 0x8, addend: 0x0, symName: __ZNSt3__16vectorINS_12basic_stringIcNS_11char_traitsIcEENS_9allocatorIcEEEENS4_IS6_EEE26__swap_out_circular_bufferERNS_14__split_bufferIS6_RS7_EE, symObjAddr: 0x8B5C, symBinAddr: 0x1000142B0, symSize: 0x110 }
  - { offset: 0x3BAEB, size: 0x8, addend: 0x0, symName: __ZNSt3__16vectorItNS_9allocatorItEEE26__swap_out_circular_bufferERNS_14__split_bufferItRS2_EE, symObjAddr: 0xAC64, symBinAddr: 0x100015C24, symSize: 0x110 }
  - { offset: 0x3BC7A, size: 0x8, addend: 0x0, symName: __ZN21CentralProcessingUnitC2Ev, symObjAddr: 0x0, symBinAddr: 0x10000D404, symSize: 0x45C }
  - { offset: 0x3BCAA, size: 0x8, addend: 0x0, symName: __ZNSt3__112basic_stringIcNS_11char_traitsIcEENS_9allocatorIcEEEC1B8ne180100ILi0EEEPKc, symObjAddr: 0x45C, symBinAddr: 0x10000D860, symSize: 0x34 }
  - { offset: 0x3BCE7, size: 0x8, addend: 0x0, symName: __ZNSt3__113unordered_setINS_12basic_stringIcNS_11char_traitsIcEENS_9allocatorIcEEEENS_4hashIS6_EENS_8equal_toIS6_EENS4_IS6_EEEC1ESt16initializer_listIS6_E, symObjAddr: 0x490, symBinAddr: 0x10000D894, symSize: 0x3C }
  - { offset: 0x3BD20, size: 0x8, addend: 0x0, symName: __ZN21CentralProcessingUnitC1Ev, symObjAddr: 0x4CC, symBinAddr: 0x10000D8D0, symSize: 0x2C }
  - { offset: 0x3BD4B, size: 0x8, addend: 0x0, symName: __ZN21CentralProcessingUnit19run_continuous_loopEv, symObjAddr: 0x4F8, symBinAddr: 0x10000D8FC, symSize: 0x7A8 }
  - { offset: 0x3BEEE, size: 0x8, addend: 0x0, symName: __ZNKSt3__112basic_stringIcNS_11char_traitsIcEENS_9allocatorIcEEE5emptyB8ne180100Ev, symObjAddr: 0xE1C, symBinAddr: 0x10000E1AC, symSize: 0x30 }
  - { offset: 0x3BF12, size: 0x8, addend: 0x0, symName: __ZNSt3__16vectorINS_12basic_stringIcNS_11char_traitsIcEENS_9allocatorIcEEEENS4_IS6_EEEC1B8ne180100Ev, symObjAddr: 0xE4C, symBinAddr: 0x10000E1DC, symSize: 0x2C }
  - { offset: 0x3C013, size: 0x8, addend: 0x0, symName: __ZNSt3__118basic_stringstreamIcNS_11char_traitsIcEENS_9allocatorIcEEEC1B8ne180100ERKNS_12basic_stringIcS2_S4_EEj, symObjAddr: 0xE78, symBinAddr: 0x10000E208, symSize: 0x100 }
  - { offset: 0x3C059, size: 0x8, addend: 0x0, symName: __ZNKSt3__19basic_iosIcNS_11char_traitsIcEEEcvbB8ne180100Ev, symObjAddr: 0x1280, symBinAddr: 0x10000E610, symSize: 0x2C }
  - { offset: 0x3C07D, size: 0x8, addend: 0x0, symName: __ZNSt3__16vectorINS_12basic_stringIcNS_11char_traitsIcEENS_9allocatorIcEEEENS4_IS6_EEE9push_backB8ne180100ERKS6_, symObjAddr: 0x12AC, symBinAddr: 0x10000E63C, symSize: 0x90 }
  - { offset: 0x3C0C2, size: 0x8, addend: 0x0, symName: __ZNSt3__16vectorINS_12basic_stringIcNS_11char_traitsIcEENS_9allocatorIcEEEENS4_IS6_EEEixB8ne180100Em, symObjAddr: 0x133C, symBinAddr: 0x10000E6CC, symSize: 0x2C }
  - { offset: 0x3C0F7, size: 0x8, addend: 0x0, symName: __ZNSt3__112basic_stringIcNS_11char_traitsIcEENS_9allocatorIcEEE5beginB8ne180100Ev, symObjAddr: 0x1368, symBinAddr: 0x10000E6F8, symSize: 0x4C }
  - { offset: 0x3C11B, size: 0x8, addend: 0x0, symName: __ZNSt3__112basic_stringIcNS_11char_traitsIcEENS_9allocatorIcEEE3endB8ne180100Ev, symObjAddr: 0x13B4, symBinAddr: 0x10000E744, symSize: 0x54 }
  - { offset: 0x3C13F, size: 0x8, addend: 0x0, symName: __ZNKSt3__111__wrap_iterIPcEdeB8ne180100Ev, symObjAddr: 0x143C, symBinAddr: 0x10000E7CC, symSize: 0x18 }
  - { offset: 0x3C163, size: 0x8, addend: 0x0, symName: __Z7isalphai, symObjAddr: 0x1454, symBinAddr: 0x10000E7E4, symSize: 0x28 }
  - { offset: 0x3C18F, size: 0x8, addend: 0x0, symName: __ZNSt3__112basic_stringIcNS_11char_traitsIcEENS_9allocatorIcEEEpLB8ne180100Ec, symObjAddr: 0x147C, symBinAddr: 0x10000E80C, symSize: 0x34 }
  - { offset: 0x3C1C2, size: 0x8, addend: 0x0, symName: __ZNSt3__111__wrap_iterIPcEppB8ne180100Ev, symObjAddr: 0x14B0, symBinAddr: 0x10000E840, symSize: 0x20 }
  - { offset: 0x3C1E6, size: 0x8, addend: 0x0, symName: __ZNSt3__113unordered_setINS_12basic_stringIcNS_11char_traitsIcEENS_9allocatorIcEEEENS_4hashIS6_EENS_8equal_toIS6_EENS4_IS6_EEE4findB8ne180100ERKS6_, symObjAddr: 0x1500, symBinAddr: 0x10000E890, symSize: 0x40 }
  - { offset: 0x3C219, size: 0x8, addend: 0x0, symName: __ZNSt3__113unordered_setINS_12basic_stringIcNS_11char_traitsIcEENS_9allocatorIcEEEENS_4hashIS6_EENS_8equal_toIS6_EENS4_IS6_EEE3endB8ne180100Ev, symObjAddr: 0x1540, symBinAddr: 0x10000E8D0, symSize: 0x38 }
  - { offset: 0x3C23D, size: 0x8, addend: 0x0, symName: __ZNKSt3__16vectorINS_12basic_stringIcNS_11char_traitsIcEENS_9allocatorIcEEEENS4_IS6_EEE4sizeB8ne180100Ev, symObjAddr: 0x1578, symBinAddr: 0x10000E908, symSize: 0x28 }
  - { offset: 0x3C261, size: 0x8, addend: 0x0, symName: __Z7isdigiti, symObjAddr: 0x15A0, symBinAddr: 0x10000E930, symSize: 0x28 }
  - { offset: 0x3C293, size: 0x8, addend: 0x0, symName: __ZNSt3__118basic_stringstreamIcNS_11char_traitsIcEENS_9allocatorIcEEED1Ev, symObjAddr: 0x1654, symBinAddr: 0x10000E958, symSize: 0x40 }
  - { offset: 0x3C2BE, size: 0x8, addend: 0x0, symName: __ZNSt3__16vectorINS_12basic_stringIcNS_11char_traitsIcEENS_9allocatorIcEEEENS4_IS6_EEED1B8ne180100Ev, symObjAddr: 0x1694, symBinAddr: 0x10000E998, symSize: 0x2C }
  - { offset: 0x3C2E7, size: 0x8, addend: 0x0, symName: __ZN21CentralProcessingUnit17run_assembly_fileENSt3__112basic_stringIcNS0_11char_traitsIcEENS0_9allocatorIcEEEE, symObjAddr: 0x16C0, symBinAddr: 0x10000E9C4, symSize: 0xC18 }
  - { offset: 0x3C4C2, size: 0x8, addend: 0x0, symName: __ZNSt3__16vectorItNS_9allocatorItEEEC1B8ne180100Ev, symObjAddr: 0x22D8, symBinAddr: 0x10000F5DC, symSize: 0x2C }
  - { offset: 0x3C4EA, size: 0x8, addend: 0x0, symName: __ZNKSt3__112basic_stringIcNS_11char_traitsIcEENS_9allocatorIcEEE4findB8ne180100EPKcm, symObjAddr: 0x2304, symBinAddr: 0x10000F608, symSize: 0x74 }
  - { offset: 0x3C52E, size: 0x8, addend: 0x0, symName: __ZNSt3__16vectorItNS_9allocatorItEEE5beginB8ne180100Ev, symObjAddr: 0x2378, symBinAddr: 0x10000F67C, symSize: 0x30 }
  - { offset: 0x3C554, size: 0x8, addend: 0x0, symName: __ZNSt3__16vectorItNS_9allocatorItEEE3endB8ne180100Ev, symObjAddr: 0x23A8, symBinAddr: 0x10000F6AC, symSize: 0x30 }
  - { offset: 0x3C57A, size: 0x8, addend: 0x0, symName: __ZNKSt3__111__wrap_iterIPtEdeB8ne180100Ev, symObjAddr: 0x240C, symBinAddr: 0x10000F710, symSize: 0x18 }
  - { offset: 0x3C59E, size: 0x8, addend: 0x0, symName: __ZNSt3__16vectorItNS_9allocatorItEEE9push_backB8ne180100ERKt, symObjAddr: 0x2424, symBinAddr: 0x10000F728, symSize: 0x90 }
  - { offset: 0x3C5E2, size: 0x8, addend: 0x0, symName: __ZNSt3__111__wrap_iterIPtEppB8ne180100Ev, symObjAddr: 0x24B4, symBinAddr: 0x10000F7B8, symSize: 0x20 }
  - { offset: 0x3C606, size: 0x8, addend: 0x0, symName: __ZNSt3__16vectorItNS_9allocatorItEEE9push_backB8ne180100EOt, symObjAddr: 0x254C, symBinAddr: 0x10000F7D8, symSize: 0x90 }
  - { offset: 0x3C64A, size: 0x8, addend: 0x0, symName: __ZNKSt3__16vectorItNS_9allocatorItEEE5emptyB8ne180100Ev, symObjAddr: 0x25DC, symBinAddr: 0x10000F868, symSize: 0x28 }
  - { offset: 0x3C66F, size: 0x8, addend: 0x0, symName: __ZN21CentralProcessingUnit22test_run_assembly_fileENSt3__112basic_stringIcNS0_11char_traitsIcEENS0_9allocatorIcEEEES6_, symObjAddr: 0x2638, symBinAddr: 0x10000F890, symSize: 0x720 }
  - { offset: 0x3C810, size: 0x8, addend: 0x0, symName: __ZNKSt3__111__wrap_iterIPcE4baseB8ne180100Ev, symObjAddr: 0x2DA0, symBinAddr: 0x10000FFF8, symSize: 0x18 }
  - { offset: 0x3C834, size: 0x8, addend: 0x0, symName: __Z8__istypeim, symObjAddr: 0x2DB8, symBinAddr: 0x100010010, symSize: 0x84 }
  - { offset: 0x3C86E, size: 0x8, addend: 0x0, symName: __Z7isasciii, symObjAddr: 0x2E3C, symBinAddr: 0x100010094, symSize: 0x24 }
  - { offset: 0x3C89A, size: 0x8, addend: 0x0, symName: __Z9__isctypeim, symObjAddr: 0x2E60, symBinAddr: 0x1000100B8, symSize: 0x78 }
  - { offset: 0x3C8D5, size: 0x8, addend: 0x0, symName: __ZNSt3__118basic_stringstreamIcNS_11char_traitsIcEENS_9allocatorIcEEED2Ev, symObjAddr: 0x2ED8, symBinAddr: 0x100010130, symSize: 0x6C }
  - { offset: 0x3C90D, size: 0x8, addend: 0x0, symName: __ZThn16_NSt3__118basic_stringstreamIcNS_11char_traitsIcEENS_9allocatorIcEEED1Ev, symObjAddr: 0x2F44, symBinAddr: 0x10001019C, symSize: 0x1C }
  - { offset: 0x3C924, size: 0x8, addend: 0x0, symName: __ZTv0_n24_NSt3__118basic_stringstreamIcNS_11char_traitsIcEENS_9allocatorIcEEED1Ev, symObjAddr: 0x2F60, symBinAddr: 0x1000101B8, symSize: 0x28 }
  - { offset: 0x3C940, size: 0x8, addend: 0x0, symName: __ZNSt3__115basic_stringbufIcNS_11char_traitsIcEENS_9allocatorIcEEED1Ev, symObjAddr: 0x2F88, symBinAddr: 0x1000101E0, symSize: 0x2C }
  - { offset: 0x3C96C, size: 0x8, addend: 0x0, symName: __ZNSt3__115basic_stringbufIcNS_11char_traitsIcEENS_9allocatorIcEEED2Ev, symObjAddr: 0x2FB4, symBinAddr: 0x10001020C, symSize: 0x48 }
  - { offset: 0x3C997, size: 0x8, addend: 0x0, symName: __ZNKSt3__111__wrap_iterIPtE4baseB8ne180100Ev, symObjAddr: 0x3044, symBinAddr: 0x10001029C, symSize: 0x18 }
  - { offset: 0x3C9C5, size: 0x8, addend: 0x0, symName: __ZNSt3__113unordered_setINS_12basic_stringIcNS_11char_traitsIcEENS_9allocatorIcEEEENS_4hashIS6_EENS_8equal_toIS6_EENS4_IS6_EEEC2ESt16initializer_listIS6_E, symObjAddr: 0x32EC, symBinAddr: 0x1000102B4, symSize: 0x8C }
  - { offset: 0x3C9FE, size: 0x8, addend: 0x0, symName: __ZNSt3__112__hash_tableINS_12basic_stringIcNS_11char_traitsIcEENS_9allocatorIcEEEENS_4hashIS6_EENS_8equal_toIS6_EENS4_IS6_EEEC1Ev, symObjAddr: 0x3378, symBinAddr: 0x100010340, symSize: 0x2C }
  - { offset: 0x3CA28, size: 0x8, addend: 0x0, symName: __ZNSt3__113unordered_setINS_12basic_stringIcNS_11char_traitsIcEENS_9allocatorIcEEEENS_4hashIS6_EENS_8equal_toIS6_EENS4_IS6_EEE6insertIPKS6_EEvT_SG_, symObjAddr: 0x33A4, symBinAddr: 0x10001036C, symSize: 0x70 }
  - { offset: 0x3CA75, size: 0x8, addend: 0x0, symName: __ZNKSt16initializer_listINSt3__112basic_stringIcNS0_11char_traitsIcEENS0_9allocatorIcEEEEE5beginB8ne180100Ev, symObjAddr: 0x3414, symBinAddr: 0x1000103DC, symSize: 0x18 }
  - { offset: 0x3CA99, size: 0x8, addend: 0x0, symName: __ZNKSt16initializer_listINSt3__112basic_stringIcNS0_11char_traitsIcEENS0_9allocatorIcEEEEE3endB8ne180100Ev, symObjAddr: 0x342C, symBinAddr: 0x1000103F4, symSize: 0x28 }
  - { offset: 0x3CABD, size: 0x8, addend: 0x0, symName: __ZNSt3__112__hash_tableINS_12basic_stringIcNS_11char_traitsIcEENS_9allocatorIcEEEENS_4hashIS6_EENS_8equal_toIS6_EENS4_IS6_EEEC2Ev, symObjAddr: 0x3480, symBinAddr: 0x10001041C, symSize: 0x7C }
  - { offset: 0x3CAE7, size: 0x8, addend: 0x0, symName: __ZNSt3__110unique_ptrIA_PNS_16__hash_node_baseIPNS_11__hash_nodeINS_12basic_stringIcNS_11char_traitsIcEENS_9allocatorIcEEEEPvEEEENS_25__bucket_list_deallocatorINS6_ISD_EEEEEC1B8ne180100ILb1EvEEv, symObjAddr: 0x34FC, symBinAddr: 0x100010498, symSize: 0x2C }
  - { offset: 0x3CB1A, size: 0x8, addend: 0x0, symName: __ZNSt3__117__compressed_pairINS_16__hash_node_baseIPNS_11__hash_nodeINS_12basic_stringIcNS_11char_traitsIcEENS_9allocatorIcEEEEPvEEEENS6_ISA_EEEC1B8ne180100ILb1EvEEv, symObjAddr: 0x3528, symBinAddr: 0x1000104C4, symSize: 0x2C }
  - { offset: 0x3CB52, size: 0x8, addend: 0x0, symName: __ZNSt3__117__compressed_pairImNS_4hashINS_12basic_stringIcNS_11char_traitsIcEENS_9allocatorIcEEEEEEEC1B8ne180100IiNS_18__default_init_tagEEEOT_OT0_, symObjAddr: 0x3554, symBinAddr: 0x1000104F0, symSize: 0x3C }
  - { offset: 0x3CBAD, size: 0x8, addend: 0x0, symName: __ZNSt3__117__compressed_pairIfNS_8equal_toINS_12basic_stringIcNS_11char_traitsIcEENS_9allocatorIcEEEEEEEC1B8ne180100IfNS_18__default_init_tagEEEOT_OT0_, symObjAddr: 0x3590, symBinAddr: 0x10001052C, symSize: 0x3C }
  - { offset: 0x3CC03, size: 0x8, addend: 0x0, symName: __ZNSt3__110unique_ptrIA_PNS_16__hash_node_baseIPNS_11__hash_nodeINS_12basic_stringIcNS_11char_traitsIcEENS_9allocatorIcEEEEPvEEEENS_25__bucket_list_deallocatorINS6_ISD_EEEEEC2B8ne180100ILb1EvEEv, symObjAddr: 0x35CC, symBinAddr: 0x100010568, symSize: 0x3C }
  - { offset: 0x3CC36, size: 0x8, addend: 0x0, symName: __ZNSt3__117__compressed_pairIPPNS_16__hash_node_baseIPNS_11__hash_nodeINS_12basic_stringIcNS_11char_traitsIcEENS_9allocatorIcEEEEPvEEEENS_25__bucket_list_deallocatorINS6_ISD_EEEEEC1B8ne180100INS_16__value_init_tagESK_EEOT_OT0_, symObjAddr: 0x3608, symBinAddr: 0x1000105A4, symSize: 0x3C }
  - { offset: 0x3CC8C, size: 0x8, addend: 0x0, symName: __ZNSt3__117__compressed_pairIPPNS_16__hash_node_baseIPNS_11__hash_nodeINS_12basic_stringIcNS_11char_traitsIcEENS_9allocatorIcEEEEPvEEEENS_25__bucket_list_deallocatorINS6_ISD_EEEEEC2B8ne180100INS_16__value_init_tagESK_EEOT_OT0_, symObjAddr: 0x3644, symBinAddr: 0x1000105E0, symSize: 0x40 }
  - { offset: 0x3CCE2, size: 0x8, addend: 0x0, symName: __ZNSt3__122__compressed_pair_elemIPPNS_16__hash_node_baseIPNS_11__hash_nodeINS_12basic_stringIcNS_11char_traitsIcEENS_9allocatorIcEEEEPvEEEELi0ELb0EEC2B8ne180100ENS_16__value_init_tagE, symObjAddr: 0x3684, symBinAddr: 0x100010620, symSize: 0x18 }
  - { offset: 0x3CD14, size: 0x8, addend: 0x0, symName: __ZNSt3__122__compressed_pair_elemINS_25__bucket_list_deallocatorINS_9allocatorIPNS_16__hash_node_baseIPNS_11__hash_nodeINS_12basic_stringIcNS_11char_traitsIcEENS2_IcEEEEPvEEEEEEEELi1ELb0EEC2B8ne180100ENS_16__value_init_tagE, symObjAddr: 0x369C, symBinAddr: 0x100010638, symSize: 0x2C }
  - { offset: 0x3CD46, size: 0x8, addend: 0x0, symName: __ZNSt3__125__bucket_list_deallocatorINS_9allocatorIPNS_16__hash_node_baseIPNS_11__hash_nodeINS_12basic_stringIcNS_11char_traitsIcEENS1_IcEEEEPvEEEEEEEC1B8ne180100Ev, symObjAddr: 0x36C8, symBinAddr: 0x100010664, symSize: 0x2C }
  - { offset: 0x3CD6E, size: 0x8, addend: 0x0, symName: __ZNSt3__125__bucket_list_deallocatorINS_9allocatorIPNS_16__hash_node_baseIPNS_11__hash_nodeINS_12basic_stringIcNS_11char_traitsIcEENS1_IcEEEEPvEEEEEEEC2B8ne180100Ev, symObjAddr: 0x36F4, symBinAddr: 0x100010690, symSize: 0x40 }
  - { offset: 0x3CD96, size: 0x8, addend: 0x0, symName: __ZNSt3__117__compressed_pairImNS_9allocatorIPNS_16__hash_node_baseIPNS_11__hash_nodeINS_12basic_stringIcNS_11char_traitsIcEENS1_IcEEEEPvEEEEEEEC1B8ne180100IiNS_18__default_init_tagEEEOT_OT0_, symObjAddr: 0x3734, symBinAddr: 0x1000106D0, symSize: 0x3C }
  - { offset: 0x3CDEC, size: 0x8, addend: 0x0, symName: __ZNSt3__117__compressed_pairImNS_9allocatorIPNS_16__hash_node_baseIPNS_11__hash_nodeINS_12basic_stringIcNS_11char_traitsIcEENS1_IcEEEEPvEEEEEEEC2B8ne180100IiNS_18__default_init_tagEEEOT_OT0_, symObjAddr: 0x3770, symBinAddr: 0x10001070C, symSize: 0x40 }
  - { offset: 0x3CE42, size: 0x8, addend: 0x0, symName: __ZNSt3__122__compressed_pair_elemINS_9allocatorIPNS_16__hash_node_baseIPNS_11__hash_nodeINS_12basic_stringIcNS_11char_traitsIcEENS1_IcEEEEPvEEEEEELi1ELb1EEC2B8ne180100ENS_18__default_init_tagE, symObjAddr: 0x37D4, symBinAddr: 0x10001074C, symSize: 0x2C }
  - { offset: 0x3CE74, size: 0x8, addend: 0x0, symName: __ZNSt3__19allocatorIPNS_16__hash_node_baseIPNS_11__hash_nodeINS_12basic_stringIcNS_11char_traitsIcEENS0_IcEEEEPvEEEEEC2B8ne180100Ev, symObjAddr: 0x3800, symBinAddr: 0x100010778, symSize: 0x2C }
  - { offset: 0x3CE9C, size: 0x8, addend: 0x0, symName: __ZNSt3__116__non_trivial_ifILb1ENS_9allocatorIPNS_16__hash_node_baseIPNS_11__hash_nodeINS_12basic_stringIcNS_11char_traitsIcEENS1_IcEEEEPvEEEEEEEC2B8ne180100Ev, symObjAddr: 0x382C, symBinAddr: 0x1000107A4, symSize: 0x14 }
  - { offset: 0x3CEC4, size: 0x8, addend: 0x0, symName: __ZNSt3__117__compressed_pairINS_16__hash_node_baseIPNS_11__hash_nodeINS_12basic_stringIcNS_11char_traitsIcEENS_9allocatorIcEEEEPvEEEENS6_ISA_EEEC2B8ne180100ILb1EvEEv, symObjAddr: 0x3840, symBinAddr: 0x1000107B8, symSize: 0x34 }
  - { offset: 0x3CEF7, size: 0x8, addend: 0x0, symName: __ZNSt3__122__compressed_pair_elemINS_16__hash_node_baseIPNS_11__hash_nodeINS_12basic_stringIcNS_11char_traitsIcEENS_9allocatorIcEEEEPvEEEELi0ELb0EEC2B8ne180100ENS_16__value_init_tagE, symObjAddr: 0x3874, symBinAddr: 0x1000107EC, symSize: 0x2C }
  - { offset: 0x3CF29, size: 0x8, addend: 0x0, symName: __ZNSt3__122__compressed_pair_elemINS_9allocatorINS_11__hash_nodeINS_12basic_stringIcNS_11char_traitsIcEENS1_IcEEEEPvEEEELi1ELb1EEC2B8ne180100ENS_16__value_init_tagE, symObjAddr: 0x38A0, symBinAddr: 0x100010818, symSize: 0x2C }
  - { offset: 0x3CF5B, size: 0x8, addend: 0x0, symName: __ZNSt3__116__hash_node_baseIPNS_11__hash_nodeINS_12basic_stringIcNS_11char_traitsIcEENS_9allocatorIcEEEEPvEEEC1B8ne180100Ev, symObjAddr: 0x38CC, symBinAddr: 0x100010844, symSize: 0x2C }
  - { offset: 0x3CF83, size: 0x8, addend: 0x0, symName: __ZNSt3__116__hash_node_baseIPNS_11__hash_nodeINS_12basic_stringIcNS_11char_traitsIcEENS_9allocatorIcEEEEPvEEEC2B8ne180100Ev, symObjAddr: 0x38F8, symBinAddr: 0x100010870, symSize: 0x18 }
  - { offset: 0x3CFAB, size: 0x8, addend: 0x0, symName: __ZNSt3__19allocatorINS_11__hash_nodeINS_12basic_stringIcNS_11char_traitsIcEENS0_IcEEEEPvEEEC2B8ne180100Ev, symObjAddr: 0x3910, symBinAddr: 0x100010888, symSize: 0x2C }
  - { offset: 0x3CFD3, size: 0x8, addend: 0x0, symName: __ZNSt3__116__non_trivial_ifILb1ENS_9allocatorINS_11__hash_nodeINS_12basic_stringIcNS_11char_traitsIcEENS1_IcEEEEPvEEEEEC2B8ne180100Ev, symObjAddr: 0x393C, symBinAddr: 0x1000108B4, symSize: 0x14 }
  - { offset: 0x3CFFB, size: 0x8, addend: 0x0, symName: __ZNSt3__117__compressed_pairImNS_4hashINS_12basic_stringIcNS_11char_traitsIcEENS_9allocatorIcEEEEEEEC2B8ne180100IiNS_18__default_init_tagEEEOT_OT0_, symObjAddr: 0x3950, symBinAddr: 0x1000108C8, symSize: 0x40 }
  - { offset: 0x3D051, size: 0x8, addend: 0x0, symName: __ZNSt3__122__compressed_pair_elemINS_4hashINS_12basic_stringIcNS_11char_traitsIcEENS_9allocatorIcEEEEEELi1ELb1EEC2B8ne180100ENS_18__default_init_tagE, symObjAddr: 0x3990, symBinAddr: 0x100010908, symSize: 0x14 }
  - { offset: 0x3D083, size: 0x8, addend: 0x0, symName: __ZNSt3__117__compressed_pairIfNS_8equal_toINS_12basic_stringIcNS_11char_traitsIcEENS_9allocatorIcEEEEEEEC2B8ne180100IfNS_18__default_init_tagEEEOT_OT0_, symObjAddr: 0x39A4, symBinAddr: 0x10001091C, symSize: 0x40 }
  - { offset: 0x3D0D9, size: 0x8, addend: 0x0, symName: __ZNSt3__122__compressed_pair_elemINS_8equal_toINS_12basic_stringIcNS_11char_traitsIcEENS_9allocatorIcEEEEEELi1ELb1EEC2B8ne180100ENS_18__default_init_tagE, symObjAddr: 0x3A08, symBinAddr: 0x10001095C, symSize: 0x14 }
  - { offset: 0x3D10B, size: 0x8, addend: 0x0, symName: __ZNSt3__112__hash_tableINS_12basic_stringIcNS_11char_traitsIcEENS_9allocatorIcEEEENS_4hashIS6_EENS_8equal_toIS6_EENS4_IS6_EEE15__insert_uniqueB8ne180100ERKS6_, symObjAddr: 0x3A1C, symBinAddr: 0x100010970, symSize: 0x50 }
  - { offset: 0x3D13E, size: 0x8, addend: 0x0, symName: __ZNSt3__112__hash_tableINS_12basic_stringIcNS_11char_traitsIcEENS_9allocatorIcEEEENS_4hashIS6_EENS_8equal_toIS6_EENS4_IS6_EEE25__emplace_unique_key_argsIS6_JRKS6_EEENS_4pairINS_15__hash_iteratorIPNS_11__hash_nodeIS6_PvEEEEbEERKT_DpOT0_, symObjAddr: 0x3A6C, symBinAddr: 0x1000109C0, symSize: 0x4D8 }
  - { offset: 0x3D21C, size: 0x8, addend: 0x0, symName: __ZNSt3__122__hash_key_value_typesINS_12basic_stringIcNS_11char_traitsIcEENS_9allocatorIcEEEEE9__get_keyB8ne180100ERKS6_, symObjAddr: 0x3F44, symBinAddr: 0x100010E98, symSize: 0x14 }
  - { offset: 0x3D23E, size: 0x8, addend: 0x0, symName: __ZNSt3__112__hash_tableINS_12basic_stringIcNS_11char_traitsIcEENS_9allocatorIcEEEENS_4hashIS6_EENS_8equal_toIS6_EENS4_IS6_EEE13hash_functionB8ne180100Ev, symObjAddr: 0x3F58, symBinAddr: 0x100010EAC, symSize: 0x28 }
  - { offset: 0x3D262, size: 0x8, addend: 0x0, symName: __ZNKSt3__113__string_hashIcNS_9allocatorIcEEEclB8ne180100ERKNS_12basic_stringIcNS_11char_traitsIcEES2_EE, symObjAddr: 0x3F80, symBinAddr: 0x100010ED4, symSize: 0x64 }
  - { offset: 0x3D295, size: 0x8, addend: 0x0, symName: __ZNKSt3__112__hash_tableINS_12basic_stringIcNS_11char_traitsIcEENS_9allocatorIcEEEENS_4hashIS6_EENS_8equal_toIS6_EENS4_IS6_EEE12bucket_countB8ne180100Ev, symObjAddr: 0x3FE4, symBinAddr: 0x100010F38, symSize: 0x28 }
  - { offset: 0x3D2B9, size: 0x8, addend: 0x0, symName: __ZNKSt3__110unique_ptrIA_PNS_16__hash_node_baseIPNS_11__hash_nodeINS_12basic_stringIcNS_11char_traitsIcEENS_9allocatorIcEEEEPvEEEENS_25__bucket_list_deallocatorINS6_ISD_EEEEEixB8ne180100Em, symObjAddr: 0x40A4, symBinAddr: 0x100010F60, symSize: 0x34 }
  - { offset: 0x3D2EC, size: 0x8, addend: 0x0, symName: __ZNKSt3__116__hash_node_baseIPNS_11__hash_nodeINS_12basic_stringIcNS_11char_traitsIcEENS_9allocatorIcEEEEPvEEE6__hashB8ne180100Ev, symObjAddr: 0x40D8, symBinAddr: 0x100010F94, symSize: 0x18 }
  - { offset: 0x3D310, size: 0x8, addend: 0x0, symName: __ZNSt3__112__hash_tableINS_12basic_stringIcNS_11char_traitsIcEENS_9allocatorIcEEEENS_4hashIS6_EENS_8equal_toIS6_EENS4_IS6_EEE6key_eqB8ne180100Ev, symObjAddr: 0x40F0, symBinAddr: 0x100010FAC, symSize: 0x28 }
  - { offset: 0x3D334, size: 0x8, addend: 0x0, symName: __ZNKSt3__18equal_toINS_12basic_stringIcNS_11char_traitsIcEENS_9allocatorIcEEEEEclB8ne180100ERKS6_S9_, symObjAddr: 0x4118, symBinAddr: 0x100010FD4, symSize: 0x34 }
  - { offset: 0x3D376, size: 0x8, addend: 0x0, symName: __ZNSt3__112__hash_tableINS_12basic_stringIcNS_11char_traitsIcEENS_9allocatorIcEEEENS_4hashIS6_EENS_8equal_toIS6_EENS4_IS6_EEE21__construct_node_hashIRKS6_JEEENS_10unique_ptrINS_11__hash_nodeIS6_PvEENS_22__hash_node_destructorINS4_ISJ_EEEEEEmOT_DpOT0_, symObjAddr: 0x4188, symBinAddr: 0x100011008, symSize: 0x13C }
  - { offset: 0x3D3E7, size: 0x8, addend: 0x0, symName: __ZNSt3__112__hash_tableINS_12basic_stringIcNS_11char_traitsIcEENS_9allocatorIcEEEENS_4hashIS6_EENS_8equal_toIS6_EENS4_IS6_EEE4sizeB8ne180100Ev, symObjAddr: 0x42C4, symBinAddr: 0x100011144, symSize: 0x28 }
  - { offset: 0x3D40B, size: 0x8, addend: 0x0, symName: __ZNSt3__112__hash_tableINS_12basic_stringIcNS_11char_traitsIcEENS_9allocatorIcEEEENS_4hashIS6_EENS_8equal_toIS6_EENS4_IS6_EEE15max_load_factorB8ne180100Ev, symObjAddr: 0x42EC, symBinAddr: 0x10001116C, symSize: 0x28 }
  - { offset: 0x3D42F, size: 0x8, addend: 0x0, symName: __ZNSt3__112__hash_tableINS_12basic_stringIcNS_11char_traitsIcEENS_9allocatorIcEEEENS_4hashIS6_EENS_8equal_toIS6_EENS4_IS6_EEE15__rehash_uniqueB8ne180100Em, symObjAddr: 0x4314, symBinAddr: 0x100011194, symSize: 0x2C }
  - { offset: 0x3D462, size: 0x8, addend: 0x0, symName: __ZNSt3__116__hash_node_baseIPNS_11__hash_nodeINS_12basic_stringIcNS_11char_traitsIcEENS_9allocatorIcEEEEPvEEE5__ptrB8ne180100Ev, symObjAddr: 0x43F8, symBinAddr: 0x1000111C0, symSize: 0x24 }
  - { offset: 0x3D486, size: 0x8, addend: 0x0, symName: __ZNKSt3__110unique_ptrINS_11__hash_nodeINS_12basic_stringIcNS_11char_traitsIcEENS_9allocatorIcEEEEPvEENS_22__hash_node_destructorINS5_IS9_EEEEEptB8ne180100Ev, symObjAddr: 0x441C, symBinAddr: 0x1000111E4, symSize: 0x28 }
  - { offset: 0x3D4AA, size: 0x8, addend: 0x0, symName: __ZNKSt3__110unique_ptrINS_11__hash_nodeINS_12basic_stringIcNS_11char_traitsIcEENS_9allocatorIcEEEEPvEENS_22__hash_node_destructorINS5_IS9_EEEEE3getB8ne180100Ev, symObjAddr: 0x4444, symBinAddr: 0x10001120C, symSize: 0x28 }
  - { offset: 0x3D4CE, size: 0x8, addend: 0x0, symName: __ZNSt3__110unique_ptrINS_11__hash_nodeINS_12basic_stringIcNS_11char_traitsIcEENS_9allocatorIcEEEEPvEENS_22__hash_node_destructorINS5_IS9_EEEEE7releaseB8ne180100Ev, symObjAddr: 0x446C, symBinAddr: 0x100011234, symSize: 0x44 }
  - { offset: 0x3D501, size: 0x8, addend: 0x0, symName: __ZNSt3__110unique_ptrINS_11__hash_nodeINS_12basic_stringIcNS_11char_traitsIcEENS_9allocatorIcEEEEPvEENS_22__hash_node_destructorINS5_IS9_EEEEED1B8ne180100Ev, symObjAddr: 0x44B0, symBinAddr: 0x100011278, symSize: 0x2C }
  - { offset: 0x3D529, size: 0x8, addend: 0x0, symName: __ZNSt3__115__hash_iteratorIPNS_11__hash_nodeINS_12basic_stringIcNS_11char_traitsIcEENS_9allocatorIcEEEEPvEEEC1B8ne180100EPNS_16__hash_node_baseISA_EE, symObjAddr: 0x44DC, symBinAddr: 0x1000112A4, symSize: 0x34 }
  - { offset: 0x3D565, size: 0x8, addend: 0x0, symName: __ZNSt3__14pairINS_15__hash_iteratorIPNS_11__hash_nodeINS_12basic_stringIcNS_11char_traitsIcEENS_9allocatorIcEEEEPvEEEEbEC1B8ne180100ISC_RbLi0EEEOT_OT0_, symObjAddr: 0x4510, symBinAddr: 0x1000112D8, symSize: 0x3C }
  - { offset: 0x3D5C1, size: 0x8, addend: 0x0, symName: __ZNSt3__117__compressed_pairImNS_4hashINS_12basic_stringIcNS_11char_traitsIcEENS_9allocatorIcEEEEEEE6secondB8ne180100Ev, symObjAddr: 0x454C, symBinAddr: 0x100011314, symSize: 0x24 }
  - { offset: 0x3D5E5, size: 0x8, addend: 0x0, symName: __ZNSt3__122__compressed_pair_elemINS_4hashINS_12basic_stringIcNS_11char_traitsIcEENS_9allocatorIcEEEEEELi1ELb1EE5__getB8ne180100Ev, symObjAddr: 0x4570, symBinAddr: 0x100011338, symSize: 0x14 }
  - { offset: 0x3D609, size: 0x8, addend: 0x0, symName: __ZNKSt3__121__murmur2_or_cityhashImLm64EEclB8ne180100EPKvm, symObjAddr: 0x45E8, symBinAddr: 0x100011388, symSize: 0x410 }
  - { offset: 0x3D6A1, size: 0x8, addend: 0x0, symName: __ZNSt3__121__murmur2_or_cityhashImLm64EE18__hash_len_0_to_16B8ne180100EPKcm, symObjAddr: 0x49F8, symBinAddr: 0x100011798, symSize: 0x1C8 }
  - { offset: 0x3D779, size: 0x8, addend: 0x0, symName: __ZNSt3__121__murmur2_or_cityhashImLm64EE19__hash_len_17_to_32B8ne180100EPKcm, symObjAddr: 0x4BC0, symBinAddr: 0x100011960, symSize: 0x130 }
  - { offset: 0x3D7E1, size: 0x8, addend: 0x0, symName: __ZNSt3__121__murmur2_or_cityhashImLm64EE19__hash_len_33_to_64B8ne180100EPKcm, symObjAddr: 0x4CF0, symBinAddr: 0x100011A90, symSize: 0x2B8 }
  - { offset: 0x3D892, size: 0x8, addend: 0x0, symName: __ZNSt3__121__murmur2_or_cityhashImLm64EE13__hash_len_16B8ne180100Emm, symObjAddr: 0x4FC8, symBinAddr: 0x100011D68, symSize: 0x80 }
  - { offset: 0x3D8EC, size: 0x8, addend: 0x0, symName: __ZNSt3__121__murmur2_or_cityhashImLm64EE29__weak_hash_len_32_with_seedsB8ne180100EPKcmm, symObjAddr: 0x5048, symBinAddr: 0x100011DE8, symSize: 0x88 }
  - { offset: 0x3D92A, size: 0x8, addend: 0x0, symName: __ZNSt3__121__murmur2_or_cityhashImLm64EE8__rotateB8ne180100Emi, symObjAddr: 0x50D0, symBinAddr: 0x100011E70, symSize: 0x64 }
  - { offset: 0x3D95A, size: 0x8, addend: 0x0, symName: __ZNSt3__14pairImmEaSB8ne180100EOS1_, symObjAddr: 0x5134, symBinAddr: 0x100011ED4, symSize: 0x30 }
  - { offset: 0x3D98D, size: 0x8, addend: 0x0, symName: __ZNSt3__121__murmur2_or_cityhashImLm64EE11__shift_mixB8ne180100Em, symObjAddr: 0x51A0, symBinAddr: 0x100011F40, symSize: 0x1C }
  - { offset: 0x3D9AF, size: 0x8, addend: 0x0, symName: __ZNSt3__121__murmur2_or_cityhashImLm64EE22__rotate_by_at_least_1B8ne180100Emi, symObjAddr: 0x51BC, symBinAddr: 0x100011F5C, symSize: 0x38 }
  - { offset: 0x3D9DF, size: 0x8, addend: 0x0, symName: __ZNSt3__121__murmur2_or_cityhashImLm64EE29__weak_hash_len_32_with_seedsB8ne180100Emmmmmm, symObjAddr: 0x5214, symBinAddr: 0x100011FB4, symSize: 0xD8 }
  - { offset: 0x3DA5A, size: 0x8, addend: 0x0, symName: __ZNSt3__14pairImmEC1B8ne180100ImmLi0EEEOT_OT0_, symObjAddr: 0x52EC, symBinAddr: 0x10001208C, symSize: 0x3C }
  - { offset: 0x3DAB6, size: 0x8, addend: 0x0, symName: __ZNSt3__14pairImmEC2B8ne180100ImmLi0EEEOT_OT0_, symObjAddr: 0x5328, symBinAddr: 0x1000120C8, symSize: 0x34 }
  - { offset: 0x3DB12, size: 0x8, addend: 0x0, symName: __ZNKSt3__110unique_ptrIA_PNS_16__hash_node_baseIPNS_11__hash_nodeINS_12basic_stringIcNS_11char_traitsIcEENS_9allocatorIcEEEEPvEEEENS_25__bucket_list_deallocatorINS6_ISD_EEEEE11get_deleterB8ne180100Ev, symObjAddr: 0x5428, symBinAddr: 0x1000120FC, symSize: 0x24 }
  - { offset: 0x3DB36, size: 0x8, addend: 0x0, symName: __ZNKSt3__125__bucket_list_deallocatorINS_9allocatorIPNS_16__hash_node_baseIPNS_11__hash_nodeINS_12basic_stringIcNS_11char_traitsIcEENS1_IcEEEEPvEEEEEEE4sizeB8ne180100Ev, symObjAddr: 0x544C, symBinAddr: 0x100012120, symSize: 0x28 }
  - { offset: 0x3DB5A, size: 0x8, addend: 0x0, symName: __ZNKSt3__117__compressed_pairIPPNS_16__hash_node_baseIPNS_11__hash_nodeINS_12basic_stringIcNS_11char_traitsIcEENS_9allocatorIcEEEEPvEEEENS_25__bucket_list_deallocatorINS6_ISD_EEEEE6secondB8ne180100Ev, symObjAddr: 0x5474, symBinAddr: 0x100012148, symSize: 0x28 }
  - { offset: 0x3DB7E, size: 0x8, addend: 0x0, symName: __ZNKSt3__122__compressed_pair_elemINS_25__bucket_list_deallocatorINS_9allocatorIPNS_16__hash_node_baseIPNS_11__hash_nodeINS_12basic_stringIcNS_11char_traitsIcEENS2_IcEEEEPvEEEEEEEELi1ELb0EE5__getB8ne180100Ev, symObjAddr: 0x549C, symBinAddr: 0x100012170, symSize: 0x14 }
  - { offset: 0x3DBA2, size: 0x8, addend: 0x0, symName: __ZNKSt3__117__compressed_pairImNS_9allocatorIPNS_16__hash_node_baseIPNS_11__hash_nodeINS_12basic_stringIcNS_11char_traitsIcEENS1_IcEEEEPvEEEEEEE5firstB8ne180100Ev, symObjAddr: 0x54B0, symBinAddr: 0x100012184, symSize: 0x24 }
  - { offset: 0x3DBC6, size: 0x8, addend: 0x0, symName: __ZNKSt3__117__compressed_pairIPPNS_16__hash_node_baseIPNS_11__hash_nodeINS_12basic_stringIcNS_11char_traitsIcEENS_9allocatorIcEEEEPvEEEENS_25__bucket_list_deallocatorINS6_ISD_EEEEE5firstB8ne180100Ev, symObjAddr: 0x54E8, symBinAddr: 0x1000121A8, symSize: 0x24 }
  - { offset: 0x3DBEA, size: 0x8, addend: 0x0, symName: __ZNKSt3__122__compressed_pair_elemIPPNS_16__hash_node_baseIPNS_11__hash_nodeINS_12basic_stringIcNS_11char_traitsIcEENS_9allocatorIcEEEEPvEEEELi0ELb0EE5__getB8ne180100Ev, symObjAddr: 0x550C, symBinAddr: 0x1000121CC, symSize: 0x14 }
  - { offset: 0x3DC0E, size: 0x8, addend: 0x0, symName: __ZNSt3__117__compressed_pairIfNS_8equal_toINS_12basic_stringIcNS_11char_traitsIcEENS_9allocatorIcEEEEEEE6secondB8ne180100Ev, symObjAddr: 0x5520, symBinAddr: 0x1000121E0, symSize: 0x24 }
  - { offset: 0x3DC32, size: 0x8, addend: 0x0, symName: __ZNSt3__122__compressed_pair_elemINS_8equal_toINS_12basic_stringIcNS_11char_traitsIcEENS_9allocatorIcEEEEEELi1ELb1EE5__getB8ne180100Ev, symObjAddr: 0x5544, symBinAddr: 0x100012204, symSize: 0x14 }
  - { offset: 0x3DC56, size: 0x8, addend: 0x0, symName: __ZNSt3__111char_traitsIcE7compareB8ne180100EPKcS3_m, symObjAddr: 0x56A0, symBinAddr: 0x100012360, symSize: 0x34 }
  - { offset: 0x3DC94, size: 0x8, addend: 0x0, symName: __ZNSt3__116allocator_traitsINS_9allocatorINS_11__hash_nodeINS_12basic_stringIcNS_11char_traitsIcEENS1_IcEEEEPvEEEEE8allocateB8ne180100ERSA_m, symObjAddr: 0x5710, symBinAddr: 0x100012394, symSize: 0x2C }
  - { offset: 0x3DCC6, size: 0x8, addend: 0x0, symName: __ZNSt3__122__hash_node_destructorINS_9allocatorINS_11__hash_nodeINS_12basic_stringIcNS_11char_traitsIcEENS1_IcEEEEPvEEEEEC1B8ne180100ERSA_b, symObjAddr: 0x573C, symBinAddr: 0x1000123C0, symSize: 0x48 }
  - { offset: 0x3DD11, size: 0x8, addend: 0x0, symName: __ZNSt3__110unique_ptrINS_11__hash_nodeINS_12basic_stringIcNS_11char_traitsIcEENS_9allocatorIcEEEEPvEENS_22__hash_node_destructorINS5_IS9_EEEEEC1B8ne180100ILb1EvEEPS9_NS_16__dependent_typeINS_27__unique_ptr_deleter_sfinaeISC_EEXT_EE20__good_rval_ref_typeE, symObjAddr: 0x5784, symBinAddr: 0x100012408, symSize: 0x3C }
  - { offset: 0x3DD60, size: 0x8, addend: 0x0, symName: __ZNKSt3__110unique_ptrINS_11__hash_nodeINS_12basic_stringIcNS_11char_traitsIcEENS_9allocatorIcEEEEPvEENS_22__hash_node_destructorINS5_IS9_EEEEEdeB8ne180100Ev, symObjAddr: 0x5800, symBinAddr: 0x100012484, symSize: 0x28 }
  - { offset: 0x3DD84, size: 0x8, addend: 0x0, symName: __ZNSt3__116allocator_traitsINS_9allocatorINS_11__hash_nodeINS_12basic_stringIcNS_11char_traitsIcEENS1_IcEEEEPvEEEEE9constructB8ne180100IS7_JRKS7_EvEEvRSA_PT_DpOT0_, symObjAddr: 0x5828, symBinAddr: 0x1000124AC, symSize: 0x34 }
  - { offset: 0x3DDDA, size: 0x8, addend: 0x0, symName: __ZNSt3__110unique_ptrINS_11__hash_nodeINS_12basic_stringIcNS_11char_traitsIcEENS_9allocatorIcEEEEPvEENS_22__hash_node_destructorINS5_IS9_EEEEE11get_deleterB8ne180100Ev, symObjAddr: 0x5870, symBinAddr: 0x1000124E0, symSize: 0x24 }
  - { offset: 0x3DDFE, size: 0x8, addend: 0x0, symName: __ZNSt3__19allocatorINS_11__hash_nodeINS_12basic_stringIcNS_11char_traitsIcEENS0_IcEEEEPvEEE8allocateB8ne180100Em, symObjAddr: 0x58CC, symBinAddr: 0x100012504, symSize: 0x5C }
  - { offset: 0x3DE3A, size: 0x8, addend: 0x0, symName: __ZNSt3__116allocator_traitsINS_9allocatorINS_11__hash_nodeINS_12basic_stringIcNS_11char_traitsIcEENS1_IcEEEEPvEEEEE8max_sizeB8ne180100ISA_vEEmRKSA_, symObjAddr: 0x5928, symBinAddr: 0x100012560, symSize: 0x24 }
  - { offset: 0x3DE67, size: 0x8, addend: 0x0, symName: __ZNKSt3__19allocatorINS_11__hash_nodeINS_12basic_stringIcNS_11char_traitsIcEENS0_IcEEEEPvEEE8max_sizeB8ne180100Ev, symObjAddr: 0x59E0, symBinAddr: 0x100012584, symSize: 0x18 }
  - { offset: 0x3DE8B, size: 0x8, addend: 0x0, symName: __ZNSt3__122__hash_node_destructorINS_9allocatorINS_11__hash_nodeINS_12basic_stringIcNS_11char_traitsIcEENS1_IcEEEEPvEEEEEC2B8ne180100ERSA_b, symObjAddr: 0x5A68, symBinAddr: 0x10001259C, symSize: 0x38 }
  - { offset: 0x3DED1, size: 0x8, addend: 0x0, symName: __ZNSt3__110unique_ptrINS_11__hash_nodeINS_12basic_stringIcNS_11char_traitsIcEENS_9allocatorIcEEEEPvEENS_22__hash_node_destructorINS5_IS9_EEEEEC2B8ne180100ILb1EvEEPS9_NS_16__dependent_typeINS_27__unique_ptr_deleter_sfinaeISC_EEXT_EE20__good_rval_ref_typeE, symObjAddr: 0x5AA0, symBinAddr: 0x1000125D4, symSize: 0x48 }
  - { offset: 0x3DF20, size: 0x8, addend: 0x0, symName: __ZNSt3__117__compressed_pairIPNS_11__hash_nodeINS_12basic_stringIcNS_11char_traitsIcEENS_9allocatorIcEEEEPvEENS_22__hash_node_destructorINS5_IS9_EEEEEC1B8ne180100IRSA_SD_EEOT_OT0_, symObjAddr: 0x5AE8, symBinAddr: 0x10001261C, symSize: 0x3C }
  - { offset: 0x3DF76, size: 0x8, addend: 0x0, symName: __ZNSt3__117__compressed_pairIPNS_11__hash_nodeINS_12basic_stringIcNS_11char_traitsIcEENS_9allocatorIcEEEEPvEENS_22__hash_node_destructorINS5_IS9_EEEEEC2B8ne180100IRSA_SD_EEOT_OT0_, symObjAddr: 0x5B24, symBinAddr: 0x100012658, symSize: 0x48 }
  - { offset: 0x3DFCC, size: 0x8, addend: 0x0, symName: __ZNSt3__122__compressed_pair_elemIPNS_11__hash_nodeINS_12basic_stringIcNS_11char_traitsIcEENS_9allocatorIcEEEEPvEELi0ELb0EEC2B8ne180100IRSA_vEEOT_, symObjAddr: 0x5B6C, symBinAddr: 0x1000126A0, symSize: 0x24 }
  - { offset: 0x3E00C, size: 0x8, addend: 0x0, symName: __ZNSt3__122__compressed_pair_elemINS_22__hash_node_destructorINS_9allocatorINS_11__hash_nodeINS_12basic_stringIcNS_11char_traitsIcEENS2_IcEEEEPvEEEEEELi1ELb0EEC2B8ne180100ISC_vEEOT_, symObjAddr: 0x5B90, symBinAddr: 0x1000126C4, symSize: 0x24 }
  - { offset: 0x3E04C, size: 0x8, addend: 0x0, symName: __ZNSt3__111__hash_nodeINS_12basic_stringIcNS_11char_traitsIcEENS_9allocatorIcEEEEPvEC1B8ne180100EPNS_16__hash_node_baseIPS8_EEm, symObjAddr: 0x5BB4, symBinAddr: 0x1000126E8, symSize: 0x3C }
  - { offset: 0x3E090, size: 0x8, addend: 0x0, symName: __ZNSt3__111__hash_nodeINS_12basic_stringIcNS_11char_traitsIcEENS_9allocatorIcEEEEPvEC2B8ne180100EPNS_16__hash_node_baseIPS8_EEm, symObjAddr: 0x5BF0, symBinAddr: 0x100012724, symSize: 0x40 }
  - { offset: 0x3E0D4, size: 0x8, addend: 0x0, symName: __ZNSt3__116__hash_node_baseIPNS_11__hash_nodeINS_12basic_stringIcNS_11char_traitsIcEENS_9allocatorIcEEEEPvEEEC2B8ne180100EPSB_, symObjAddr: 0x5C30, symBinAddr: 0x100012764, symSize: 0x20 }
  - { offset: 0x3E10A, size: 0x8, addend: 0x0, symName: __ZNKSt3__117__compressed_pairIPNS_11__hash_nodeINS_12basic_stringIcNS_11char_traitsIcEENS_9allocatorIcEEEEPvEENS_22__hash_node_destructorINS5_IS9_EEEEE5firstB8ne180100Ev, symObjAddr: 0x5C50, symBinAddr: 0x100012784, symSize: 0x24 }
  - { offset: 0x3E12E, size: 0x8, addend: 0x0, symName: __ZNKSt3__122__compressed_pair_elemIPNS_11__hash_nodeINS_12basic_stringIcNS_11char_traitsIcEENS_9allocatorIcEEEEPvEELi0ELb0EE5__getB8ne180100Ev, symObjAddr: 0x5C74, symBinAddr: 0x1000127A8, symSize: 0x14 }
  - { offset: 0x3E152, size: 0x8, addend: 0x0, symName: __ZNSt3__19allocatorINS_11__hash_nodeINS_12basic_stringIcNS_11char_traitsIcEENS0_IcEEEEPvEEE9constructB8ne180100IS6_JRKS6_EEEvPT_DpOT0_, symObjAddr: 0x5C88, symBinAddr: 0x1000127BC, symSize: 0x30 }
  - { offset: 0x3E1A6, size: 0x8, addend: 0x0, symName: __ZNSt3__117__compressed_pairIPNS_11__hash_nodeINS_12basic_stringIcNS_11char_traitsIcEENS_9allocatorIcEEEEPvEENS_22__hash_node_destructorINS5_IS9_EEEEE6secondB8ne180100Ev, symObjAddr: 0x5CB8, symBinAddr: 0x1000127EC, symSize: 0x28 }
  - { offset: 0x3E1CA, size: 0x8, addend: 0x0, symName: __ZNSt3__122__compressed_pair_elemINS_22__hash_node_destructorINS_9allocatorINS_11__hash_nodeINS_12basic_stringIcNS_11char_traitsIcEENS2_IcEEEEPvEEEEEELi1ELb0EE5__getB8ne180100Ev, symObjAddr: 0x5CE0, symBinAddr: 0x100012814, symSize: 0x14 }
  - { offset: 0x3E1EE, size: 0x8, addend: 0x0, symName: __ZNSt3__117__compressed_pairImNS_4hashINS_12basic_stringIcNS_11char_traitsIcEENS_9allocatorIcEEEEEEE5firstB8ne180100Ev, symObjAddr: 0x5CF4, symBinAddr: 0x100012828, symSize: 0x24 }
  - { offset: 0x3E212, size: 0x8, addend: 0x0, symName: __ZNSt3__117__compressed_pairIfNS_8equal_toINS_12basic_stringIcNS_11char_traitsIcEENS_9allocatorIcEEEEEEE5firstB8ne180100Ev, symObjAddr: 0x5D2C, symBinAddr: 0x10001284C, symSize: 0x24 }
  - { offset: 0x3E236, size: 0x8, addend: 0x0, symName: __ZNSt3__112__hash_tableINS_12basic_stringIcNS_11char_traitsIcEENS_9allocatorIcEEEENS_4hashIS6_EENS_8equal_toIS6_EENS4_IS6_EEE8__rehashILb1EEEvm, symObjAddr: 0x5D64, symBinAddr: 0x100012870, symSize: 0x1A8 }
  - { offset: 0x3E284, size: 0x8, addend: 0x0, symName: __ZNSt3__112__hash_tableINS_12basic_stringIcNS_11char_traitsIcEENS_9allocatorIcEEEENS_4hashIS6_EENS_8equal_toIS6_EENS4_IS6_EEE11__do_rehashILb1EEEvm, symObjAddr: 0x5F0C, symBinAddr: 0x100012A18, symSize: 0x288 }
  - { offset: 0x3E365, size: 0x8, addend: 0x0, symName: __ZNSt3__110unique_ptrIA_PNS_16__hash_node_baseIPNS_11__hash_nodeINS_12basic_stringIcNS_11char_traitsIcEENS_9allocatorIcEEEEPvEEEENS_25__bucket_list_deallocatorINS6_ISD_EEEEE11get_deleterB8ne180100Ev, symObjAddr: 0x6200, symBinAddr: 0x100012CA0, symSize: 0x24 }
  - { offset: 0x3E389, size: 0x8, addend: 0x0, symName: __ZNSt3__110unique_ptrIA_PNS_16__hash_node_baseIPNS_11__hash_nodeINS_12basic_stringIcNS_11char_traitsIcEENS_9allocatorIcEEEEPvEEEENS_25__bucket_list_deallocatorINS6_ISD_EEEEE5resetB8ne180100IPSD_Li0EEEvT_, symObjAddr: 0x6248, symBinAddr: 0x100012CC4, symSize: 0x78 }
  - { offset: 0x3E3DA, size: 0x8, addend: 0x0, symName: __ZNSt3__116allocator_traitsINS_9allocatorIPNS_16__hash_node_baseIPNS_11__hash_nodeINS_12basic_stringIcNS_11char_traitsIcEENS1_IcEEEEPvEEEEEEE8allocateB8ne180100ERSE_m, symObjAddr: 0x62C0, symBinAddr: 0x100012D3C, symSize: 0x2C }
  - { offset: 0x3E40C, size: 0x8, addend: 0x0, symName: __ZNSt3__19allocatorIPNS_16__hash_node_baseIPNS_11__hash_nodeINS_12basic_stringIcNS_11char_traitsIcEENS0_IcEEEEPvEEEEE8allocateB8ne180100Em, symObjAddr: 0x6590, symBinAddr: 0x100012D68, symSize: 0x58 }
  - { offset: 0x3E448, size: 0x8, addend: 0x0, symName: __ZNSt3__116allocator_traitsINS_9allocatorIPNS_16__hash_node_baseIPNS_11__hash_nodeINS_12basic_stringIcNS_11char_traitsIcEENS1_IcEEEEPvEEEEEEE8max_sizeB8ne180100ISE_vEEmRKSE_, symObjAddr: 0x65E8, symBinAddr: 0x100012DC0, symSize: 0x24 }
  - { offset: 0x3E475, size: 0x8, addend: 0x0, symName: __ZNKSt3__19allocatorIPNS_16__hash_node_baseIPNS_11__hash_nodeINS_12basic_stringIcNS_11char_traitsIcEENS0_IcEEEEPvEEEEE8max_sizeB8ne180100Ev, symObjAddr: 0x660C, symBinAddr: 0x100012DE4, symSize: 0x14 }
  - { offset: 0x3E499, size: 0x8, addend: 0x0, symName: __ZNSt3__117__compressed_pairIPNS_11__hash_nodeINS_12basic_stringIcNS_11char_traitsIcEENS_9allocatorIcEEEEPvEENS_22__hash_node_destructorINS5_IS9_EEEEE5firstB8ne180100Ev, symObjAddr: 0x66FC, symBinAddr: 0x100012DF8, symSize: 0x24 }
  - { offset: 0x3E4BD, size: 0x8, addend: 0x0, symName: __ZNSt3__122__compressed_pair_elemIPNS_11__hash_nodeINS_12basic_stringIcNS_11char_traitsIcEENS_9allocatorIcEEEEPvEELi0ELb0EE5__getB8ne180100Ev, symObjAddr: 0x6720, symBinAddr: 0x100012E1C, symSize: 0x14 }
  - { offset: 0x3E4E1, size: 0x8, addend: 0x0, symName: __ZNSt3__110unique_ptrINS_11__hash_nodeINS_12basic_stringIcNS_11char_traitsIcEENS_9allocatorIcEEEEPvEENS_22__hash_node_destructorINS5_IS9_EEEEED2B8ne180100Ev, symObjAddr: 0x6734, symBinAddr: 0x100012E30, symSize: 0x30 }
  - { offset: 0x3E509, size: 0x8, addend: 0x0, symName: __ZNSt3__110unique_ptrINS_11__hash_nodeINS_12basic_stringIcNS_11char_traitsIcEENS_9allocatorIcEEEEPvEENS_22__hash_node_destructorINS5_IS9_EEEEE5resetB8ne180100EPS9_, symObjAddr: 0x6764, symBinAddr: 0x100012E60, symSize: 0x78 }
  - { offset: 0x3E54B, size: 0x8, addend: 0x0, symName: __ZNSt3__122__hash_node_destructorINS_9allocatorINS_11__hash_nodeINS_12basic_stringIcNS_11char_traitsIcEENS1_IcEEEEPvEEEEEclB8ne180100EPS9_, symObjAddr: 0x67DC, symBinAddr: 0x100012ED8, symSize: 0x9C }
  - { offset: 0x3E57E, size: 0x8, addend: 0x0, symName: __ZNSt3__115__hash_iteratorIPNS_11__hash_nodeINS_12basic_stringIcNS_11char_traitsIcEENS_9allocatorIcEEEEPvEEEC2B8ne180100EPNS_16__hash_node_baseISA_EE, symObjAddr: 0x69A0, symBinAddr: 0x100012F74, symSize: 0x20 }
  - { offset: 0x3E5B5, size: 0x8, addend: 0x0, symName: __ZNSt3__14pairINS_15__hash_iteratorIPNS_11__hash_nodeINS_12basic_stringIcNS_11char_traitsIcEENS_9allocatorIcEEEEPvEEEEbEC2B8ne180100ISC_RbLi0EEEOT_OT0_, symObjAddr: 0x69C0, symBinAddr: 0x100012F94, symSize: 0x38 }
  - { offset: 0x3E611, size: 0x8, addend: 0x0, symName: __ZNSt3__112basic_stringIcNS_11char_traitsIcEENS_9allocatorIcEEEC2B8ne180100ILi0EEEPKc, symObjAddr: 0x6BB0, symBinAddr: 0x100012FCC, symSize: 0x58 }
  - { offset: 0x3E68F, size: 0x8, addend: 0x0, symName: __ZNKSt3__113basic_istreamIcNS_11char_traitsIcEEE6sentrycvbB8ne180100Ev, symObjAddr: 0x787C, symBinAddr: 0x10001325C, symSize: 0x1C }
  - { offset: 0x3E6B3, size: 0x8, addend: 0x0, symName: __ZNSt3__112basic_stringIcNS_11char_traitsIcEENS_9allocatorIcEEE5clearB8ne180100Ev, symObjAddr: 0x7898, symBinAddr: 0x100013278, symSize: 0x94 }
  - { offset: 0x3E6E8, size: 0x8, addend: 0x0, symName: __ZNSt3__115basic_streambufIcNS_11char_traitsIcEEE6sbumpcB8ne180100Ev, symObjAddr: 0x792C, symBinAddr: 0x10001330C, symSize: 0x78 }
  - { offset: 0x3E70C, size: 0x8, addend: 0x0, symName: __ZNSt3__111char_traitsIcE12to_char_typeB8ne180100Ei, symObjAddr: 0x79A4, symBinAddr: 0x100013384, symSize: 0x18 }
  - { offset: 0x3E72F, size: 0x8, addend: 0x0, symName: __ZNSt3__18ios_base18__setstate_nothrowB8ne180100Ej, symObjAddr: 0x7A90, symBinAddr: 0x10001339C, symSize: 0x64 }
  - { offset: 0x3E762, size: 0x8, addend: 0x0, symName: __ZNKSt3__19basic_iosIcNS_11char_traitsIcEEE10exceptionsB8ne180100Ev, symObjAddr: 0x7AF4, symBinAddr: 0x100013400, symSize: 0x24 }
  - { offset: 0x3E786, size: 0x8, addend: 0x0, symName: __ZNKSt3__112basic_stringIcNS_11char_traitsIcEENS_9allocatorIcEEE17__annotate_shrinkB8ne180100Em, symObjAddr: 0x7BEC, symBinAddr: 0x100013424, symSize: 0x14 }
  - { offset: 0x3E7B9, size: 0x8, addend: 0x0, symName: __ZNSt3__111char_traitsIcE11to_int_typeB8ne180100Ec, symObjAddr: 0x7C00, symBinAddr: 0x100013438, symSize: 0x14 }
  - { offset: 0x3E7DD, size: 0x8, addend: 0x0, symName: __ZNKSt3__18ios_base10exceptionsB8ne180100Ev, symObjAddr: 0x7CC4, symBinAddr: 0x10001344C, symSize: 0x18 }
  - { offset: 0x3E803, size: 0x8, addend: 0x0, symName: __ZNSt3__16vectorINS_12basic_stringIcNS_11char_traitsIcEENS_9allocatorIcEEEENS4_IS6_EEEC2B8ne180100Ev, symObjAddr: 0x7CDC, symBinAddr: 0x100013464, symSize: 0x4C }
  - { offset: 0x3E830, size: 0x8, addend: 0x0, symName: __ZNSt3__117__compressed_pairIPNS_12basic_stringIcNS_11char_traitsIcEENS_9allocatorIcEEEENS4_IS6_EEEC1B8ne180100IDnNS_18__default_init_tagEEEOT_OT0_, symObjAddr: 0x7D28, symBinAddr: 0x1000134B0, symSize: 0x3C }
  - { offset: 0x3E886, size: 0x8, addend: 0x0, symName: __ZNSt3__117__compressed_pairIPNS_12basic_stringIcNS_11char_traitsIcEENS_9allocatorIcEEEENS4_IS6_EEEC2B8ne180100IDnNS_18__default_init_tagEEEOT_OT0_, symObjAddr: 0x7D64, symBinAddr: 0x1000134EC, symSize: 0x40 }
  - { offset: 0x3E8DC, size: 0x8, addend: 0x0, symName: __ZNSt3__122__compressed_pair_elemIPNS_12basic_stringIcNS_11char_traitsIcEENS_9allocatorIcEEEELi0ELb0EEC2B8ne180100IDnvEEOT_, symObjAddr: 0x7DA4, symBinAddr: 0x10001352C, symSize: 0x1C }
  - { offset: 0x3E91C, size: 0x8, addend: 0x0, symName: __ZNSt3__122__compressed_pair_elemINS_9allocatorINS_12basic_stringIcNS_11char_traitsIcEENS1_IcEEEEEELi1ELb1EEC2B8ne180100ENS_18__default_init_tagE, symObjAddr: 0x7DC0, symBinAddr: 0x100013548, symSize: 0x2C }
  - { offset: 0x3E94E, size: 0x8, addend: 0x0, symName: __ZNSt3__19allocatorINS_12basic_stringIcNS_11char_traitsIcEENS0_IcEEEEEC2B8ne180100Ev, symObjAddr: 0x7DEC, symBinAddr: 0x100013574, symSize: 0x2C }
  - { offset: 0x3E976, size: 0x8, addend: 0x0, symName: __ZNSt3__116__non_trivial_ifILb1ENS_9allocatorINS_12basic_stringIcNS_11char_traitsIcEENS1_IcEEEEEEEC2B8ne180100Ev, symObjAddr: 0x7E18, symBinAddr: 0x1000135A0, symSize: 0x14 }
  - { offset: 0x3E99E, size: 0x8, addend: 0x0, symName: __ZNSt3__16vectorINS_12basic_stringIcNS_11char_traitsIcEENS_9allocatorIcEEEENS4_IS6_EEED2B8ne180100Ev, symObjAddr: 0x7E2C, symBinAddr: 0x1000135B4, symSize: 0x44 }
  - { offset: 0x3E9C6, size: 0x8, addend: 0x0, symName: __ZNSt3__16vectorINS_12basic_stringIcNS_11char_traitsIcEENS_9allocatorIcEEEENS4_IS6_EEE16__destroy_vectorC1B8ne180100ERS8_, symObjAddr: 0x7E70, symBinAddr: 0x1000135F8, symSize: 0x34 }
  - { offset: 0x3E9FD, size: 0x8, addend: 0x0, symName: __ZNSt3__16vectorINS_12basic_stringIcNS_11char_traitsIcEENS_9allocatorIcEEEENS4_IS6_EEE16__destroy_vectorclB8ne180100Ev, symObjAddr: 0x7EA4, symBinAddr: 0x10001362C, symSize: 0x90 }
  - { offset: 0x3EA21, size: 0x8, addend: 0x0, symName: __ZNSt3__16vectorINS_12basic_stringIcNS_11char_traitsIcEENS_9allocatorIcEEEENS4_IS6_EEE16__destroy_vectorC2B8ne180100ERS8_, symObjAddr: 0x7F34, symBinAddr: 0x1000136BC, symSize: 0x20 }
  - { offset: 0x3EA58, size: 0x8, addend: 0x0, symName: __ZNSt3__16vectorINS_12basic_stringIcNS_11char_traitsIcEENS_9allocatorIcEEEENS4_IS6_EEE7__clearB8ne180100Ev, symObjAddr: 0x7F54, symBinAddr: 0x1000136DC, symSize: 0x28 }
  - { offset: 0x3EA7C, size: 0x8, addend: 0x0, symName: __ZNKSt3__16vectorINS_12basic_stringIcNS_11char_traitsIcEENS_9allocatorIcEEEENS4_IS6_EEE17__annotate_deleteB8ne180100Ev, symObjAddr: 0x7F7C, symBinAddr: 0x100013704, symSize: 0x10 }
  - { offset: 0x3EAA0, size: 0x8, addend: 0x0, symName: __ZNSt3__116allocator_traitsINS_9allocatorINS_12basic_stringIcNS_11char_traitsIcEENS1_IcEEEEEEE10deallocateB8ne180100ERS7_PS6_m, symObjAddr: 0x7F8C, symBinAddr: 0x100013714, symSize: 0x34 }
  - { offset: 0x3EAE1, size: 0x8, addend: 0x0, symName: __ZNSt3__16vectorINS_12basic_stringIcNS_11char_traitsIcEENS_9allocatorIcEEEENS4_IS6_EEE7__allocB8ne180100Ev, symObjAddr: 0x7FC0, symBinAddr: 0x100013748, symSize: 0x28 }
  - { offset: 0x3EB05, size: 0x8, addend: 0x0, symName: __ZNKSt3__16vectorINS_12basic_stringIcNS_11char_traitsIcEENS_9allocatorIcEEEENS4_IS6_EEE8capacityB8ne180100Ev, symObjAddr: 0x7FE8, symBinAddr: 0x100013770, symSize: 0x40 }
  - { offset: 0x3EB29, size: 0x8, addend: 0x0, symName: __ZNSt3__16vectorINS_12basic_stringIcNS_11char_traitsIcEENS_9allocatorIcEEEENS4_IS6_EEE22__base_destruct_at_endB8ne180100EPS6_, symObjAddr: 0x8028, symBinAddr: 0x1000137B0, symSize: 0x8C }
  - { offset: 0x3EB6B, size: 0x8, addend: 0x0, symName: __ZNSt3__116allocator_traitsINS_9allocatorINS_12basic_stringIcNS_11char_traitsIcEENS1_IcEEEEEEE7destroyB8ne180100IS6_vEEvRS7_PT_, symObjAddr: 0x80B4, symBinAddr: 0x10001383C, symSize: 0x2C }
  - { offset: 0x3EBA7, size: 0x8, addend: 0x0, symName: __ZNSt3__19allocatorINS_12basic_stringIcNS_11char_traitsIcEENS0_IcEEEEE7destroyB8ne180100EPS5_, symObjAddr: 0x80F4, symBinAddr: 0x10001387C, symSize: 0x28 }
  - { offset: 0x3EBD9, size: 0x8, addend: 0x0, symName: __ZNSt3__19allocatorINS_12basic_stringIcNS_11char_traitsIcEENS0_IcEEEEE10deallocateB8ne180100EPS5_m, symObjAddr: 0x811C, symBinAddr: 0x1000138A4, symSize: 0x44 }
  - { offset: 0x3EC19, size: 0x8, addend: 0x0, symName: __ZNSt3__117__compressed_pairIPNS_12basic_stringIcNS_11char_traitsIcEENS_9allocatorIcEEEENS4_IS6_EEE6secondB8ne180100Ev, symObjAddr: 0x8160, symBinAddr: 0x1000138E8, symSize: 0x24 }
  - { offset: 0x3EC3D, size: 0x8, addend: 0x0, symName: __ZNSt3__122__compressed_pair_elemINS_9allocatorINS_12basic_stringIcNS_11char_traitsIcEENS1_IcEEEEEELi1ELb1EE5__getB8ne180100Ev, symObjAddr: 0x8184, symBinAddr: 0x10001390C, symSize: 0x14 }
  - { offset: 0x3EC61, size: 0x8, addend: 0x0, symName: __ZNKSt3__16vectorINS_12basic_stringIcNS_11char_traitsIcEENS_9allocatorIcEEEENS4_IS6_EEE9__end_capB8ne180100Ev, symObjAddr: 0x8198, symBinAddr: 0x100013920, symSize: 0x28 }
  - { offset: 0x3EC85, size: 0x8, addend: 0x0, symName: __ZNKSt3__117__compressed_pairIPNS_12basic_stringIcNS_11char_traitsIcEENS_9allocatorIcEEEENS4_IS6_EEE5firstB8ne180100Ev, symObjAddr: 0x81C0, symBinAddr: 0x100013948, symSize: 0x24 }
  - { offset: 0x3ECA9, size: 0x8, addend: 0x0, symName: __ZNKSt3__122__compressed_pair_elemIPNS_12basic_stringIcNS_11char_traitsIcEENS_9allocatorIcEEEELi0ELb0EE5__getB8ne180100Ev, symObjAddr: 0x81E4, symBinAddr: 0x10001396C, symSize: 0x14 }
  - { offset: 0x3ECCD, size: 0x8, addend: 0x0, symName: __ZNSt3__19basic_iosIcNS_11char_traitsIcEEEC2B8ne180100Ev, symObjAddr: 0x81F8, symBinAddr: 0x100013980, symSize: 0x3C }
  - { offset: 0x3ECF5, size: 0x8, addend: 0x0, symName: __ZNSt3__114basic_iostreamIcNS_11char_traitsIcEEEC2B8ne180100EPNS_15basic_streambufIcS2_EE, symObjAddr: 0x8234, symBinAddr: 0x1000139BC, symSize: 0xAC }
  - { offset: 0x3ED38, size: 0x8, addend: 0x0, symName: __ZNSt3__115basic_stringbufIcNS_11char_traitsIcEENS_9allocatorIcEEEC1B8ne180100ERKNS_12basic_stringIcS2_S4_EEj, symObjAddr: 0x82E0, symBinAddr: 0x100013A68, symSize: 0x3C }
  - { offset: 0x3ED7E, size: 0x8, addend: 0x0, symName: __ZNSt3__18ios_baseC2B8ne180100Ev, symObjAddr: 0x831C, symBinAddr: 0x100013AA4, symSize: 0x24 }
  - { offset: 0x3EDA6, size: 0x8, addend: 0x0, symName: __ZNSt3__113basic_istreamIcNS_11char_traitsIcEEEC2B8ne180100EPNS_15basic_streambufIcS2_EE, symObjAddr: 0x8340, symBinAddr: 0x100013AC8, symSize: 0x64 }
  - { offset: 0x3EDE8, size: 0x8, addend: 0x0, symName: __ZNSt3__113basic_ostreamIcNS_11char_traitsIcEEEC2B8ne180100Ev, symObjAddr: 0x83A4, symBinAddr: 0x100013B2C, symSize: 0x34 }
  - { offset: 0x3EE1C, size: 0x8, addend: 0x0, symName: __ZNSt3__19basic_iosIcNS_11char_traitsIcEEE4initB8ne180100EPNS_15basic_streambufIcS2_EE, symObjAddr: 0x83D8, symBinAddr: 0x100013B60, symSize: 0x44 }
  - { offset: 0x3EE51, size: 0x8, addend: 0x0, symName: __ZNSt3__115basic_stringbufIcNS_11char_traitsIcEENS_9allocatorIcEEEC2B8ne180100ERKNS_12basic_stringIcS2_S4_EEj, symObjAddr: 0x841C, symBinAddr: 0x100013BA4, symSize: 0xA8 }
  - { offset: 0x3EE97, size: 0x8, addend: 0x0, symName: __ZNKSt3__112basic_stringIcNS_11char_traitsIcEENS_9allocatorIcEEE13get_allocatorB8ne180100Ev, symObjAddr: 0x84C4, symBinAddr: 0x100013C4C, symSize: 0x24 }
  - { offset: 0x3EEBB, size: 0x8, addend: 0x0, symName: __ZNSt3__112basic_stringIcNS_11char_traitsIcEENS_9allocatorIcEEEC1B8ne180100ERKS4_, symObjAddr: 0x84E8, symBinAddr: 0x100013C70, symSize: 0x34 }
  - { offset: 0x3EEF2, size: 0x8, addend: 0x0, symName: __ZNSt3__112basic_stringIcNS_11char_traitsIcEENS_9allocatorIcEEEC2B8ne180100ERKS4_, symObjAddr: 0x851C, symBinAddr: 0x100013CA4, symSize: 0x4C }
  - { offset: 0x3EF29, size: 0x8, addend: 0x0, symName: __ZNSt3__117__compressed_pairINS_12basic_stringIcNS_11char_traitsIcEENS_9allocatorIcEEE5__repES5_EC1B8ne180100INS_16__value_init_tagERKS5_EEOT_OT0_, symObjAddr: 0x8568, symBinAddr: 0x100013CF0, symSize: 0x3C }
  - { offset: 0x3EF7F, size: 0x8, addend: 0x0, symName: __ZNSt3__117__compressed_pairINS_12basic_stringIcNS_11char_traitsIcEENS_9allocatorIcEEE5__repES5_EC2B8ne180100INS_16__value_init_tagERKS5_EEOT_OT0_, symObjAddr: 0x85A4, symBinAddr: 0x100013D2C, symSize: 0x40 }
  - { offset: 0x3EFD5, size: 0x8, addend: 0x0, symName: __ZNSt3__115basic_streambufIcNS_11char_traitsIcEEE5sgetcB8ne180100Ev, symObjAddr: 0x8610, symBinAddr: 0x100013D6C, symSize: 0x70 }
  - { offset: 0x3EFF9, size: 0x8, addend: 0x0, symName: __ZNKSt3__15ctypeIcE2isB8ne180100Ejc, symObjAddr: 0x8680, symBinAddr: 0x100013DDC, symSize: 0x7C }
  - { offset: 0x3F03B, size: 0x8, addend: 0x0, symName: __ZNKSt3__19basic_iosIcNS_11char_traitsIcEEE4failB8ne180100Ev, symObjAddr: 0x8704, symBinAddr: 0x100013E58, symSize: 0x28 }
  - { offset: 0x3F060, size: 0x8, addend: 0x0, symName: __ZNKSt3__18ios_base4failB8ne180100Ev, symObjAddr: 0x872C, symBinAddr: 0x100013E80, symSize: 0x28 }
  - { offset: 0x3F086, size: 0x8, addend: 0x0, symName: __ZNSt3__16vectorINS_12basic_stringIcNS_11char_traitsIcEENS_9allocatorIcEEEENS4_IS6_EEE9__end_capB8ne180100Ev, symObjAddr: 0x8754, symBinAddr: 0x100013EA8, symSize: 0x28 }
  - { offset: 0x3F0AA, size: 0x8, addend: 0x0, symName: __ZNSt3__16vectorINS_12basic_stringIcNS_11char_traitsIcEENS_9allocatorIcEEEENS4_IS6_EEE22__construct_one_at_endB8ne180100IJRKS6_EEEvDpOT_, symObjAddr: 0x877C, symBinAddr: 0x100013ED0, symSize: 0x90 }
  - { offset: 0x3F0F7, size: 0x8, addend: 0x0, symName: __ZNSt3__16vectorINS_12basic_stringIcNS_11char_traitsIcEENS_9allocatorIcEEEENS4_IS6_EEE21__push_back_slow_pathIRKS6_EEPS6_OT_, symObjAddr: 0x880C, symBinAddr: 0x100013F60, symSize: 0xE8 }
  - { offset: 0x3F153, size: 0x8, addend: 0x0, symName: __ZNSt3__117__compressed_pairIPNS_12basic_stringIcNS_11char_traitsIcEENS_9allocatorIcEEEENS4_IS6_EEE5firstB8ne180100Ev, symObjAddr: 0x88F4, symBinAddr: 0x100014048, symSize: 0x24 }
  - { offset: 0x3F177, size: 0x8, addend: 0x0, symName: __ZNSt3__122__compressed_pair_elemIPNS_12basic_stringIcNS_11char_traitsIcEENS_9allocatorIcEEEELi0ELb0EE5__getB8ne180100Ev, symObjAddr: 0x8918, symBinAddr: 0x10001406C, symSize: 0x14 }
  - { offset: 0x3F1B4, size: 0x8, addend: 0x0, symName: __ZNSt3__16vectorINS_12basic_stringIcNS_11char_traitsIcEENS_9allocatorIcEEEENS4_IS6_EEE21_ConstructTransactionC1B8ne180100ERS8_m, symObjAddr: 0x892C, symBinAddr: 0x100014080, symSize: 0x3C }
  - { offset: 0x3F1FA, size: 0x8, addend: 0x0, symName: __ZNSt3__116allocator_traitsINS_9allocatorINS_12basic_stringIcNS_11char_traitsIcEENS1_IcEEEEEEE9constructB8ne180100IS6_JRKS6_EvEEvRS7_PT_DpOT0_, symObjAddr: 0x8968, symBinAddr: 0x1000140BC, symSize: 0x34 }
  - { offset: 0x3F250, size: 0x8, addend: 0x0, symName: __ZNSt3__16vectorINS_12basic_stringIcNS_11char_traitsIcEENS_9allocatorIcEEEENS4_IS6_EEE21_ConstructTransactionD1B8ne180100Ev, symObjAddr: 0x899C, symBinAddr: 0x1000140F0, symSize: 0x2C }
  - { offset: 0x3F278, size: 0x8, addend: 0x0, symName: __ZNSt3__16vectorINS_12basic_stringIcNS_11char_traitsIcEENS_9allocatorIcEEEENS4_IS6_EEE21_ConstructTransactionC2B8ne180100ERS8_m, symObjAddr: 0x89C8, symBinAddr: 0x10001411C, symSize: 0x4C }
  - { offset: 0x3F2BE, size: 0x8, addend: 0x0, symName: __ZNSt3__19allocatorINS_12basic_stringIcNS_11char_traitsIcEENS0_IcEEEEE9constructB8ne180100IS5_JRKS5_EEEvPT_DpOT0_, symObjAddr: 0x8A14, symBinAddr: 0x100014168, symSize: 0x30 }
  - { offset: 0x3F312, size: 0x8, addend: 0x0, symName: __ZNSt3__16vectorINS_12basic_stringIcNS_11char_traitsIcEENS_9allocatorIcEEEENS4_IS6_EEE21_ConstructTransactionD2B8ne180100Ev, symObjAddr: 0x8A44, symBinAddr: 0x100014198, symSize: 0x20 }
  - { offset: 0x3F33A, size: 0x8, addend: 0x0, symName: __ZNKSt3__16vectorINS_12basic_stringIcNS_11char_traitsIcEENS_9allocatorIcEEEENS4_IS6_EEE11__recommendB8ne180100Em, symObjAddr: 0x8A64, symBinAddr: 0x1000141B8, symSize: 0xB4 }
  - { offset: 0x3F38D, size: 0x8, addend: 0x0, symName: __ZNSt3__114__split_bufferINS_12basic_stringIcNS_11char_traitsIcEENS_9allocatorIcEEEERNS4_IS6_EEEC1EmmS8_, symObjAddr: 0x8B18, symBinAddr: 0x10001426C, symSize: 0x44 }
  - { offset: 0x3F3E1, size: 0x8, addend: 0x0, symName: __ZNSt3__114__split_bufferINS_12basic_stringIcNS_11char_traitsIcEENS_9allocatorIcEEEERNS4_IS6_EEED1Ev, symObjAddr: 0x8C6C, symBinAddr: 0x1000143C0, symSize: 0x2C }
  - { offset: 0x3F40B, size: 0x8, addend: 0x0, symName: __ZNKSt3__16vectorINS_12basic_stringIcNS_11char_traitsIcEENS_9allocatorIcEEEENS4_IS6_EEE8max_sizeEv, symObjAddr: 0x8C98, symBinAddr: 0x1000143EC, symSize: 0x60 }
  - { offset: 0x3F431, size: 0x8, addend: 0x0, symName: __ZNKSt3__16vectorINS_12basic_stringIcNS_11char_traitsIcEENS_9allocatorIcEEEENS4_IS6_EEE20__throw_length_errorB8ne180100Ev, symObjAddr: 0x8CF8, symBinAddr: 0x10001444C, symSize: 0x1C }
  - { offset: 0x3F45F, size: 0x8, addend: 0x0, symName: __ZNSt3__116allocator_traitsINS_9allocatorINS_12basic_stringIcNS_11char_traitsIcEENS1_IcEEEEEEE8max_sizeB8ne180100IS7_vEEmRKS7_, symObjAddr: 0x8D40, symBinAddr: 0x100014468, symSize: 0x24 }
  - { offset: 0x3F48C, size: 0x8, addend: 0x0, symName: __ZNKSt3__16vectorINS_12basic_stringIcNS_11char_traitsIcEENS_9allocatorIcEEEENS4_IS6_EEE7__allocB8ne180100Ev, symObjAddr: 0x8D64, symBinAddr: 0x10001448C, symSize: 0x28 }
  - { offset: 0x3F4B0, size: 0x8, addend: 0x0, symName: __ZNKSt3__19allocatorINS_12basic_stringIcNS_11char_traitsIcEENS0_IcEEEEE8max_sizeB8ne180100Ev, symObjAddr: 0x8DE0, symBinAddr: 0x1000144B4, symSize: 0x18 }
  - { offset: 0x3F4D4, size: 0x8, addend: 0x0, symName: __ZNKSt3__117__compressed_pairIPNS_12basic_stringIcNS_11char_traitsIcEENS_9allocatorIcEEEENS4_IS6_EEE6secondB8ne180100Ev, symObjAddr: 0x8DF8, symBinAddr: 0x1000144CC, symSize: 0x24 }
  - { offset: 0x3F4F8, size: 0x8, addend: 0x0, symName: __ZNKSt3__122__compressed_pair_elemINS_9allocatorINS_12basic_stringIcNS_11char_traitsIcEENS1_IcEEEEEELi1ELb1EE5__getB8ne180100Ev, symObjAddr: 0x8E1C, symBinAddr: 0x1000144F0, symSize: 0x14 }
  - { offset: 0x3F51C, size: 0x8, addend: 0x0, symName: __ZNSt3__114__split_bufferINS_12basic_stringIcNS_11char_traitsIcEENS_9allocatorIcEEEERNS4_IS6_EEEC2EmmS8_, symObjAddr: 0x8F0C, symBinAddr: 0x100014504, symSize: 0xE0 }
  - { offset: 0x3F58D, size: 0x8, addend: 0x0, symName: __ZNSt3__117__compressed_pairIPNS_12basic_stringIcNS_11char_traitsIcEENS_9allocatorIcEEEERNS4_IS6_EEEC1B8ne180100IDnS9_EEOT_OT0_, symObjAddr: 0x8FEC, symBinAddr: 0x1000145E4, symSize: 0x3C }
  - { offset: 0x3F5E3, size: 0x8, addend: 0x0, symName: __ZNSt3__114__split_bufferINS_12basic_stringIcNS_11char_traitsIcEENS_9allocatorIcEEEERNS4_IS6_EEE7__allocB8ne180100Ev, symObjAddr: 0x9068, symBinAddr: 0x100014660, symSize: 0x28 }
  - { offset: 0x3F607, size: 0x8, addend: 0x0, symName: __ZNSt3__114__split_bufferINS_12basic_stringIcNS_11char_traitsIcEENS_9allocatorIcEEEERNS4_IS6_EEE9__end_capB8ne180100Ev, symObjAddr: 0x9090, symBinAddr: 0x100014688, symSize: 0x28 }
  - { offset: 0x3F62B, size: 0x8, addend: 0x0, symName: __ZNSt3__117__compressed_pairIPNS_12basic_stringIcNS_11char_traitsIcEENS_9allocatorIcEEEERNS4_IS6_EEEC2B8ne180100IDnS9_EEOT_OT0_, symObjAddr: 0x90B8, symBinAddr: 0x1000146B0, symSize: 0x48 }
  - { offset: 0x3F681, size: 0x8, addend: 0x0, symName: __ZNSt3__122__compressed_pair_elemIRNS_9allocatorINS_12basic_stringIcNS_11char_traitsIcEENS1_IcEEEEEELi1ELb0EEC2B8ne180100IS8_vEEOT_, symObjAddr: 0x9100, symBinAddr: 0x1000146F8, symSize: 0x20 }
  - { offset: 0x3F6C1, size: 0x8, addend: 0x0, symName: __ZNSt3__19allocatorINS_12basic_stringIcNS_11char_traitsIcEENS0_IcEEEEE8allocateB8ne180100Em, symObjAddr: 0x9120, symBinAddr: 0x100014718, symSize: 0x5C }
  - { offset: 0x3F6F3, size: 0x8, addend: 0x0, symName: __ZNSt3__117__compressed_pairIPNS_12basic_stringIcNS_11char_traitsIcEENS_9allocatorIcEEEERNS4_IS6_EEE6secondB8ne180100Ev, symObjAddr: 0x917C, symBinAddr: 0x100014774, symSize: 0x28 }
  - { offset: 0x3F717, size: 0x8, addend: 0x0, symName: __ZNSt3__122__compressed_pair_elemIRNS_9allocatorINS_12basic_stringIcNS_11char_traitsIcEENS1_IcEEEEEELi1ELb0EE5__getB8ne180100Ev, symObjAddr: 0x91A4, symBinAddr: 0x10001479C, symSize: 0x18 }
  - { offset: 0x3F73B, size: 0x8, addend: 0x0, symName: __ZNSt3__117__compressed_pairIPNS_12basic_stringIcNS_11char_traitsIcEENS_9allocatorIcEEEERNS4_IS6_EEE5firstB8ne180100Ev, symObjAddr: 0x91BC, symBinAddr: 0x1000147B4, symSize: 0x24 }
  - { offset: 0x3F75F, size: 0x8, addend: 0x0, symName: __ZNSt3__116reverse_iteratorIPNS_12basic_stringIcNS_11char_traitsIcEENS_9allocatorIcEEEEEC1B8ne180100ES7_, symObjAddr: 0x930C, symBinAddr: 0x100014904, symSize: 0x34 }
  - { offset: 0x3F795, size: 0x8, addend: 0x0, symName: __ZNKSt3__116reverse_iteratorIPNS_12basic_stringIcNS_11char_traitsIcEENS_9allocatorIcEEEEE4baseB8ne180100Ev, symObjAddr: 0x9340, symBinAddr: 0x100014938, symSize: 0x18 }
  - { offset: 0x3F7B9, size: 0x8, addend: 0x0, symName: __ZNKSt3__16vectorINS_12basic_stringIcNS_11char_traitsIcEENS_9allocatorIcEEEENS4_IS6_EEE14__annotate_newB8ne180100Em, symObjAddr: 0x9394, symBinAddr: 0x10001498C, symSize: 0x14 }
  - { offset: 0x3F7EC, size: 0x8, addend: 0x0, symName: __ZNSt3__129_AllocatorDestroyRangeReverseINS_9allocatorINS_12basic_stringIcNS_11char_traitsIcEENS1_IcEEEEEENS_16reverse_iteratorIPS6_EEEC1B8ne180100ERS7_RSA_SD_, symObjAddr: 0x93F4, symBinAddr: 0x1000149EC, symSize: 0x44 }
  - { offset: 0x3F846, size: 0x8, addend: 0x0, symName: __ZNSt3__116allocator_traitsINS_9allocatorINS_12basic_stringIcNS_11char_traitsIcEENS1_IcEEEEEEE9constructB8ne180100IS6_JS6_EvEEvRS7_PT_DpOT0_, symObjAddr: 0x9480, symBinAddr: 0x100014A78, symSize: 0x34 }
  - { offset: 0x3F89C, size: 0x8, addend: 0x0, symName: __ZNKSt3__116reverse_iteratorIPNS_12basic_stringIcNS_11char_traitsIcEENS_9allocatorIcEEEEEdeB8ne180100Ev, symObjAddr: 0x94D8, symBinAddr: 0x100014AD0, symSize: 0x28 }
  - { offset: 0x3F8CE, size: 0x8, addend: 0x0, symName: __ZNSt3__116reverse_iteratorIPNS_12basic_stringIcNS_11char_traitsIcEENS_9allocatorIcEEEEEppB8ne180100Ev, symObjAddr: 0x9500, symBinAddr: 0x100014AF8, symSize: 0x20 }
  - { offset: 0x3F8F2, size: 0x8, addend: 0x0, symName: __ZNSt3__128__exception_guard_exceptionsINS_29_AllocatorDestroyRangeReverseINS_9allocatorINS_12basic_stringIcNS_11char_traitsIcEENS2_IcEEEEEENS_16reverse_iteratorIPS7_EEEEE10__completeB8ne180100Ev, symObjAddr: 0x9520, symBinAddr: 0x100014B18, symSize: 0x1C }
  - { offset: 0x3F916, size: 0x8, addend: 0x0, symName: __ZNSt3__128__exception_guard_exceptionsINS_29_AllocatorDestroyRangeReverseINS_9allocatorINS_12basic_stringIcNS_11char_traitsIcEENS2_IcEEEEEENS_16reverse_iteratorIPS7_EEEEED1B8ne180100Ev, symObjAddr: 0x953C, symBinAddr: 0x100014B34, symSize: 0x2C }
  - { offset: 0x3F93E, size: 0x8, addend: 0x0, symName: __ZNSt3__128__exception_guard_exceptionsINS_29_AllocatorDestroyRangeReverseINS_9allocatorINS_12basic_stringIcNS_11char_traitsIcEENS2_IcEEEEEENS_16reverse_iteratorIPS7_EEEEEC1B8ne180100ESC_, symObjAddr: 0x9568, symBinAddr: 0x100014B60, symSize: 0x34 }
  - { offset: 0x3F975, size: 0x8, addend: 0x0, symName: __ZNSt3__128__exception_guard_exceptionsINS_29_AllocatorDestroyRangeReverseINS_9allocatorINS_12basic_stringIcNS_11char_traitsIcEENS2_IcEEEEEENS_16reverse_iteratorIPS7_EEEEEC2B8ne180100ESC_, symObjAddr: 0x959C, symBinAddr: 0x100014B94, symSize: 0x30 }
  - { offset: 0x3F9AC, size: 0x8, addend: 0x0, symName: __ZNSt3__129_AllocatorDestroyRangeReverseINS_9allocatorINS_12basic_stringIcNS_11char_traitsIcEENS1_IcEEEEEENS_16reverse_iteratorIPS6_EEEC2B8ne180100ERS7_RSA_SD_, symObjAddr: 0x95CC, symBinAddr: 0x100014BC4, symSize: 0x38 }
  - { offset: 0x3FA01, size: 0x8, addend: 0x0, symName: __ZNSt3__19allocatorINS_12basic_stringIcNS_11char_traitsIcEENS0_IcEEEEE9constructB8ne180100IS5_JS5_EEEvPT_DpOT0_, symObjAddr: 0x9604, symBinAddr: 0x100014BFC, symSize: 0x30 }
  - { offset: 0x3FA5A, size: 0x8, addend: 0x0, symName: __ZNSt3__119__to_address_helperINS_16reverse_iteratorIPNS_12basic_stringIcNS_11char_traitsIcEENS_9allocatorIcEEEEEEvE6__callB8ne180100ERKS9_, symObjAddr: 0x9770, symBinAddr: 0x100014C2C, symSize: 0x38 }
  - { offset: 0x3FA7C, size: 0x8, addend: 0x0, symName: __ZNKSt3__116reverse_iteratorIPNS_12basic_stringIcNS_11char_traitsIcEENS_9allocatorIcEEEEEptB8ne180100Ev, symObjAddr: 0x97A8, symBinAddr: 0x100014C64, symSize: 0x24 }
  - { offset: 0x3FAA0, size: 0x8, addend: 0x0, symName: __ZNSt3__128__exception_guard_exceptionsINS_29_AllocatorDestroyRangeReverseINS_9allocatorINS_12basic_stringIcNS_11char_traitsIcEENS2_IcEEEEEENS_16reverse_iteratorIPS7_EEEEED2B8ne180100Ev, symObjAddr: 0x97CC, symBinAddr: 0x100014C88, symSize: 0x50 }
  - { offset: 0x3FAC8, size: 0x8, addend: 0x0, symName: __ZNKSt3__129_AllocatorDestroyRangeReverseINS_9allocatorINS_12basic_stringIcNS_11char_traitsIcEENS1_IcEEEEEENS_16reverse_iteratorIPS6_EEEclB8ne180100Ev, symObjAddr: 0x981C, symBinAddr: 0x100014CD8, symSize: 0xB4 }
  - { offset: 0x3FAED, size: 0x8, addend: 0x0, symName: __ZNSt3__116reverse_iteratorINS0_IPNS_12basic_stringIcNS_11char_traitsIcEENS_9allocatorIcEEEEEEEC1B8ne180100ES8_, symObjAddr: 0x9940, symBinAddr: 0x100014DFC, symSize: 0x3C }
  - { offset: 0x3FB23, size: 0x8, addend: 0x0, symName: __ZNSt3__116reverse_iteratorINS0_IPNS_12basic_stringIcNS_11char_traitsIcEENS_9allocatorIcEEEEEEEppB8ne180100Ev, symObjAddr: 0x9A00, symBinAddr: 0x100014EBC, symSize: 0x30 }
  - { offset: 0x3FB47, size: 0x8, addend: 0x0, symName: __ZNKSt3__116reverse_iteratorINS0_IPNS_12basic_stringIcNS_11char_traitsIcEENS_9allocatorIcEEEEEEE4baseB8ne180100Ev, symObjAddr: 0x9A30, symBinAddr: 0x100014EEC, symSize: 0x24 }
  - { offset: 0x3FB70, size: 0x8, addend: 0x0, symName: __ZNSt3__119__to_address_helperINS_16reverse_iteratorINS1_IPNS_12basic_stringIcNS_11char_traitsIcEENS_9allocatorIcEEEEEEEEvE6__callB8ne180100ERKSA_, symObjAddr: 0x9A54, symBinAddr: 0x100014F10, symSize: 0x38 }
  - { offset: 0x3FB92, size: 0x8, addend: 0x0, symName: __ZNKSt3__116reverse_iteratorINS0_IPNS_12basic_stringIcNS_11char_traitsIcEENS_9allocatorIcEEEEEEEptB8ne180100Ev, symObjAddr: 0x9A8C, symBinAddr: 0x100014F48, symSize: 0x24 }
  - { offset: 0x3FBB6, size: 0x8, addend: 0x0, symName: __ZNKSt3__116reverse_iteratorINS0_IPNS_12basic_stringIcNS_11char_traitsIcEENS_9allocatorIcEEEEEEEdeB8ne180100Ev, symObjAddr: 0x9AB0, symBinAddr: 0x100014F6C, symSize: 0x34 }
  - { offset: 0x3FBE8, size: 0x8, addend: 0x0, symName: __ZNSt3__116reverse_iteratorIPNS_12basic_stringIcNS_11char_traitsIcEENS_9allocatorIcEEEEEmmB8ne180100Ev, symObjAddr: 0x9AE4, symBinAddr: 0x100014FA0, symSize: 0x20 }
  - { offset: 0x3FC0C, size: 0x8, addend: 0x0, symName: __ZNSt3__116reverse_iteratorINS0_IPNS_12basic_stringIcNS_11char_traitsIcEENS_9allocatorIcEEEEEEEC2B8ne180100ES8_, symObjAddr: 0x9B04, symBinAddr: 0x100014FC0, symSize: 0x2C }
  - { offset: 0x3FC42, size: 0x8, addend: 0x0, symName: __ZNSt3__116reverse_iteratorIPNS_12basic_stringIcNS_11char_traitsIcEENS_9allocatorIcEEEEEC2B8ne180100ES7_, symObjAddr: 0x9B30, symBinAddr: 0x100014FEC, symSize: 0x28 }
  - { offset: 0x3FC78, size: 0x8, addend: 0x0, symName: __ZNSt3__114__split_bufferINS_12basic_stringIcNS_11char_traitsIcEENS_9allocatorIcEEEERNS4_IS6_EEED2Ev, symObjAddr: 0x9B58, symBinAddr: 0x100015014, symSize: 0x8C }
  - { offset: 0x3FCA2, size: 0x8, addend: 0x0, symName: __ZNSt3__114__split_bufferINS_12basic_stringIcNS_11char_traitsIcEENS_9allocatorIcEEEERNS4_IS6_EEE5clearB8ne180100Ev, symObjAddr: 0x9BE4, symBinAddr: 0x1000150A0, symSize: 0x28 }
  - { offset: 0x3FCC6, size: 0x8, addend: 0x0, symName: __ZNKSt3__114__split_bufferINS_12basic_stringIcNS_11char_traitsIcEENS_9allocatorIcEEEERNS4_IS6_EEE8capacityB8ne180100Ev, symObjAddr: 0x9C0C, symBinAddr: 0x1000150C8, symSize: 0x40 }
  - { offset: 0x3FCEA, size: 0x8, addend: 0x0, symName: __ZNSt3__114__split_bufferINS_12basic_stringIcNS_11char_traitsIcEENS_9allocatorIcEEEERNS4_IS6_EEE17__destruct_at_endB8ne180100EPS6_, symObjAddr: 0x9C4C, symBinAddr: 0x100015108, symSize: 0x2C }
  - { offset: 0x3FD1C, size: 0x8, addend: 0x0, symName: __ZNSt3__114__split_bufferINS_12basic_stringIcNS_11char_traitsIcEENS_9allocatorIcEEEERNS4_IS6_EEE17__destruct_at_endB8ne180100EPS6_NS_17integral_constantIbLb0EEE, symObjAddr: 0x9C78, symBinAddr: 0x100015134, symSize: 0x80 }
  - { offset: 0x3FD5A, size: 0x8, addend: 0x0, symName: __ZNKSt3__114__split_bufferINS_12basic_stringIcNS_11char_traitsIcEENS_9allocatorIcEEEERNS4_IS6_EEE9__end_capB8ne180100Ev, symObjAddr: 0x9CF8, symBinAddr: 0x1000151B4, symSize: 0x28 }
  - { offset: 0x3FD7E, size: 0x8, addend: 0x0, symName: __ZNKSt3__117__compressed_pairIPNS_12basic_stringIcNS_11char_traitsIcEENS_9allocatorIcEEEERNS4_IS6_EEE5firstB8ne180100Ev, symObjAddr: 0x9D20, symBinAddr: 0x1000151DC, symSize: 0x24 }
  - { offset: 0x3FDA2, size: 0x8, addend: 0x0, symName: __ZNSt3__112basic_stringIcNS_11char_traitsIcEENS_9allocatorIcEEE15__make_iteratorB8ne180100EPc, symObjAddr: 0x9D44, symBinAddr: 0x100015200, symSize: 0x30 }
  - { offset: 0x3FDD5, size: 0x8, addend: 0x0, symName: __ZNSt3__111__wrap_iterIPcEC1B8ne180100ES1_, symObjAddr: 0x9D74, symBinAddr: 0x100015230, symSize: 0x34 }
  - { offset: 0x3FE0B, size: 0x8, addend: 0x0, symName: __ZNSt3__111__wrap_iterIPcEC2B8ne180100ES1_, symObjAddr: 0x9DA8, symBinAddr: 0x100015264, symSize: 0x20 }
  - { offset: 0x3FE41, size: 0x8, addend: 0x0, symName: __ZNSt3__112__hash_tableINS_12basic_stringIcNS_11char_traitsIcEENS_9allocatorIcEEEENS_4hashIS6_EENS_8equal_toIS6_EENS4_IS6_EEE4findIS6_EENS_15__hash_iteratorIPNS_11__hash_nodeIS6_PvEEEERKT_, symObjAddr: 0x9DC8, symBinAddr: 0x100015284, symSize: 0x1B0 }
  - { offset: 0x3FEC9, size: 0x8, addend: 0x0, symName: __ZNSt3__121__hash_const_iteratorIPNS_11__hash_nodeINS_12basic_stringIcNS_11char_traitsIcEENS_9allocatorIcEEEEPvEEEC1B8ne180100ERKNS_15__hash_iteratorISA_EE, symObjAddr: 0x9F78, symBinAddr: 0x100015434, symSize: 0x34 }
  - { offset: 0x3FF00, size: 0x8, addend: 0x0, symName: __ZNSt3__112__hash_tableINS_12basic_stringIcNS_11char_traitsIcEENS_9allocatorIcEEEENS_4hashIS6_EENS_8equal_toIS6_EENS4_IS6_EEE3endEv, symObjAddr: 0x9FAC, symBinAddr: 0x100015468, symSize: 0x2C }
  - { offset: 0x3FF26, size: 0x8, addend: 0x0, symName: __ZNSt3__121__hash_const_iteratorIPNS_11__hash_nodeINS_12basic_stringIcNS_11char_traitsIcEENS_9allocatorIcEEEEPvEEEC2B8ne180100ERKNS_15__hash_iteratorISA_EE, symObjAddr: 0x9FD8, symBinAddr: 0x100015494, symSize: 0x24 }
  - { offset: 0x3FF5D, size: 0x8, addend: 0x0, symName: __ZNSt3__16vectorItNS_9allocatorItEEEC2B8ne180100Ev, symObjAddr: 0x9FFC, symBinAddr: 0x1000154B8, symSize: 0x4C }
  - { offset: 0x3FF85, size: 0x8, addend: 0x0, symName: __ZNSt3__117__compressed_pairIPtNS_9allocatorItEEEC1B8ne180100IDnNS_18__default_init_tagEEEOT_OT0_, symObjAddr: 0xA048, symBinAddr: 0x100015504, symSize: 0x3C }
  - { offset: 0x3FFDB, size: 0x8, addend: 0x0, symName: __ZNSt3__117__compressed_pairIPtNS_9allocatorItEEEC2B8ne180100IDnNS_18__default_init_tagEEEOT_OT0_, symObjAddr: 0xA084, symBinAddr: 0x100015540, symSize: 0x40 }
  - { offset: 0x40031, size: 0x8, addend: 0x0, symName: __ZNSt3__122__compressed_pair_elemINS_9allocatorItEELi1ELb1EEC2B8ne180100ENS_18__default_init_tagE, symObjAddr: 0xA0E0, symBinAddr: 0x100015580, symSize: 0x2C }
  - { offset: 0x40063, size: 0x8, addend: 0x0, symName: __ZNSt3__19allocatorItEC2B8ne180100Ev, symObjAddr: 0xA10C, symBinAddr: 0x1000155AC, symSize: 0x2C }
  - { offset: 0x4008B, size: 0x8, addend: 0x0, symName: __ZNSt3__116__non_trivial_ifILb1ENS_9allocatorItEEEC2B8ne180100Ev, symObjAddr: 0xA138, symBinAddr: 0x1000155D8, symSize: 0x14 }
  - { offset: 0x400B3, size: 0x8, addend: 0x0, symName: __ZNSt3__111char_traitsIcE4findB8ne180100EPKcmRS2_, symObjAddr: 0xA738, symBinAddr: 0x100015824, symSize: 0x70 }
  - { offset: 0x400F1, size: 0x8, addend: 0x0, symName: __ZNSt3__16vectorItNS_9allocatorItEEE11__make_iterB8ne180100EPt, symObjAddr: 0xA7E8, symBinAddr: 0x1000158D4, symSize: 0x30 }
  - { offset: 0x40124, size: 0x8, addend: 0x0, symName: __ZNSt3__111__wrap_iterIPtEC1B8ne180100ES1_, symObjAddr: 0xA818, symBinAddr: 0x100015904, symSize: 0x34 }
  - { offset: 0x4015A, size: 0x8, addend: 0x0, symName: __ZNSt3__111__wrap_iterIPtEC2B8ne180100ES1_, symObjAddr: 0xA84C, symBinAddr: 0x100015938, symSize: 0x20 }
  - { offset: 0x40190, size: 0x8, addend: 0x0, symName: __ZNSt3__16vectorItNS_9allocatorItEEE22__construct_one_at_endB8ne180100IJRKtEEEvDpOT_, symObjAddr: 0xA894, symBinAddr: 0x100015958, symSize: 0x90 }
  - { offset: 0x401DD, size: 0x8, addend: 0x0, symName: __ZNSt3__16vectorItNS_9allocatorItEEE21__push_back_slow_pathIRKtEEPtOT_, symObjAddr: 0xA924, symBinAddr: 0x1000159E8, symSize: 0xE8 }
  - { offset: 0x40252, size: 0x8, addend: 0x0, symName: __ZNSt3__116allocator_traitsINS_9allocatorItEEE9constructB8ne180100ItJRKtEvEEvRS2_PT_DpOT0_, symObjAddr: 0xAA80, symBinAddr: 0x100015AD0, symSize: 0x34 }
  - { offset: 0x402A8, size: 0x8, addend: 0x0, symName: __ZNSt3__19allocatorItE9constructB8ne180100ItJRKtEEEvPT_DpOT0_, symObjAddr: 0xAB24, symBinAddr: 0x100015B04, symSize: 0x28 }
  - { offset: 0x402FC, size: 0x8, addend: 0x0, symName: __ZNKSt3__16vectorItNS_9allocatorItEEE11__recommendB8ne180100Em, symObjAddr: 0xAB6C, symBinAddr: 0x100015B2C, symSize: 0xB4 }
  - { offset: 0x4034F, size: 0x8, addend: 0x0, symName: __ZNSt3__114__split_bufferItRNS_9allocatorItEEEC1EmmS3_, symObjAddr: 0xAC20, symBinAddr: 0x100015BE0, symSize: 0x44 }
  - { offset: 0x403A3, size: 0x8, addend: 0x0, symName: __ZNSt3__114__split_bufferItRNS_9allocatorItEEED1Ev, symObjAddr: 0xAD74, symBinAddr: 0x100015D34, symSize: 0x2C }
  - { offset: 0x403D7, size: 0x8, addend: 0x0, symName: __ZNSt3__114__split_bufferItRNS_9allocatorItEEEC2EmmS3_, symObjAddr: 0xAEB4, symBinAddr: 0x100015D60, symSize: 0xD4 }
  - { offset: 0x40448, size: 0x8, addend: 0x0, symName: __ZNSt3__117__compressed_pairIPtRNS_9allocatorItEEEC1B8ne180100IDnS4_EEOT_OT0_, symObjAddr: 0xAF88, symBinAddr: 0x100015E34, symSize: 0x3C }
  - { offset: 0x4049E, size: 0x8, addend: 0x0, symName: __ZNSt3__114__split_bufferItRNS_9allocatorItEEE7__allocB8ne180100Ev, symObjAddr: 0xB004, symBinAddr: 0x100015E70, symSize: 0x28 }
  - { offset: 0x404C2, size: 0x8, addend: 0x0, symName: __ZNSt3__114__split_bufferItRNS_9allocatorItEEE9__end_capB8ne180100Ev, symObjAddr: 0xB02C, symBinAddr: 0x100015E98, symSize: 0x28 }
  - { offset: 0x404E6, size: 0x8, addend: 0x0, symName: __ZNSt3__117__compressed_pairIPtRNS_9allocatorItEEEC2B8ne180100IDnS4_EEOT_OT0_, symObjAddr: 0xB054, symBinAddr: 0x100015EC0, symSize: 0x48 }
  - { offset: 0x4053C, size: 0x8, addend: 0x0, symName: __ZNSt3__122__compressed_pair_elemIRNS_9allocatorItEELi1ELb0EEC2B8ne180100IS3_vEEOT_, symObjAddr: 0xB09C, symBinAddr: 0x100015F08, symSize: 0x20 }
  - { offset: 0x4057C, size: 0x8, addend: 0x0, symName: __ZNSt3__117__compressed_pairIPtRNS_9allocatorItEEE6secondB8ne180100Ev, symObjAddr: 0xB114, symBinAddr: 0x100015F28, symSize: 0x28 }
  - { offset: 0x405A0, size: 0x8, addend: 0x0, symName: __ZNSt3__122__compressed_pair_elemIRNS_9allocatorItEELi1ELb0EE5__getB8ne180100Ev, symObjAddr: 0xB13C, symBinAddr: 0x100015F50, symSize: 0x18 }
  - { offset: 0x405C4, size: 0x8, addend: 0x0, symName: __ZNSt3__117__compressed_pairIPtRNS_9allocatorItEEE5firstB8ne180100Ev, symObjAddr: 0xB154, symBinAddr: 0x100015F68, symSize: 0x24 }
  - { offset: 0x405E8, size: 0x8, addend: 0x0, symName: __ZNSt3__116reverse_iteratorIPtEC1B8ne180100ES1_, symObjAddr: 0xB1F0, symBinAddr: 0x100016004, symSize: 0x34 }
  - { offset: 0x4061E, size: 0x8, addend: 0x0, symName: __ZNKSt3__116reverse_iteratorIPtE4baseB8ne180100Ev, symObjAddr: 0xB224, symBinAddr: 0x100016038, symSize: 0x18 }
  - { offset: 0x40665, size: 0x8, addend: 0x0, symName: __ZNKSt3__111__move_loopINS_17_ClassicAlgPolicyEEclB8ne180100INS_16reverse_iteratorIPtEES6_S6_EENS_4pairIT_T1_EES8_T0_S9_, symObjAddr: 0xB57C, symBinAddr: 0x10001637C, symSize: 0xA0 }
  - { offset: 0x406D3, size: 0x8, addend: 0x0, symName: __ZNSt3__18_IterOpsINS_17_ClassicAlgPolicyEE11__iter_moveB8ne180100IRNS_16reverse_iteratorIPtEELi0EEEDTclsr3stdE4movedeclsr3stdE7declvalIRT_EEEEOS8_, symObjAddr: 0xB7B0, symBinAddr: 0x1000165B0, symSize: 0x28 }
  - { offset: 0x40704, size: 0x8, addend: 0x0, symName: __ZNKSt3__116reverse_iteratorIPtEdeB8ne180100Ev, symObjAddr: 0xB7D8, symBinAddr: 0x1000165D8, symSize: 0x28 }
  - { offset: 0x40736, size: 0x8, addend: 0x0, symName: __ZNSt3__116reverse_iteratorIPtEppB8ne180100Ev, symObjAddr: 0xB800, symBinAddr: 0x100016600, symSize: 0x20 }
  - { offset: 0x4075A, size: 0x8, addend: 0x0, symName: __ZNSt3__18_IterOpsINS_17_ClassicAlgPolicyEE25__validate_iter_referenceB8ne180100IRNS_16reverse_iteratorIPtEEEEvv, symObjAddr: 0xB820, symBinAddr: 0x100016620, symSize: 0x4 }
  - { offset: 0x40777, size: 0x8, addend: 0x0, symName: __ZNSt3__118__unwrap_iter_implINS_16reverse_iteratorIPtEELb0EE8__unwrapB8ne180100ES3_, symObjAddr: 0xB824, symBinAddr: 0x100016624, symSize: 0x24 }
  - { offset: 0x4079E, size: 0x8, addend: 0x0, symName: __ZNSt3__14pairINS_16reverse_iteratorIPtEES3_EC1B8ne180100IS3_S3_Li0EEEOT_OT0_, symObjAddr: 0xB848, symBinAddr: 0x100016648, symSize: 0x3C }
  - { offset: 0x407FA, size: 0x8, addend: 0x0, symName: __ZNSt3__14pairINS_16reverse_iteratorIPtEES3_EC2B8ne180100IS3_S3_Li0EEEOT_OT0_, symObjAddr: 0xB884, symBinAddr: 0x100016684, symSize: 0x34 }
  - { offset: 0x40856, size: 0x8, addend: 0x0, symName: __ZNSt3__118__unwrap_iter_implINS_16reverse_iteratorIPtEELb0EE8__rewrapB8ne180100ES3_S3_, symObjAddr: 0xB8B8, symBinAddr: 0x1000166B8, symSize: 0x2C }
  - { offset: 0x40882, size: 0x8, addend: 0x0, symName: __ZNSt3__116reverse_iteratorIPtEC2B8ne180100ES1_, symObjAddr: 0xB8E4, symBinAddr: 0x1000166E4, symSize: 0x28 }
  - { offset: 0x408B8, size: 0x8, addend: 0x0, symName: __ZNSt3__114__split_bufferItRNS_9allocatorItEEED2Ev, symObjAddr: 0xB90C, symBinAddr: 0x10001670C, symSize: 0x8C }
  - { offset: 0x408E2, size: 0x8, addend: 0x0, symName: __ZNSt3__114__split_bufferItRNS_9allocatorItEEE5clearB8ne180100Ev, symObjAddr: 0xB998, symBinAddr: 0x100016798, symSize: 0x28 }
  - { offset: 0x40906, size: 0x8, addend: 0x0, symName: __ZNKSt3__114__split_bufferItRNS_9allocatorItEEE8capacityB8ne180100Ev, symObjAddr: 0xB9C0, symBinAddr: 0x1000167C0, symSize: 0x40 }
  - { offset: 0x4092A, size: 0x8, addend: 0x0, symName: __ZNSt3__114__split_bufferItRNS_9allocatorItEEE17__destruct_at_endB8ne180100EPt, symObjAddr: 0xBA00, symBinAddr: 0x100016800, symSize: 0x2C }
  - { offset: 0x4095C, size: 0x8, addend: 0x0, symName: __ZNSt3__114__split_bufferItRNS_9allocatorItEEE17__destruct_at_endB8ne180100EPtNS_17integral_constantIbLb0EEE, symObjAddr: 0xBA2C, symBinAddr: 0x10001682C, symSize: 0x80 }
  - { offset: 0x4099A, size: 0x8, addend: 0x0, symName: __ZNKSt3__114__split_bufferItRNS_9allocatorItEEE9__end_capB8ne180100Ev, symObjAddr: 0xBAAC, symBinAddr: 0x1000168AC, symSize: 0x28 }
  - { offset: 0x409BE, size: 0x8, addend: 0x0, symName: __ZNKSt3__117__compressed_pairIPtRNS_9allocatorItEEE5firstB8ne180100Ev, symObjAddr: 0xBAD4, symBinAddr: 0x1000168D4, symSize: 0x24 }
  - { offset: 0x409E7, size: 0x8, addend: 0x0, symName: __ZNSt3__16vectorItNS_9allocatorItEEE22__construct_one_at_endB8ne180100IJtEEEvDpOT_, symObjAddr: 0xBAF8, symBinAddr: 0x1000168F8, symSize: 0x90 }
  - { offset: 0x40A34, size: 0x8, addend: 0x0, symName: __ZNSt3__16vectorItNS_9allocatorItEEE21__push_back_slow_pathItEEPtOT_, symObjAddr: 0xBB88, symBinAddr: 0x100016988, symSize: 0xE8 }
  - { offset: 0x40A90, size: 0x8, addend: 0x0, symName: __ZNSt3__116allocator_traitsINS_9allocatorItEEE9constructB8ne180100ItJtEvEEvRS2_PT_DpOT0_, symObjAddr: 0xBC70, symBinAddr: 0x100016A70, symSize: 0x34 }
  - { offset: 0x40AE6, size: 0x8, addend: 0x0, symName: __ZNSt3__19allocatorItE9constructB8ne180100ItJtEEEvPT_DpOT0_, symObjAddr: 0xBCA4, symBinAddr: 0x100016AA4, symSize: 0x28 }
  - { offset: 0x4FCDE, size: 0x8, addend: 0x0, symName: __ZN9AssemblerC2Ev, symObjAddr: 0x0, symBinAddr: 0x100016ACC, symSize: 0x14 }
  - { offset: 0x4FD08, size: 0x8, addend: 0x0, symName: __ZN9AssemblerC1Ev, symObjAddr: 0x14, symBinAddr: 0x100016AE0, symSize: 0x2C }
  - { offset: 0x4FD33, size: 0x8, addend: 0x0, symName: __ZN9Assembler25generate_instruction_codeENSt3__112basic_stringIcNS0_11char_traitsIcEENS0_9allocatorIcEEEE, symObjAddr: 0x40, symBinAddr: 0x100016B0C, symSize: 0x100 }
  - { offset: 0x4FD93, size: 0x8, addend: 0x0, symName: __ZN9Assembler8fetch_opENSt3__112basic_stringIcNS0_11char_traitsIcEENS0_9allocatorIcEEEE, symObjAddr: 0x140, symBinAddr: 0x100016C0C, symSize: 0x3D4 }
  - { offset: 0x4FDD7, size: 0x8, addend: 0x0, symName: __ZN9Assembler12fetch_non_opEtNSt3__112basic_stringIcNS0_11char_traitsIcEENS0_9allocatorIcEEEE, symObjAddr: 0x514, symBinAddr: 0x100016FE0, symSize: 0x1400 }
  - { offset: 0x4FE39, size: 0x8, addend: 0x0, symName: __ZN9Assembler32generate_instruction_code_branchENSt3__112basic_stringIcNS0_11char_traitsIcEENS0_9allocatorIcEEEE, symObjAddr: 0x1954, symBinAddr: 0x100018420, symSize: 0x224 }
  - { offset: 0x4FEC6, size: 0x8, addend: 0x0, symName: __ZN9Assembler10line_splitENSt3__112basic_stringIcNS0_11char_traitsIcEENS0_9allocatorIcEEEE, symObjAddr: 0x1C34, symBinAddr: 0x100018644, symSize: 0x140 }
  - { offset: 0x5002E, size: 0x8, addend: 0x0, symName: __ZNSt3__119basic_istringstreamIcNS_11char_traitsIcEENS_9allocatorIcEEEC1B8ne180100ERKNS_12basic_stringIcS2_S4_EEj, symObjAddr: 0x1E24, symBinAddr: 0x100018784, symSize: 0xF4 }
  - { offset: 0x5007A, size: 0x8, addend: 0x0, symName: __ZNSt3__119basic_istringstreamIcNS_11char_traitsIcEENS_9allocatorIcEEED1Ev, symObjAddr: 0x231C, symBinAddr: 0x100018878, symSize: 0x40 }
  - { offset: 0x500A6, size: 0x8, addend: 0x0, symName: __ZN9Assembler14assembly_splitENSt3__112basic_stringIcNS0_11char_traitsIcEENS0_9allocatorIcEEEE, symObjAddr: 0x235C, symBinAddr: 0x1000188B8, symSize: 0x1A8 }
  - { offset: 0x50352, size: 0x8, addend: 0x0, symName: __ZNSt3__114basic_ifstreamIcNS_11char_traitsIcEEEC1ERKNS_12basic_stringIcS2_NS_9allocatorIcEEEEj, symObjAddr: 0x2504, symBinAddr: 0x100018A60, symSize: 0x164 }
  - { offset: 0x503A0, size: 0x8, addend: 0x0, symName: __ZNSt3__114basic_ifstreamIcNS_11char_traitsIcEEED1Ev, symObjAddr: 0x26C4, symBinAddr: 0x100018BC4, symSize: 0x40 }
  - { offset: 0x503CB, size: 0x8, addend: 0x0, symName: __ZNSt3__16vectorINS_12basic_stringIcNS_11char_traitsIcEENS_9allocatorIcEEEENS4_IS6_EEE2atEm, symObjAddr: 0x2704, symBinAddr: 0x100018C04, symSize: 0x68 }
  - { offset: 0x50401, size: 0x8, addend: 0x0, symName: __ZN9Assembler8fetch_rsENSt3__112basic_stringIcNS0_11char_traitsIcEENS0_9allocatorIcEEEEc, symObjAddr: 0x2818, symBinAddr: 0x100018C6C, symSize: 0x1E0 }
  - { offset: 0x504AA, size: 0x8, addend: 0x0, symName: __ZN9Assembler9fetch_memENSt3__112basic_stringIcNS0_11char_traitsIcEENS0_9allocatorIcEEEE, symObjAddr: 0x29F8, symBinAddr: 0x100018E4C, symSize: 0x138 }
  - { offset: 0x5053B, size: 0x8, addend: 0x0, symName: __ZN9Assembler9fetch_immENSt3__112basic_stringIcNS0_11char_traitsIcEENS0_9allocatorIcEEEE, symObjAddr: 0x2B30, symBinAddr: 0x100018F84, symSize: 0x3C }
  - { offset: 0x50573, size: 0x8, addend: 0x0, symName: __ZN9Assembler9fetch_jmpENSt3__112basic_stringIcNS0_11char_traitsIcEENS0_9allocatorIcEEEE, symObjAddr: 0x2B6C, symBinAddr: 0x100018FC0, symSize: 0x3C }
  - { offset: 0x505C8, size: 0x8, addend: 0x0, symName: __ZNSt3__119basic_istringstreamIcNS_11char_traitsIcEENS_9allocatorIcEEED2Ev, symObjAddr: 0x2D40, symBinAddr: 0x100018FFC, symSize: 0x64 }
  - { offset: 0x50600, size: 0x8, addend: 0x0, symName: __ZTv0_n24_NSt3__119basic_istringstreamIcNS_11char_traitsIcEENS_9allocatorIcEEED1Ev, symObjAddr: 0x2DA4, symBinAddr: 0x100019060, symSize: 0x28 }
  - { offset: 0x5061C, size: 0x8, addend: 0x0, symName: __ZNSt3__114basic_ifstreamIcNS_11char_traitsIcEEED2Ev, symObjAddr: 0x2E40, symBinAddr: 0x100019088, symSize: 0x64 }
  - { offset: 0x50654, size: 0x8, addend: 0x0, symName: __ZTv0_n24_NSt3__114basic_ifstreamIcNS_11char_traitsIcEEED1Ev, symObjAddr: 0x2EA4, symBinAddr: 0x1000190EC, symSize: 0x28 }
  - { offset: 0x506C9, size: 0x8, addend: 0x0, symName: __ZNSt3__113basic_filebufIcNS_11char_traitsIcEEE4openERKNS_12basic_stringIcS2_NS_9allocatorIcEEEEj, symObjAddr: 0x7290, symBinAddr: 0x100019114, symSize: 0x44 }
  - { offset: 0x5070D, size: 0x8, addend: 0x0, symName: __ZNKSt3__112basic_stringIcNS_11char_traitsIcEENS_9allocatorIcEEE5c_strB8ne180100Ev, symObjAddr: 0x72D4, symBinAddr: 0x100019158, symSize: 0x24 }
  - { offset: 0x50731, size: 0x8, addend: 0x0, symName: __ZNKSt3__16vectorINS_12basic_stringIcNS_11char_traitsIcEENS_9allocatorIcEEEENS4_IS6_EEE20__throw_out_of_rangeB8ne180100Ev, symObjAddr: 0x7704, symBinAddr: 0x10001917C, symSize: 0x1C }
  - { offset: 0x5234B, size: 0x8, addend: 0x0, symName: __ZN19ArithmeticLogicUnitC2EP9RegistersP18RandomAccessMemory, symObjAddr: 0x0, symBinAddr: 0x100019198, symSize: 0x2C }
  - { offset: 0x52371, size: 0x8, addend: 0x0, symName: __ZN19ArithmeticLogicUnitC2EP9RegistersP18RandomAccessMemory, symObjAddr: 0x0, symBinAddr: 0x100019198, symSize: 0x2C }
  - { offset: 0x523B7, size: 0x8, addend: 0x0, symName: __ZN19ArithmeticLogicUnitC1EP9RegistersP18RandomAccessMemory, symObjAddr: 0x2C, symBinAddr: 0x1000191C4, symSize: 0x3C }
  - { offset: 0x523FE, size: 0x8, addend: 0x0, symName: __ZN19ArithmeticLogicUnit8alu_loadEtt, symObjAddr: 0x68, symBinAddr: 0x100019200, symSize: 0x50 }
  - { offset: 0x5244F, size: 0x8, addend: 0x0, symName: __ZN19ArithmeticLogicUnit9alu_storeEtt, symObjAddr: 0xB8, symBinAddr: 0x100019250, symSize: 0x50 }
  - { offset: 0x524A0, size: 0x8, addend: 0x0, symName: __ZN19ArithmeticLogicUnit7alu_addEttt, symObjAddr: 0x108, symBinAddr: 0x1000192A0, symSize: 0x74 }
  - { offset: 0x5250D, size: 0x8, addend: 0x0, symName: __ZN19ArithmeticLogicUnit7alu_subEttt, symObjAddr: 0x17C, symBinAddr: 0x100019314, symSize: 0x74 }
  - { offset: 0x5257A, size: 0x8, addend: 0x0, symName: __ZN19ArithmeticLogicUnit7alu_andEttt, symObjAddr: 0x1F0, symBinAddr: 0x100019388, symSize: 0x74 }
  - { offset: 0x525E7, size: 0x8, addend: 0x0, symName: __ZN19ArithmeticLogicUnit6alu_orEttt, symObjAddr: 0x264, symBinAddr: 0x1000193FC, symSize: 0x74 }
  - { offset: 0x52654, size: 0x8, addend: 0x0, symName: __ZN19ArithmeticLogicUnit7alu_xorEttt, symObjAddr: 0x2D8, symBinAddr: 0x100019470, symSize: 0x74 }
  - { offset: 0x526C1, size: 0x8, addend: 0x0, symName: __ZN19ArithmeticLogicUnit7alu_notEtt, symObjAddr: 0x34C, symBinAddr: 0x1000194E4, symSize: 0x58 }
  - { offset: 0x52712, size: 0x8, addend: 0x0, symName: __ZN19ArithmeticLogicUnit8alu_addiEttt, symObjAddr: 0x3A4, symBinAddr: 0x10001953C, symSize: 0x60 }
  - { offset: 0x52771, size: 0x8, addend: 0x0, symName: __ZN19ArithmeticLogicUnit8alu_subiEttt, symObjAddr: 0x404, symBinAddr: 0x10001959C, symSize: 0x60 }
  - { offset: 0x527D0, size: 0x8, addend: 0x0, symName: __ZN19ArithmeticLogicUnit8alu_andiEttt, symObjAddr: 0x464, symBinAddr: 0x1000195FC, symSize: 0x60 }
  - { offset: 0x5282F, size: 0x8, addend: 0x0, symName: __ZN19ArithmeticLogicUnit7alu_oriEttt, symObjAddr: 0x4C4, symBinAddr: 0x10001965C, symSize: 0x60 }
  - { offset: 0x5288E, size: 0x8, addend: 0x0, symName: __ZN19ArithmeticLogicUnit8alu_xoriEttt, symObjAddr: 0x524, symBinAddr: 0x1000196BC, symSize: 0x60 }
  - { offset: 0x528ED, size: 0x8, addend: 0x0, symName: __ZN19ArithmeticLogicUnit7alu_jmpEt, symObjAddr: 0x584, symBinAddr: 0x10001971C, symSize: 0x38 }
  - { offset: 0x52922, size: 0x8, addend: 0x0, symName: __ZN19ArithmeticLogicUnit7alu_beqEttt, symObjAddr: 0x5BC, symBinAddr: 0x100019754, symSize: 0x88 }
  - { offset: 0x5298F, size: 0x8, addend: 0x0, symName: __ZN19ArithmeticLogicUnit7alu_bneEttt, symObjAddr: 0x644, symBinAddr: 0x1000197DC, symSize: 0x88 }
...
