---
triple:          'arm64-apple-darwin'
binary-path:     test_cpu_run_asmb
relocations:
  - { offset: 0x4C, size: 0x8, addend: 0x0, symName: __ZN34CPUTestAssemblyOption_beqtest_Test10test_info_E, symObjAddr: 0x424E0, symBinAddr: 0x100054008, symSize: 0x0 }
  - { offset: 0x649, size: 0x8, addend: 0x0, symName: __ZN7testing8internal19GetNotDefaultOrNullEPFvvES2_, symObjAddr: 0x178C, symBinAddr: 0x1000034E8, symSize: 0x48 }
  - { offset: 0x710, size: 0x8, addend: 0x0, symName: __ZN7testing8internal11CmpHelperEQItiEENS_15AssertionResultEPKcS4_RKT_RKT0_, symObjAddr: 0x2164, symBinAddr: 0x100003EC0, symSize: 0x78 }
  - { offset: 0x77D, size: 0x8, addend: 0x0, symName: __ZN7testing8internal18CmpHelperEQFailureItiEENS_15AssertionResultEPKcS4_RKT_RKT0_, symObjAddr: 0x21DC, symBinAddr: 0x100003F38, symSize: 0xD4 }
  - { offset: 0x7EA, size: 0x8, addend: 0x0, symName: __ZN7testing8internal33FormatForComparisonFailureMessageItiEENSt3__112basic_stringIcNS2_11char_traitsIcEENS2_9allocatorIcEEEERKT_RKT0_, symObjAddr: 0x22B0, symBinAddr: 0x10000400C, symSize: 0x30 }
  - { offset: 0x835, size: 0x8, addend: 0x0, symName: __ZN7testing8internal33FormatForComparisonFailureMessageIitEENSt3__112basic_stringIcNS2_11char_traitsIcEENS2_9allocatorIcEEEERKT_RKT0_, symObjAddr: 0x22E0, symBinAddr: 0x10000403C, symSize: 0x30 }
  - { offset: 0x8E0, size: 0x8, addend: 0x0, symName: __ZN7testing8internal14UniversalPrintItEEvRKT_PNSt3__113basic_ostreamIcNS5_11char_traitsIcEEEE, symObjAddr: 0x2914, symBinAddr: 0x100004670, symSize: 0x2C }
  - { offset: 0x94C, size: 0x8, addend: 0x0, symName: __ZN7testing8internal7PrintToItEEvRKT_PNSt3__113basic_ostreamIcNS5_11char_traitsIcEEEE, symObjAddr: 0x296C, symBinAddr: 0x1000046C8, symSize: 0x2C }
  - { offset: 0x98E, size: 0x8, addend: 0x0, symName: __ZN7testing8internal17PrintWithFallbackItEEvRKT_PNSt3__113basic_ostreamIcNS5_11char_traitsIcEEEE, symObjAddr: 0x2998, symBinAddr: 0x1000046F4, symSize: 0x2C }
  - { offset: 0xA80, size: 0x8, addend: 0x0, symName: __ZN7testing8internal14UniversalPrintIiEEvRKT_PNSt3__113basic_ostreamIcNS5_11char_traitsIcEEEE, symObjAddr: 0x2C38, symBinAddr: 0x100004994, symSize: 0x2C }
  - { offset: 0xAEC, size: 0x8, addend: 0x0, symName: __ZN7testing8internal7PrintToIiEEvRKT_PNSt3__113basic_ostreamIcNS5_11char_traitsIcEEEE, symObjAddr: 0x2C90, symBinAddr: 0x1000049EC, symSize: 0x2C }
  - { offset: 0xB2E, size: 0x8, addend: 0x0, symName: __ZN7testing8internal17PrintWithFallbackIiEEvRKT_PNSt3__113basic_ostreamIcNS5_11char_traitsIcEEEE, symObjAddr: 0x2CBC, symBinAddr: 0x100004A18, symSize: 0x2C }
  - { offset: 0x1491, size: 0x8, addend: 0x0, symName: __ZN7testing13PrintToStringItEENSt3__112basic_stringIcNS1_11char_traitsIcEENS1_9allocatorIcEEEERKT_, symObjAddr: 0x233C, symBinAddr: 0x100004098, symSize: 0xC8 }
  - { offset: 0x14D6, size: 0x8, addend: 0x0, symName: __ZN7testing13PrintToStringIiEENSt3__112basic_stringIcNS1_11char_traitsIcEENS1_9allocatorIcEEEERKT_, symObjAddr: 0x2B44, symBinAddr: 0x1000048A0, symSize: 0xC8 }
  - { offset: 0x72D9, size: 0x8, addend: 0x0, symName: __ZNSt3__124__put_character_sequenceB8ne180100IcNS_11char_traitsIcEEEERNS_13basic_ostreamIT_T0_EES7_PKS4_m, symObjAddr: 0x183C, symBinAddr: 0x100003598, symSize: 0x1EC }
  - { offset: 0xB516, size: 0x8, addend: 0x0, symName: __ZNSt3__1neB8ne180100INS_12basic_stringIcNS_11char_traitsIcEENS_9allocatorIcEEEENS_14default_deleteIS6_EEEEbRKNS_10unique_ptrIT_T0_EEDn, symObjAddr: 0xEB4, symBinAddr: 0x100002C10, symSize: 0x2C }
  - { offset: 0xB561, size: 0x8, addend: 0x0, symName: __ZNSt3__112__to_addressB8ne180100IKcEEPT_S3_, symObjAddr: 0xFC0, symBinAddr: 0x100002D1C, symSize: 0x14 }
  - { offset: 0xB5C9, size: 0x8, addend: 0x0, symName: __ZNSt3__118__constexpr_strlenB8ne180100EPKc, symObjAddr: 0x1768, symBinAddr: 0x1000034C4, symSize: 0x24 }
  - { offset: 0xB5F5, size: 0x8, addend: 0x0, symName: __ZNSt3__1lsB8ne180100INS_11char_traitsIcEEEERNS_13basic_ostreamIcT_EES6_PKc, symObjAddr: 0x17DC, symBinAddr: 0x100003538, symSize: 0x48 }
  - { offset: 0xB63B, size: 0x8, addend: 0x0, symName: __ZNSt3__116__pad_and_outputB8ne180100IcNS_11char_traitsIcEEEENS_19ostreambuf_iteratorIT_T0_EES6_PKS4_S8_S8_RNS_8ios_baseES4_, symObjAddr: 0x1A44, symBinAddr: 0x1000037A0, symSize: 0x240 }
  - { offset: 0xB70A, size: 0x8, addend: 0x0, symName: __ZNSt3__112__to_addressB8ne180100IcEEPT_S2_, symObjAddr: 0x1EB4, symBinAddr: 0x100003C10, symSize: 0x14 }
  - { offset: 0xB772, size: 0x8, addend: 0x0, symName: __ZNSt3__19use_facetB8ne180100INS_5ctypeIcEEEERKT_RKNS_6localeE, symObjAddr: 0x20C4, symBinAddr: 0x100003E20, symSize: 0x2C }
  - { offset: 0xDD63, size: 0x8, addend: 0x0, symName: __ZN34CPUTestAssemblyOption_jmptest_Test10test_info_E, symObjAddr: 0x424E8, symBinAddr: 0x100054010, symSize: 0x0 }
  - { offset: 0xE084, size: 0x8, addend: 0x0, symName: __ZNSt3__112basic_stringIcNS_11char_traitsIcEENS_9allocatorIcEEEC1B8ne180100ILi0EEEPKc, symObjAddr: 0x0, symBinAddr: 0x100001D5C, symSize: 0x34 }
  - { offset: 0xE0C1, size: 0x8, addend: 0x0, symName: __ZN7testing8internal12CodeLocationC1ENSt3__112basic_stringIcNS2_11char_traitsIcEENS2_9allocatorIcEEEEi, symObjAddr: 0x34, symBinAddr: 0x100001D90, symSize: 0x3C }
  - { offset: 0xE10E, size: 0x8, addend: 0x0, symName: __ZN7testing8internal16SuiteApiResolverINS_4TestEE19GetSetUpCaseOrSuiteEPKci, symObjAddr: 0x70, symBinAddr: 0x100001DCC, symSize: 0x184 }
  - { offset: 0xE15E, size: 0x8, addend: 0x0, symName: __ZN7testing8internal16SuiteApiResolverINS_4TestEE22GetTearDownCaseOrSuiteEPKci, symObjAddr: 0x1F4, symBinAddr: 0x100001F50, symSize: 0x178 }
  - { offset: 0xE1B4, size: 0x8, addend: 0x0, symName: __ZN7testing8internal15TestFactoryImplI34CPUTestAssemblyOption_beqtest_TestEC1Ev, symObjAddr: 0x36C, symBinAddr: 0x1000020C8, symSize: 0x2C }
  - { offset: 0xE1E0, size: 0x8, addend: 0x0, symName: __ZN7testing8internal12CodeLocationD1Ev, symObjAddr: 0x398, symBinAddr: 0x1000020F4, symSize: 0x2C }
  - { offset: 0xE20C, size: 0x8, addend: 0x0, symName: __ZN34CPUTestAssemblyOption_beqtest_Test8TestBodyEv, symObjAddr: 0x3C4, symBinAddr: 0x100002120, symSize: 0x1DC }
  - { offset: 0xE63B, size: 0x8, addend: 0x0, symName: __ZN7testing8internal8EqHelper7CompareItiLPv0EEENS_15AssertionResultEPKcS6_RKT_RKT0_, symObjAddr: 0x5A0, symBinAddr: 0x1000022FC, symSize: 0x44 }
  - { offset: 0xE6A4, size: 0x8, addend: 0x0, symName: __ZNK7testing15AssertionResultcvbEv, symObjAddr: 0x5E4, symBinAddr: 0x100002340, symSize: 0x1C }
  - { offset: 0xE6C9, size: 0x8, addend: 0x0, symName: __ZNK7testing15AssertionResult15failure_messageEv, symObjAddr: 0x600, symBinAddr: 0x10000235C, symSize: 0x24 }
  - { offset: 0xE6EE, size: 0x8, addend: 0x0, symName: __ZN7testing7MessageD1Ev, symObjAddr: 0x624, symBinAddr: 0x100002380, symSize: 0x2C }
  - { offset: 0xE719, size: 0x8, addend: 0x0, symName: __ZN7testing15AssertionResultD1Ev, symObjAddr: 0x650, symBinAddr: 0x1000023AC, symSize: 0x2C }
  - { offset: 0xE749, size: 0x8, addend: 0x0, symName: __ZN7testing8internal15TestFactoryImplI34CPUTestAssemblyOption_jmptest_TestEC1Ev, symObjAddr: 0x67C, symBinAddr: 0x1000023D8, symSize: 0x2C }
  - { offset: 0xE775, size: 0x8, addend: 0x0, symName: __ZN34CPUTestAssemblyOption_jmptest_Test8TestBodyEv, symObjAddr: 0x6A8, symBinAddr: 0x100002404, symSize: 0x1DC }
  - { offset: 0xE7CE, size: 0x8, addend: 0x0, symName: __ZN34CPUTestAssemblyOption_beqtest_TestD1Ev, symObjAddr: 0x884, symBinAddr: 0x1000025E0, symSize: 0x2C }
  - { offset: 0xE7F6, size: 0x8, addend: 0x0, symName: __ZN34CPUTestAssemblyOption_beqtest_TestD0Ev, symObjAddr: 0x8B0, symBinAddr: 0x10000260C, symSize: 0x30 }
  - { offset: 0xE81F, size: 0x8, addend: 0x0, symName: __ZN7testing4Test5SetupEv, symObjAddr: 0x8E0, symBinAddr: 0x10000263C, symSize: 0x14 }
  - { offset: 0xE843, size: 0x8, addend: 0x0, symName: __ZN34CPUTestAssemblyOption_jmptest_TestD1Ev, symObjAddr: 0x8F4, symBinAddr: 0x100002650, symSize: 0x2C }
  - { offset: 0xE86B, size: 0x8, addend: 0x0, symName: __ZN34CPUTestAssemblyOption_jmptest_TestD0Ev, symObjAddr: 0x920, symBinAddr: 0x10000267C, symSize: 0x30 }
  - { offset: 0xE893, size: 0x8, addend: 0x0, symName: __ZN7testing8internal12CodeLocationC2ENSt3__112basic_stringIcNS2_11char_traitsIcEENS2_9allocatorIcEEEEi, symObjAddr: 0x950, symBinAddr: 0x1000026AC, symSize: 0x40 }
  - { offset: 0xE8DA, size: 0x8, addend: 0x0, symName: __ZNSt3__112basic_stringIcNS_11char_traitsIcEENS_9allocatorIcEEEC1B8ne180100EOS5_, symObjAddr: 0x990, symBinAddr: 0x1000026EC, symSize: 0x34 }
  - { offset: 0xE911, size: 0x8, addend: 0x0, symName: __ZNSt3__112basic_stringIcNS_11char_traitsIcEENS_9allocatorIcEEEC2B8ne180100EOS5_, symObjAddr: 0x9C4, symBinAddr: 0x100002720, symSize: 0xB8 }
  - { offset: 0xE978, size: 0x8, addend: 0x0, symName: __ZZNSt3__112basic_stringIcNS_11char_traitsIcEENS_9allocatorIcEEEC1B8ne180100EOS5_ENKUlRS5_E_clES7_, symObjAddr: 0xA7C, symBinAddr: 0x1000027D8, symSize: 0x40 }
  - { offset: 0xE9B0, size: 0x8, addend: 0x0, symName: __ZNSt3__117__compressed_pairINS_12basic_stringIcNS_11char_traitsIcEENS_9allocatorIcEEE5__repES5_E5firstB8ne180100Ev, symObjAddr: 0xACC, symBinAddr: 0x100002828, symSize: 0x24 }
  - { offset: 0xE9D5, size: 0x8, addend: 0x0, symName: __ZNKSt3__112basic_stringIcNS_11char_traitsIcEENS_9allocatorIcEEE14__annotate_newB8ne180100Em, symObjAddr: 0xAF0, symBinAddr: 0x10000284C, symSize: 0x14 }
  - { offset: 0xEA09, size: 0x8, addend: 0x0, symName: __ZNKSt3__112basic_stringIcNS_11char_traitsIcEENS_9allocatorIcEEE9__is_longB8ne180100Ev, symObjAddr: 0xB04, symBinAddr: 0x100002860, symSize: 0x38 }
  - { offset: 0xEA2E, size: 0x8, addend: 0x0, symName: __ZNKSt3__112basic_stringIcNS_11char_traitsIcEENS_9allocatorIcEEE4sizeB8ne180100Ev, symObjAddr: 0xB3C, symBinAddr: 0x100002898, symSize: 0x54 }
  - { offset: 0xEA53, size: 0x8, addend: 0x0, symName: __ZNKSt3__112basic_stringIcNS_11char_traitsIcEENS_9allocatorIcEEE17__annotate_deleteB8ne180100Ev, symObjAddr: 0xB90, symBinAddr: 0x1000028EC, symSize: 0x10 }
  - { offset: 0xEA78, size: 0x8, addend: 0x0, symName: __ZNSt3__122__compressed_pair_elemINS_12basic_stringIcNS_11char_traitsIcEENS_9allocatorIcEEE5__repELi0ELb0EE5__getB8ne180100Ev, symObjAddr: 0xBA0, symBinAddr: 0x1000028FC, symSize: 0x14 }
  - { offset: 0xEA9D, size: 0x8, addend: 0x0, symName: __ZNKSt3__117__compressed_pairINS_12basic_stringIcNS_11char_traitsIcEENS_9allocatorIcEEE5__repES5_E5firstB8ne180100Ev, symObjAddr: 0xBB4, symBinAddr: 0x100002910, symSize: 0x24 }
  - { offset: 0xEAC2, size: 0x8, addend: 0x0, symName: __ZNKSt3__122__compressed_pair_elemINS_12basic_stringIcNS_11char_traitsIcEENS_9allocatorIcEEE5__repELi0ELb0EE5__getB8ne180100Ev, symObjAddr: 0xBD8, symBinAddr: 0x100002934, symSize: 0x14 }
  - { offset: 0xEAE7, size: 0x8, addend: 0x0, symName: __ZNKSt3__112basic_stringIcNS_11char_traitsIcEENS_9allocatorIcEEE15__get_long_sizeB8ne180100Ev, symObjAddr: 0xBEC, symBinAddr: 0x100002948, symSize: 0x28 }
  - { offset: 0xEB0C, size: 0x8, addend: 0x0, symName: __ZNKSt3__112basic_stringIcNS_11char_traitsIcEENS_9allocatorIcEEE16__get_short_sizeB8ne180100Ev, symObjAddr: 0xC14, symBinAddr: 0x100002970, symSize: 0x34 }
  - { offset: 0xEB31, size: 0x8, addend: 0x0, symName: __ZN7testing8internal15TestFactoryImplI34CPUTestAssemblyOption_beqtest_TestEC2Ev, symObjAddr: 0xC48, symBinAddr: 0x1000029A4, symSize: 0x3C }
  - { offset: 0xEB5D, size: 0x8, addend: 0x0, symName: __ZN7testing8internal15TestFactoryBaseC2Ev, symObjAddr: 0xC84, symBinAddr: 0x1000029E0, symSize: 0x24 }
  - { offset: 0xEB86, size: 0x8, addend: 0x0, symName: __ZN7testing8internal15TestFactoryImplI34CPUTestAssemblyOption_beqtest_TestED1Ev, symObjAddr: 0xCA8, symBinAddr: 0x100002A04, symSize: 0x2C }
  - { offset: 0xEBB2, size: 0x8, addend: 0x0, symName: __ZN7testing8internal15TestFactoryImplI34CPUTestAssemblyOption_beqtest_TestED0Ev, symObjAddr: 0xCD4, symBinAddr: 0x100002A30, symSize: 0x30 }
  - { offset: 0xEBDE, size: 0x8, addend: 0x0, symName: __ZN7testing8internal15TestFactoryImplI34CPUTestAssemblyOption_beqtest_TestE10CreateTestEv, symObjAddr: 0xD04, symBinAddr: 0x100002A60, symSize: 0x58 }
  - { offset: 0xEC03, size: 0x8, addend: 0x0, symName: __ZN7testing8internal15TestFactoryBaseD1Ev, symObjAddr: 0xD5C, symBinAddr: 0x100002AB8, symSize: 0x14 }
  - { offset: 0xEC2C, size: 0x8, addend: 0x0, symName: __ZN7testing8internal15TestFactoryBaseD0Ev, symObjAddr: 0xD70, symBinAddr: 0x100002ACC, symSize: 0xC }
  - { offset: 0xEC55, size: 0x8, addend: 0x0, symName: __ZN7testing8internal15TestFactoryImplI34CPUTestAssemblyOption_beqtest_TestED2Ev, symObjAddr: 0xD7C, symBinAddr: 0x100002AD8, symSize: 0x2C }
  - { offset: 0xEC81, size: 0x8, addend: 0x0, symName: __ZN7testing8internal15TestFactoryBaseD2Ev, symObjAddr: 0xDA8, symBinAddr: 0x100002B04, symSize: 0x14 }
  - { offset: 0xECA9, size: 0x8, addend: 0x0, symName: __ZN34CPUTestAssemblyOption_beqtest_TestC1Ev, symObjAddr: 0xDBC, symBinAddr: 0x100002B18, symSize: 0x2C }
  - { offset: 0xECD1, size: 0x8, addend: 0x0, symName: __ZN34CPUTestAssemblyOption_beqtest_TestC2Ev, symObjAddr: 0xDE8, symBinAddr: 0x100002B44, symSize: 0x3C }
  - { offset: 0xECFA, size: 0x8, addend: 0x0, symName: __ZN7testing8internal12CodeLocationD2Ev, symObjAddr: 0xE24, symBinAddr: 0x100002B80, symSize: 0x2C }
  - { offset: 0xED26, size: 0x8, addend: 0x0, symName: __ZNK7testing15AssertionResult7messageEv, symObjAddr: 0xE50, symBinAddr: 0x100002BAC, symSize: 0x64 }
  - { offset: 0xED4B, size: 0x8, addend: 0x0, symName: __ZNKSt3__110unique_ptrINS_12basic_stringIcNS_11char_traitsIcEENS_9allocatorIcEEEENS_14default_deleteIS6_EEEptB8ne180100Ev, symObjAddr: 0xEE0, symBinAddr: 0x100002C3C, symSize: 0x28 }
  - { offset: 0xED70, size: 0x8, addend: 0x0, symName: __ZNKSt3__112basic_stringIcNS_11char_traitsIcEENS_9allocatorIcEEE5c_strB8ne180100Ev, symObjAddr: 0xF08, symBinAddr: 0x100002C64, symSize: 0x24 }
  - { offset: 0xED95, size: 0x8, addend: 0x0, symName: __ZNKSt3__110unique_ptrINS_12basic_stringIcNS_11char_traitsIcEENS_9allocatorIcEEEENS_14default_deleteIS6_EEEcvbB8ne180100Ev, symObjAddr: 0xF2C, symBinAddr: 0x100002C88, symSize: 0x34 }
  - { offset: 0xEDBA, size: 0x8, addend: 0x0, symName: __ZNKSt3__117__compressed_pairIPNS_12basic_stringIcNS_11char_traitsIcEENS_9allocatorIcEEEENS_14default_deleteIS6_EEE5firstB8ne180100Ev, symObjAddr: 0xF60, symBinAddr: 0x100002CBC, symSize: 0x24 }
  - { offset: 0xEDDF, size: 0x8, addend: 0x0, symName: __ZNKSt3__122__compressed_pair_elemIPNS_12basic_stringIcNS_11char_traitsIcEENS_9allocatorIcEEEELi0ELb0EE5__getB8ne180100Ev, symObjAddr: 0xF84, symBinAddr: 0x100002CE0, symSize: 0x14 }
  - { offset: 0xEE04, size: 0x8, addend: 0x0, symName: __ZNKSt3__112basic_stringIcNS_11char_traitsIcEENS_9allocatorIcEEE4dataB8ne180100Ev, symObjAddr: 0xF98, symBinAddr: 0x100002CF4, symSize: 0x28 }
  - { offset: 0xEE29, size: 0x8, addend: 0x0, symName: __ZNKSt3__112basic_stringIcNS_11char_traitsIcEENS_9allocatorIcEEE13__get_pointerB8ne180100Ev, symObjAddr: 0xFD4, symBinAddr: 0x100002D30, symSize: 0x54 }
  - { offset: 0xEE4E, size: 0x8, addend: 0x0, symName: __ZNKSt3__112basic_stringIcNS_11char_traitsIcEENS_9allocatorIcEEE18__get_long_pointerB8ne180100Ev, symObjAddr: 0x1028, symBinAddr: 0x100002D84, symSize: 0x28 }
  - { offset: 0xEE73, size: 0x8, addend: 0x0, symName: __ZNKSt3__112basic_stringIcNS_11char_traitsIcEENS_9allocatorIcEEE19__get_short_pointerB8ne180100Ev, symObjAddr: 0x1050, symBinAddr: 0x100002DAC, symSize: 0x28 }
  - { offset: 0xEE98, size: 0x8, addend: 0x0, symName: __ZNSt3__114pointer_traitsIPKcE10pointer_toB8ne180100ERS1_, symObjAddr: 0x1078, symBinAddr: 0x100002DD4, symSize: 0x14 }
  - { offset: 0xEEBB, size: 0x8, addend: 0x0, symName: __ZN7testing7MessageD2Ev, symObjAddr: 0x108C, symBinAddr: 0x100002DE8, symSize: 0x2C }
  - { offset: 0xEEE5, size: 0x8, addend: 0x0, symName: __ZNSt3__110unique_ptrINS_18basic_stringstreamIcNS_11char_traitsIcEENS_9allocatorIcEEEENS_14default_deleteIS6_EEED1B8ne180100Ev, symObjAddr: 0x10B8, symBinAddr: 0x100002E14, symSize: 0x2C }
  - { offset: 0xEF0D, size: 0x8, addend: 0x0, symName: __ZNSt3__110unique_ptrINS_18basic_stringstreamIcNS_11char_traitsIcEENS_9allocatorIcEEEENS_14default_deleteIS6_EEED2B8ne180100Ev, symObjAddr: 0x10E4, symBinAddr: 0x100002E40, symSize: 0x30 }
  - { offset: 0xEF36, size: 0x8, addend: 0x0, symName: __ZNSt3__110unique_ptrINS_18basic_stringstreamIcNS_11char_traitsIcEENS_9allocatorIcEEEENS_14default_deleteIS6_EEE5resetB8ne180100EPS6_, symObjAddr: 0x1114, symBinAddr: 0x100002E70, symSize: 0x78 }
  - { offset: 0xEF79, size: 0x8, addend: 0x0, symName: __ZNSt3__117__compressed_pairIPNS_18basic_stringstreamIcNS_11char_traitsIcEENS_9allocatorIcEEEENS_14default_deleteIS6_EEE5firstB8ne180100Ev, symObjAddr: 0x118C, symBinAddr: 0x100002EE8, symSize: 0x24 }
  - { offset: 0xEF9E, size: 0x8, addend: 0x0, symName: __ZNSt3__117__compressed_pairIPNS_18basic_stringstreamIcNS_11char_traitsIcEENS_9allocatorIcEEEENS_14default_deleteIS6_EEE6secondB8ne180100Ev, symObjAddr: 0x11B0, symBinAddr: 0x100002F0C, symSize: 0x24 }
  - { offset: 0xEFC3, size: 0x8, addend: 0x0, symName: __ZNKSt3__114default_deleteINS_18basic_stringstreamIcNS_11char_traitsIcEENS_9allocatorIcEEEEEclB8ne180100EPS6_, symObjAddr: 0x11D4, symBinAddr: 0x100002F30, symSize: 0x4C }
  - { offset: 0xEFF6, size: 0x8, addend: 0x0, symName: __ZNSt3__122__compressed_pair_elemIPNS_18basic_stringstreamIcNS_11char_traitsIcEENS_9allocatorIcEEEELi0ELb0EE5__getB8ne180100Ev, symObjAddr: 0x1220, symBinAddr: 0x100002F7C, symSize: 0x14 }
  - { offset: 0xF01B, size: 0x8, addend: 0x0, symName: __ZNSt3__122__compressed_pair_elemINS_14default_deleteINS_18basic_stringstreamIcNS_11char_traitsIcEENS_9allocatorIcEEEEEELi1ELb1EE5__getB8ne180100Ev, symObjAddr: 0x1234, symBinAddr: 0x100002F90, symSize: 0x14 }
  - { offset: 0xF040, size: 0x8, addend: 0x0, symName: __ZN7testing15AssertionResultD2Ev, symObjAddr: 0x1248, symBinAddr: 0x100002FA4, symSize: 0x30 }
  - { offset: 0xF06A, size: 0x8, addend: 0x0, symName: __ZNSt3__110unique_ptrINS_12basic_stringIcNS_11char_traitsIcEENS_9allocatorIcEEEENS_14default_deleteIS6_EEED1B8ne180100Ev, symObjAddr: 0x1278, symBinAddr: 0x100002FD4, symSize: 0x2C }
  - { offset: 0xF092, size: 0x8, addend: 0x0, symName: __ZNSt3__110unique_ptrINS_12basic_stringIcNS_11char_traitsIcEENS_9allocatorIcEEEENS_14default_deleteIS6_EEED2B8ne180100Ev, symObjAddr: 0x12A4, symBinAddr: 0x100003000, symSize: 0x30 }
  - { offset: 0xF0BB, size: 0x8, addend: 0x0, symName: __ZNSt3__110unique_ptrINS_12basic_stringIcNS_11char_traitsIcEENS_9allocatorIcEEEENS_14default_deleteIS6_EEE5resetB8ne180100EPS6_, symObjAddr: 0x12D4, symBinAddr: 0x100003030, symSize: 0x78 }
  - { offset: 0xF0FE, size: 0x8, addend: 0x0, symName: __ZNSt3__117__compressed_pairIPNS_12basic_stringIcNS_11char_traitsIcEENS_9allocatorIcEEEENS_14default_deleteIS6_EEE5firstB8ne180100Ev, symObjAddr: 0x134C, symBinAddr: 0x1000030A8, symSize: 0x24 }
  - { offset: 0xF123, size: 0x8, addend: 0x0, symName: __ZNSt3__117__compressed_pairIPNS_12basic_stringIcNS_11char_traitsIcEENS_9allocatorIcEEEENS_14default_deleteIS6_EEE6secondB8ne180100Ev, symObjAddr: 0x1370, symBinAddr: 0x1000030CC, symSize: 0x24 }
  - { offset: 0xF148, size: 0x8, addend: 0x0, symName: __ZNKSt3__114default_deleteINS_12basic_stringIcNS_11char_traitsIcEENS_9allocatorIcEEEEEclB8ne180100EPS6_, symObjAddr: 0x1394, symBinAddr: 0x1000030F0, symSize: 0x4C }
  - { offset: 0xF17B, size: 0x8, addend: 0x0, symName: __ZNSt3__122__compressed_pair_elemIPNS_12basic_stringIcNS_11char_traitsIcEENS_9allocatorIcEEEELi0ELb0EE5__getB8ne180100Ev, symObjAddr: 0x13E0, symBinAddr: 0x10000313C, symSize: 0x14 }
  - { offset: 0xF1A0, size: 0x8, addend: 0x0, symName: __ZNSt3__122__compressed_pair_elemINS_14default_deleteINS_12basic_stringIcNS_11char_traitsIcEENS_9allocatorIcEEEEEELi1ELb1EE5__getB8ne180100Ev, symObjAddr: 0x13F4, symBinAddr: 0x100003150, symSize: 0x14 }
  - { offset: 0xF1C5, size: 0x8, addend: 0x0, symName: __ZN7testing8internal15TestFactoryImplI34CPUTestAssemblyOption_jmptest_TestEC2Ev, symObjAddr: 0x1408, symBinAddr: 0x100003164, symSize: 0x3C }
  - { offset: 0xF1F1, size: 0x8, addend: 0x0, symName: __ZN7testing8internal15TestFactoryImplI34CPUTestAssemblyOption_jmptest_TestED1Ev, symObjAddr: 0x1444, symBinAddr: 0x1000031A0, symSize: 0x2C }
  - { offset: 0xF21D, size: 0x8, addend: 0x0, symName: __ZN7testing8internal15TestFactoryImplI34CPUTestAssemblyOption_jmptest_TestED0Ev, symObjAddr: 0x1470, symBinAddr: 0x1000031CC, symSize: 0x30 }
  - { offset: 0xF249, size: 0x8, addend: 0x0, symName: __ZN7testing8internal15TestFactoryImplI34CPUTestAssemblyOption_jmptest_TestE10CreateTestEv, symObjAddr: 0x14A0, symBinAddr: 0x1000031FC, symSize: 0x58 }
  - { offset: 0xF26E, size: 0x8, addend: 0x0, symName: __ZN7testing8internal15TestFactoryImplI34CPUTestAssemblyOption_jmptest_TestED2Ev, symObjAddr: 0x14F8, symBinAddr: 0x100003254, symSize: 0x2C }
  - { offset: 0xF299, size: 0x8, addend: 0x0, symName: __ZN34CPUTestAssemblyOption_jmptest_TestC1Ev, symObjAddr: 0x1524, symBinAddr: 0x100003280, symSize: 0x2C }
  - { offset: 0xF2C1, size: 0x8, addend: 0x0, symName: __ZN34CPUTestAssemblyOption_jmptest_TestC2Ev, symObjAddr: 0x1550, symBinAddr: 0x1000032AC, symSize: 0x3C }
  - { offset: 0xF2E9, size: 0x8, addend: 0x0, symName: __ZN34CPUTestAssemblyOption_beqtest_TestD2Ev, symObjAddr: 0x158C, symBinAddr: 0x1000032E8, symSize: 0x2C }
  - { offset: 0xF311, size: 0x8, addend: 0x0, symName: __ZN34CPUTestAssemblyOption_jmptest_TestD2Ev, symObjAddr: 0x15B8, symBinAddr: 0x100003314, symSize: 0x2C }
  - { offset: 0xF339, size: 0x8, addend: 0x0, symName: __ZNSt3__112basic_stringIcNS_11char_traitsIcEENS_9allocatorIcEEEC2B8ne180100ILi0EEEPKc, symObjAddr: 0x15E4, symBinAddr: 0x100003340, symSize: 0x58 }
  - { offset: 0xF37B, size: 0x8, addend: 0x0, symName: __ZNSt3__117__compressed_pairINS_12basic_stringIcNS_11char_traitsIcEENS_9allocatorIcEEE5__repES5_EC1B8ne180100INS_18__default_init_tagESA_EEOT_OT0_, symObjAddr: 0x163C, symBinAddr: 0x100003398, symSize: 0x3C }
  - { offset: 0xF3D1, size: 0x8, addend: 0x0, symName: __ZNSt3__111char_traitsIcE6lengthB8ne180100EPKc, symObjAddr: 0x1678, symBinAddr: 0x1000033D4, symSize: 0x34 }
  - { offset: 0xF3F3, size: 0x8, addend: 0x0, symName: __ZNSt3__117__compressed_pairINS_12basic_stringIcNS_11char_traitsIcEENS_9allocatorIcEEE5__repES5_EC2B8ne180100INS_18__default_init_tagESA_EEOT_OT0_, symObjAddr: 0x16AC, symBinAddr: 0x100003408, symSize: 0x3C }
  - { offset: 0xF44A, size: 0x8, addend: 0x0, symName: __ZNSt3__122__compressed_pair_elemINS_12basic_stringIcNS_11char_traitsIcEENS_9allocatorIcEEE5__repELi0ELb0EEC2B8ne180100ENS_18__default_init_tagE, symObjAddr: 0x16E8, symBinAddr: 0x100003444, symSize: 0x14 }
  - { offset: 0xF47D, size: 0x8, addend: 0x0, symName: __ZNSt3__122__compressed_pair_elemINS_9allocatorIcEELi1ELb1EEC2B8ne180100ENS_18__default_init_tagE, symObjAddr: 0x16FC, symBinAddr: 0x100003458, symSize: 0x2C }
  - { offset: 0xF4B0, size: 0x8, addend: 0x0, symName: __ZNSt3__19allocatorIcEC2B8ne180100Ev, symObjAddr: 0x1728, symBinAddr: 0x100003484, symSize: 0x2C }
  - { offset: 0xF4D9, size: 0x8, addend: 0x0, symName: __ZNSt3__116__non_trivial_ifILb1ENS_9allocatorIcEEEC2B8ne180100Ev, symObjAddr: 0x1754, symBinAddr: 0x1000034B0, symSize: 0x14 }
  - { offset: 0xF502, size: 0x8, addend: 0x0, symName: __ZN7testing4Test13SetUpTestCaseEv, symObjAddr: 0x17D4, symBinAddr: 0x100003530, symSize: 0x4 }
  - { offset: 0xF516, size: 0x8, addend: 0x0, symName: __ZN7testing4Test14SetUpTestSuiteEv, symObjAddr: 0x17D8, symBinAddr: 0x100003534, symSize: 0x4 }
  - { offset: 0xF543, size: 0x8, addend: 0x0, symName: __ZN7testing8internal8GTestLog9GetStreamEv, symObjAddr: 0x1824, symBinAddr: 0x100003580, symSize: 0x18 }
  - { offset: 0xF586, size: 0x8, addend: 0x0, symName: __ZNKSt3__113basic_ostreamIcNS_11char_traitsIcEEE6sentrycvbB8ne180100Ev, symObjAddr: 0x1A28, symBinAddr: 0x100003784, symSize: 0x1C }
  - { offset: 0xF5AA, size: 0x8, addend: 0x0, symName: __ZNSt3__119ostreambuf_iteratorIcNS_11char_traitsIcEEEC1B8ne180100ERNS_13basic_ostreamIcS2_EE, symObjAddr: 0x1C84, symBinAddr: 0x1000039E0, symSize: 0x34 }
  - { offset: 0xF5E1, size: 0x8, addend: 0x0, symName: __ZNKSt3__18ios_base5flagsB8ne180100Ev, symObjAddr: 0x1CB8, symBinAddr: 0x100003A14, symSize: 0x18 }
  - { offset: 0xF608, size: 0x8, addend: 0x0, symName: __ZNKSt3__19basic_iosIcNS_11char_traitsIcEEE4fillB8ne180100Ev, symObjAddr: 0x1CD0, symBinAddr: 0x100003A2C, symSize: 0x64 }
  - { offset: 0xF62F, size: 0x8, addend: 0x0, symName: __ZNKSt3__119ostreambuf_iteratorIcNS_11char_traitsIcEEE6failedB8ne180100Ev, symObjAddr: 0x1D34, symBinAddr: 0x100003A90, symSize: 0x24 }
  - { offset: 0xF654, size: 0x8, addend: 0x0, symName: __ZNSt3__19basic_iosIcNS_11char_traitsIcEEE8setstateB8ne180100Ej, symObjAddr: 0x1D58, symBinAddr: 0x100003AB4, symSize: 0x2C }
  - { offset: 0xF688, size: 0x8, addend: 0x0, symName: __ZNKSt3__18ios_base5widthB8ne180100Ev, symObjAddr: 0x1D84, symBinAddr: 0x100003AE0, symSize: 0x18 }
  - { offset: 0xF6AF, size: 0x8, addend: 0x0, symName: __ZNSt3__115basic_streambufIcNS_11char_traitsIcEEE5sputnB8ne180100EPKcl, symObjAddr: 0x1D9C, symBinAddr: 0x100003AF8, symSize: 0x3C }
  - { offset: 0xF6EF, size: 0x8, addend: 0x0, symName: __ZNSt3__112basic_stringIcNS_11char_traitsIcEENS_9allocatorIcEEEC1B8ne180100Emc, symObjAddr: 0x1DD8, symBinAddr: 0x100003B34, symSize: 0x3C }
  - { offset: 0xF736, size: 0x8, addend: 0x0, symName: __ZNSt3__112basic_stringIcNS_11char_traitsIcEENS_9allocatorIcEEE4dataB8ne180100Ev, symObjAddr: 0x1E14, symBinAddr: 0x100003B70, symSize: 0x28 }
  - { offset: 0xF75B, size: 0x8, addend: 0x0, symName: __ZNSt3__18ios_base5widthB8ne180100El, symObjAddr: 0x1E3C, symBinAddr: 0x100003B98, symSize: 0x2C }
  - { offset: 0xF79F, size: 0x8, addend: 0x0, symName: __ZNSt3__112basic_stringIcNS_11char_traitsIcEENS_9allocatorIcEEEC2B8ne180100Emc, symObjAddr: 0x1E68, symBinAddr: 0x100003BC4, symSize: 0x4C }
  - { offset: 0xF7E6, size: 0x8, addend: 0x0, symName: __ZNSt3__112basic_stringIcNS_11char_traitsIcEENS_9allocatorIcEEE13__get_pointerB8ne180100Ev, symObjAddr: 0x1EC8, symBinAddr: 0x100003C24, symSize: 0x54 }
  - { offset: 0xF80B, size: 0x8, addend: 0x0, symName: __ZNSt3__112basic_stringIcNS_11char_traitsIcEENS_9allocatorIcEEE18__get_long_pointerB8ne180100Ev, symObjAddr: 0x1F1C, symBinAddr: 0x100003C78, symSize: 0x28 }
  - { offset: 0xF830, size: 0x8, addend: 0x0, symName: __ZNSt3__112basic_stringIcNS_11char_traitsIcEENS_9allocatorIcEEE19__get_short_pointerB8ne180100Ev, symObjAddr: 0x1F44, symBinAddr: 0x100003CA0, symSize: 0x28 }
  - { offset: 0xF855, size: 0x8, addend: 0x0, symName: __ZNSt3__114pointer_traitsIPcE10pointer_toB8ne180100ERc, symObjAddr: 0x1F6C, symBinAddr: 0x100003CC8, symSize: 0x14 }
  - { offset: 0xF877, size: 0x8, addend: 0x0, symName: __ZNSt3__119ostreambuf_iteratorIcNS_11char_traitsIcEEEC2B8ne180100ERNS_13basic_ostreamIcS2_EE, symObjAddr: 0x1F80, symBinAddr: 0x100003CDC, symSize: 0x54 }
  - { offset: 0xF8AE, size: 0x8, addend: 0x0, symName: __ZNKSt3__19basic_iosIcNS_11char_traitsIcEEE5rdbufB8ne180100Ev, symObjAddr: 0x1FD4, symBinAddr: 0x100003D30, symSize: 0x24 }
  - { offset: 0xF8D5, size: 0x8, addend: 0x0, symName: __ZNKSt3__18ios_base5rdbufB8ne180100Ev, symObjAddr: 0x1FF8, symBinAddr: 0x100003D54, symSize: 0x18 }
  - { offset: 0xF8FA, size: 0x8, addend: 0x0, symName: __ZNSt3__111char_traitsIcE11eq_int_typeB8ne180100Eii, symObjAddr: 0x2010, symBinAddr: 0x100003D6C, symSize: 0x28 }
  - { offset: 0xF92D, size: 0x8, addend: 0x0, symName: __ZNSt3__111char_traitsIcE3eofB8ne180100Ev, symObjAddr: 0x2038, symBinAddr: 0x100003D94, symSize: 0x8 }
  - { offset: 0xF941, size: 0x8, addend: 0x0, symName: __ZNKSt3__19basic_iosIcNS_11char_traitsIcEEE5widenB8ne180100Ec, symObjAddr: 0x2040, symBinAddr: 0x100003D9C, symSize: 0x84 }
  - { offset: 0xF9B9, size: 0x8, addend: 0x0, symName: __ZNKSt3__15ctypeIcE5widenB8ne180100Ec, symObjAddr: 0x20F0, symBinAddr: 0x100003E4C, symSize: 0x38 }
  - { offset: 0xF9ED, size: 0x8, addend: 0x0, symName: __ZNSt3__18ios_base8setstateB8ne180100Ej, symObjAddr: 0x2128, symBinAddr: 0x100003E84, symSize: 0x34 }
  - { offset: 0xFA23, size: 0x8, addend: 0x0, symName: __ZN7testing4Test16TearDownTestCaseEv, symObjAddr: 0x215C, symBinAddr: 0x100003EB8, symSize: 0x4 }
  - { offset: 0xFA37, size: 0x8, addend: 0x0, symName: __ZN7testing4Test17TearDownTestSuiteEv, symObjAddr: 0x2160, symBinAddr: 0x100003EBC, symSize: 0x4 }
  - { offset: 0xFA4A, size: 0x8, addend: 0x0, symName: __ZN7testing8internal19FormatForComparisonItiE6FormatERKt, symObjAddr: 0x2310, symBinAddr: 0x10000406C, symSize: 0x2C }
  - { offset: 0xFA6D, size: 0x8, addend: 0x0, symName: __ZNSt3__118basic_stringstreamIcNS_11char_traitsIcEENS_9allocatorIcEEEC1B8ne180100Ev, symObjAddr: 0x2404, symBinAddr: 0x100004160, symSize: 0xF4 }
  - { offset: 0xFA9A, size: 0x8, addend: 0x0, symName: __ZN7testing8internal21UniversalTersePrinterItE5PrintERKtPNSt3__113basic_ostreamIcNS5_11char_traitsIcEEEE, symObjAddr: 0x24F8, symBinAddr: 0x100004254, symSize: 0x2C }
  - { offset: 0xFACD, size: 0x8, addend: 0x0, symName: __ZNKSt3__118basic_stringstreamIcNS_11char_traitsIcEENS_9allocatorIcEEE3strB8ne180100Ev, symObjAddr: 0x2524, symBinAddr: 0x100004280, symSize: 0x30 }
  - { offset: 0xFAF7, size: 0x8, addend: 0x0, symName: __ZNSt3__118basic_stringstreamIcNS_11char_traitsIcEENS_9allocatorIcEEED1Ev, symObjAddr: 0x2554, symBinAddr: 0x1000042B0, symSize: 0x40 }
  - { offset: 0xFB22, size: 0x8, addend: 0x0, symName: __ZNSt3__19basic_iosIcNS_11char_traitsIcEEEC2B8ne180100Ev, symObjAddr: 0x2594, symBinAddr: 0x1000042F0, symSize: 0x3C }
  - { offset: 0xFB4A, size: 0x8, addend: 0x0, symName: __ZNSt3__114basic_iostreamIcNS_11char_traitsIcEEEC2B8ne180100EPNS_15basic_streambufIcS2_EE, symObjAddr: 0x25D0, symBinAddr: 0x10000432C, symSize: 0xAC }
  - { offset: 0xFB8D, size: 0x8, addend: 0x0, symName: __ZNSt3__115basic_stringbufIcNS_11char_traitsIcEENS_9allocatorIcEEEC1B8ne180100Ej, symObjAddr: 0x267C, symBinAddr: 0x1000043D8, symSize: 0x34 }
  - { offset: 0xFBC5, size: 0x8, addend: 0x0, symName: __ZNSt3__18ios_baseC2B8ne180100Ev, symObjAddr: 0x26B0, symBinAddr: 0x10000440C, symSize: 0x24 }
  - { offset: 0xFBED, size: 0x8, addend: 0x0, symName: __ZNSt3__113basic_istreamIcNS_11char_traitsIcEEEC2B8ne180100EPNS_15basic_streambufIcS2_EE, symObjAddr: 0x26D4, symBinAddr: 0x100004430, symSize: 0x64 }
  - { offset: 0xFC30, size: 0x8, addend: 0x0, symName: __ZNSt3__113basic_ostreamIcNS_11char_traitsIcEEEC2B8ne180100Ev, symObjAddr: 0x2738, symBinAddr: 0x100004494, symSize: 0x34 }
  - { offset: 0xFC65, size: 0x8, addend: 0x0, symName: __ZNSt3__19basic_iosIcNS_11char_traitsIcEEE4initB8ne180100EPNS_15basic_streambufIcS2_EE, symObjAddr: 0x276C, symBinAddr: 0x1000044C8, symSize: 0x44 }
  - { offset: 0xFC9A, size: 0x8, addend: 0x0, symName: __ZNSt3__115basic_stringbufIcNS_11char_traitsIcEENS_9allocatorIcEEEC2B8ne180100Ej, symObjAddr: 0x27B0, symBinAddr: 0x10000450C, symSize: 0x58 }
  - { offset: 0xFCD1, size: 0x8, addend: 0x0, symName: __ZNSt3__112basic_stringIcNS_11char_traitsIcEENS_9allocatorIcEEEC1B8ne180100Ev, symObjAddr: 0x2808, symBinAddr: 0x100004564, symSize: 0x2C }
  - { offset: 0xFCF9, size: 0x8, addend: 0x0, symName: __ZNSt3__112basic_stringIcNS_11char_traitsIcEENS_9allocatorIcEEEC2B8ne180100Ev, symObjAddr: 0x2834, symBinAddr: 0x100004590, symSize: 0x48 }
  - { offset: 0xFD26, size: 0x8, addend: 0x0, symName: __ZNSt3__117__compressed_pairINS_12basic_stringIcNS_11char_traitsIcEENS_9allocatorIcEEE5__repES5_EC1B8ne180100INS_16__value_init_tagENS_18__default_init_tagEEEOT_OT0_, symObjAddr: 0x287C, symBinAddr: 0x1000045D8, symSize: 0x3C }
  - { offset: 0xFD7C, size: 0x8, addend: 0x0, symName: __ZNSt3__117__compressed_pairINS_12basic_stringIcNS_11char_traitsIcEENS_9allocatorIcEEE5__repES5_EC2B8ne180100INS_16__value_init_tagENS_18__default_init_tagEEEOT_OT0_, symObjAddr: 0x28B8, symBinAddr: 0x100004614, symSize: 0x3C }
  - { offset: 0xFDD3, size: 0x8, addend: 0x0, symName: __ZNSt3__122__compressed_pair_elemINS_12basic_stringIcNS_11char_traitsIcEENS_9allocatorIcEEE5__repELi0ELb0EEC2B8ne180100ENS_16__value_init_tagE, symObjAddr: 0x28F4, symBinAddr: 0x100004650, symSize: 0x20 }
  - { offset: 0xFE06, size: 0x8, addend: 0x0, symName: __ZN7testing8internal16UniversalPrinterItE5PrintERKtPNSt3__113basic_ostreamIcNS5_11char_traitsIcEEEE, symObjAddr: 0x2940, symBinAddr: 0x10000469C, symSize: 0x2C }
  - { offset: 0xFE38, size: 0x8, addend: 0x0, symName: __ZN7testing8internal52internal_stream_operator_without_lexical_name_lookup13StreamPrinter10PrintValueItvEEDTcvvlsdefp0_fp_ERKT_PNSt3__113basic_ostreamIcNS8_11char_traitsIcEEEE, symObjAddr: 0x29C4, symBinAddr: 0x100004720, symSize: 0x30 }
  - { offset: 0xFE73, size: 0x8, addend: 0x0, symName: __ZNSt3__118basic_stringstreamIcNS_11char_traitsIcEENS_9allocatorIcEEED2Ev, symObjAddr: 0x29F4, symBinAddr: 0x100004750, symSize: 0x6C }
  - { offset: 0xFEAB, size: 0x8, addend: 0x0, symName: __ZThn16_NSt3__118basic_stringstreamIcNS_11char_traitsIcEENS_9allocatorIcEEED1Ev, symObjAddr: 0x2A60, symBinAddr: 0x1000047BC, symSize: 0x1C }
  - { offset: 0xFEC2, size: 0x8, addend: 0x0, symName: __ZTv0_n24_NSt3__118basic_stringstreamIcNS_11char_traitsIcEENS_9allocatorIcEEED1Ev, symObjAddr: 0x2A7C, symBinAddr: 0x1000047D8, symSize: 0x28 }
  - { offset: 0xFEDE, size: 0x8, addend: 0x0, symName: __ZNSt3__115basic_stringbufIcNS_11char_traitsIcEENS_9allocatorIcEEED1Ev, symObjAddr: 0x2AA4, symBinAddr: 0x100004800, symSize: 0x2C }
  - { offset: 0xFF0A, size: 0x8, addend: 0x0, symName: __ZNSt3__115basic_stringbufIcNS_11char_traitsIcEENS_9allocatorIcEEED2Ev, symObjAddr: 0x2AD0, symBinAddr: 0x10000482C, symSize: 0x48 }
  - { offset: 0xFF35, size: 0x8, addend: 0x0, symName: __ZN7testing8internal19FormatForComparisonIitE6FormatERKi, symObjAddr: 0x2B18, symBinAddr: 0x100004874, symSize: 0x2C }
  - { offset: 0xFF58, size: 0x8, addend: 0x0, symName: __ZN7testing8internal21UniversalTersePrinterIiE5PrintERKiPNSt3__113basic_ostreamIcNS5_11char_traitsIcEEEE, symObjAddr: 0x2C0C, symBinAddr: 0x100004968, symSize: 0x2C }
  - { offset: 0xFF8A, size: 0x8, addend: 0x0, symName: __ZN7testing8internal16UniversalPrinterIiE5PrintERKiPNSt3__113basic_ostreamIcNS5_11char_traitsIcEEEE, symObjAddr: 0x2C64, symBinAddr: 0x1000049C0, symSize: 0x2C }
  - { offset: 0xFFBC, size: 0x8, addend: 0x0, symName: __ZN7testing8internal52internal_stream_operator_without_lexical_name_lookup13StreamPrinter10PrintValueIivEEDTcvvlsdefp0_fp_ERKT_PNSt3__113basic_ostreamIcNS8_11char_traitsIcEEEE, symObjAddr: 0x2CE8, symBinAddr: 0x100004A44, symSize: 0x30 }
  - { offset: 0x199FA, size: 0x8, addend: 0x0, symName: __ZNSt3__17getlineB8ne180100IcNS_11char_traitsIcEENS_9allocatorIcEEEERNS_13basic_istreamIT_T0_EES9_RNS_12basic_stringIS6_S7_T1_EE, symObjAddr: 0x7F4, symBinAddr: 0x100005514, symSize: 0x5C }
  - { offset: 0x19A52, size: 0x8, addend: 0x0, symName: __ZNSt3__1eqB8ne180100IcNS_11char_traitsIcEENS_9allocatorIcEEEEbRKNS_12basic_stringIT_T0_T1_EEPKS6_, symObjAddr: 0x850, symBinAddr: 0x100005570, symSize: 0xAC }
  - { offset: 0x1A3D3, size: 0x8, addend: 0x0, symName: __ZNSt3__1rsB8ne180100IcNS_11char_traitsIcEENS_9allocatorIcEEEERNS_13basic_istreamIT_T0_EES9_RNS_12basic_stringIS6_S7_T1_EE, symObjAddr: 0xA58, symBinAddr: 0x100005778, symSize: 0x308 }
  - { offset: 0x1A4A0, size: 0x8, addend: 0x0, symName: __ZNSt3__1neB8ne180100IPcEEbRKNS_11__wrap_iterIT_EES6_, symObjAddr: 0xF10, symBinAddr: 0x100005C30, symSize: 0x34 }
  - { offset: 0x1A4E3, size: 0x8, addend: 0x0, symName: __ZNSt3__1lsB8ne180100IcNS_11char_traitsIcEENS_9allocatorIcEEEERNS_13basic_ostreamIT_T0_EES9_RKNS_12basic_stringIS6_S7_T1_EE, symObjAddr: 0xFD8, symBinAddr: 0x100005CF8, symSize: 0x4C }
  - { offset: 0x1A53B, size: 0x8, addend: 0x0, symName: __ZNSt3__1plB8ne180100IcNS_11char_traitsIcEENS_9allocatorIcEEEENS_12basic_stringIT_T0_T1_EEOS9_PKS6_, symObjAddr: 0x1024, symBinAddr: 0x100005D44, symSize: 0x40 }
  - { offset: 0x1A59E, size: 0x8, addend: 0x0, symName: __ZNSt3__1neB8ne180100IPtEEbRKNS_11__wrap_iterIT_EES6_, symObjAddr: 0x1DB8, symBinAddr: 0x100006A98, symSize: 0x34 }
  - { offset: 0x1A5E1, size: 0x8, addend: 0x0, symName: __ZNSt3__1eqB8ne180100IPcEEbRKNS_11__wrap_iterIT_EES6_, symObjAddr: 0x2704, symBinAddr: 0x1000073E4, symSize: 0x48 }
  - { offset: 0x1A624, size: 0x8, addend: 0x0, symName: __ZNSt3__1eqB8ne180100IPtEEbRKNS_11__wrap_iterIT_EES6_, symObjAddr: 0x2900, symBinAddr: 0x1000074BC, symSize: 0x48 }
  - { offset: 0x1A667, size: 0x8, addend: 0x0, symName: __ZNSt3__17getlineB8ne180100IcNS_11char_traitsIcEENS_9allocatorIcEEEERNS_13basic_istreamIT_T0_EES9_RNS_12basic_stringIS6_S7_T1_EES6_, symObjAddr: 0x362C, symBinAddr: 0x10000751C, symSize: 0x238 }
  - { offset: 0x1A912, size: 0x8, addend: 0x0, symName: __ZNSt3__112__to_addressB8ne180100INS_12basic_stringIcNS_11char_traitsIcEENS_9allocatorIcEEEEEEPT_S8_, symObjAddr: 0x40C8, symBinAddr: 0x100007FB8, symSize: 0x14 }
  - { offset: 0x1A947, size: 0x8, addend: 0x0, symName: __ZNSt3__119__libcpp_deallocateB8ne180100EPvmm, symObjAddr: 0x4148, symBinAddr: 0x100008038, symSize: 0x60 }
  - { offset: 0x1A9AD, size: 0x8, addend: 0x0, symName: __ZNSt3__124__is_overaligned_for_newB8ne180100Em, symObjAddr: 0x41A8, symBinAddr: 0x100008098, symSize: 0x20 }
  - { offset: 0x1A9DB, size: 0x8, addend: 0x0, symName: __ZNSt3__127__do_deallocate_handle_sizeB8ne180100IJSt11align_val_tEEEvPvmDpT_, symObjAddr: 0x41C8, symBinAddr: 0x1000080B8, symSize: 0x30 }
  - { offset: 0x1AA30, size: 0x8, addend: 0x0, symName: __ZNSt3__127__do_deallocate_handle_sizeB8ne180100IJEEEvPvmDpT_, symObjAddr: 0x41F8, symBinAddr: 0x1000080E8, symSize: 0x28 }
  - { offset: 0x1AA6F, size: 0x8, addend: 0x0, symName: __ZNSt3__124__libcpp_operator_deleteB8ne180100IJPvSt11align_val_tEEEvDpT_, symObjAddr: 0x4220, symBinAddr: 0x100008110, symSize: 0x2C }
  - { offset: 0x1AABB, size: 0x8, addend: 0x0, symName: __ZNSt3__124__libcpp_operator_deleteB8ne180100IJPvEEEvDpT_, symObjAddr: 0x424C, symBinAddr: 0x10000813C, symSize: 0x24 }
  - { offset: 0x1ACDC, size: 0x8, addend: 0x0, symName: __ZNSt3__13maxB8ne180100ImEERKT_S3_S3_, symObjAddr: 0x4E48, symBinAddr: 0x100008B28, symSize: 0x2C }
  - { offset: 0x1AD1F, size: 0x8, addend: 0x0, symName: __ZNSt3__13minB8ne180100ImEERKT_S3_S3_, symObjAddr: 0x4E74, symBinAddr: 0x100008B54, symSize: 0x2C }
  - { offset: 0x1AD62, size: 0x8, addend: 0x0, symName: __ZNSt3__13minB8ne180100ImNS_6__lessIvvEEEERKT_S5_S5_T0_, symObjAddr: 0x4EEC, symBinAddr: 0x100008BCC, symSize: 0x54 }
  - { offset: 0x1AE04, size: 0x8, addend: 0x0, symName: __ZNSt3__120__throw_length_errorB8ne180100EPKc, symObjAddr: 0x4FC4, symBinAddr: 0x100008CA4, symSize: 0x64 }
  - { offset: 0x1AE2C, size: 0x8, addend: 0x0, symName: __ZNSt3__13maxB8ne180100ImNS_6__lessIvvEEEERKT_S5_S5_T0_, symObjAddr: 0x50A0, symBinAddr: 0x100008D80, symSize: 0x54 }
  - { offset: 0x1AE86, size: 0x8, addend: 0x0, symName: __ZNSt3__119__allocate_at_leastB8ne180100INS_9allocatorINS_12basic_stringIcNS_11char_traitsIcEENS1_IcEEEEEEEENS_19__allocation_resultINS_16allocator_traitsIT_E7pointerEEERSA_m, symObjAddr: 0x5210, symBinAddr: 0x100008EF0, symSize: 0x40 }
  - { offset: 0x1AEC9, size: 0x8, addend: 0x0, symName: __ZNSt3__117__libcpp_allocateB8ne180100Emm, symObjAddr: 0x5398, symBinAddr: 0x100009078, symSize: 0x60 }
  - { offset: 0x1AF24, size: 0x8, addend: 0x0, symName: __ZNSt3__121__libcpp_operator_newB8ne180100IJmSt11align_val_tEEEPvDpT_, symObjAddr: 0x53F8, symBinAddr: 0x1000090D8, symSize: 0x2C }
  - { offset: 0x1AF74, size: 0x8, addend: 0x0, symName: __ZNSt3__121__libcpp_operator_newB8ne180100IJmEEEPvDpT_, symObjAddr: 0x5424, symBinAddr: 0x100009104, symSize: 0x24 }
  - { offset: 0x1AFAF, size: 0x8, addend: 0x0, symName: __ZNSt3__142__uninitialized_allocator_move_if_noexceptB8ne180100INS_9allocatorINS_12basic_stringIcNS_11char_traitsIcEENS1_IcEEEEEENS_16reverse_iteratorIPS6_EESA_SA_EET2_RT_T0_T1_SB_, symObjAddr: 0x54AC, symBinAddr: 0x10000918C, symSize: 0x12C }
  - { offset: 0x1B04F, size: 0x8, addend: 0x0, symName: __ZNSt3__14swapB8ne180100IPNS_12basic_stringIcNS_11char_traitsIcEENS_9allocatorIcEEEEEENS_9enable_ifIXaasr21is_move_constructibleIT_EE5valuesr18is_move_assignableIS9_EE5valueEvE4typeERS9_SC_, symObjAddr: 0x5624, symBinAddr: 0x100009304, symSize: 0x3C }
  - { offset: 0x1B0A1, size: 0x8, addend: 0x0, symName: __ZNSt3__122__make_exception_guardB8ne180100INS_29_AllocatorDestroyRangeReverseINS_9allocatorINS_12basic_stringIcNS_11char_traitsIcEENS2_IcEEEEEENS_16reverse_iteratorIPS7_EEEEEENS_28__exception_guard_exceptionsIT_EESE_, symObjAddr: 0x5674, symBinAddr: 0x100009354, symSize: 0x4C }
  - { offset: 0x1B0D7, size: 0x8, addend: 0x0, symName: __ZNSt3__1neB8ne180100IPNS_12basic_stringIcNS_11char_traitsIcEENS_9allocatorIcEEEES7_EEbRKNS_16reverse_iteratorIT_EERKNS8_IT0_EE, symObjAddr: 0x5704, symBinAddr: 0x1000093E4, symSize: 0x48 }
  - { offset: 0x1B123, size: 0x8, addend: 0x0, symName: __ZNSt3__112__to_addressB8ne180100INS_16reverse_iteratorIPNS_12basic_stringIcNS_11char_traitsIcEENS_9allocatorIcEEEEEEvEEu7__decayIDTclsr19__to_address_helperIT_EE6__callclsr3stdE7declvalIRKSA_EEEEESC_, symObjAddr: 0x5780, symBinAddr: 0x100009460, symSize: 0x24 }
  - { offset: 0x1B183, size: 0x8, addend: 0x0, symName: __ZNSt3__119__allocator_destroyB8ne180100INS_9allocatorINS_12basic_stringIcNS_11char_traitsIcEENS1_IcEEEEEENS_16reverse_iteratorINS8_IPS6_EEEESB_EEvRT_T0_T1_, symObjAddr: 0x5B9C, symBinAddr: 0x100009740, symSize: 0x70 }
  - { offset: 0x1B1E8, size: 0x8, addend: 0x0, symName: __ZNSt3__1neB8ne180100INS_16reverse_iteratorIPNS_12basic_stringIcNS_11char_traitsIcEENS_9allocatorIcEEEEEES9_EEbRKNS1_IT_EERKNS1_IT0_EE, symObjAddr: 0x5C48, symBinAddr: 0x1000097EC, symSize: 0x60 }
  - { offset: 0x1B234, size: 0x8, addend: 0x0, symName: __ZNSt3__112__to_addressB8ne180100INS_16reverse_iteratorINS1_IPNS_12basic_stringIcNS_11char_traitsIcEENS_9allocatorIcEEEEEEEEvEEu7__decayIDTclsr19__to_address_helperIT_EE6__callclsr3stdE7declvalIRKSB_EEEEESD_, symObjAddr: 0x5CA8, symBinAddr: 0x10000984C, symSize: 0x24 }
  - { offset: 0x1B294, size: 0x8, addend: 0x0, symName: __ZNSt3__112__to_addressB8ne180100ItEEPT_S2_, symObjAddr: 0x643C, symBinAddr: 0x100009EEC, symSize: 0x14 }
  - { offset: 0x1B2C9, size: 0x8, addend: 0x0, symName: __ZNSt3__122__make_exception_guardB8ne180100INS_6vectorItNS_9allocatorItEEE16__destroy_vectorEEENS_28__exception_guard_exceptionsIT_EES7_, symObjAddr: 0x67AC, symBinAddr: 0x10000A25C, symSize: 0x40 }
  - { offset: 0x1B2FE, size: 0x8, addend: 0x0, symName: __ZNSt3__119__allocate_at_leastB8ne180100INS_9allocatorItEEEENS_19__allocation_resultINS_16allocator_traitsIT_E7pointerEEERS5_m, symObjAddr: 0x6A40, symBinAddr: 0x10000A4F0, symSize: 0x40 }
  - { offset: 0x1B341, size: 0x8, addend: 0x0, symName: __ZNSt3__130__uninitialized_allocator_copyB8ne180100INS_9allocatorItEEPtS3_S3_EET2_RT_T0_T1_S4_, symObjAddr: 0x6BC0, symBinAddr: 0x10000A670, symSize: 0x80 }
  - { offset: 0x1B3DE, size: 0x8, addend: 0x0, symName: __ZNSt3__114__unwrap_rangeB8ne180100IPtS1_EENS_4pairIT0_S3_EET_S5_, symObjAddr: 0x6CB0, symBinAddr: 0x10000A760, symSize: 0x60 }
  - { offset: 0x1B42A, size: 0x8, addend: 0x0, symName: __ZNSt3__135__uninitialized_allocator_copy_implB8ne180100INS_9allocatorItEEtttLPv0EEEPT2_RT_PT0_S9_S5_, symObjAddr: 0x6D10, symBinAddr: 0x10000A7C0, symSize: 0x38 }
  - { offset: 0x1B4AB, size: 0x8, addend: 0x0, symName: __ZNSt3__113__unwrap_iterB8ne180100IPtNS_18__unwrap_iter_implIS1_Lb1EEELi0EEEDTclsrT0_8__unwrapclsr3stdE7declvalIT_EEEES5_, symObjAddr: 0x6D48, symBinAddr: 0x10000A7F8, symSize: 0x24 }
  - { offset: 0x1B4EF, size: 0x8, addend: 0x0, symName: __ZNSt3__113__rewrap_iterB8ne180100IPtS1_NS_18__unwrap_iter_implIS1_Lb1EEEEET_S4_T0_, symObjAddr: 0x6D6C, symBinAddr: 0x10000A81C, symSize: 0x3C }
  - { offset: 0x1B544, size: 0x8, addend: 0x0, symName: __ZNSt3__19make_pairB8ne180100IPtS1_EENS_4pairINS_18__unwrap_ref_decayIT_E4typeENS3_IT0_E4typeEEEOS4_OS7_, symObjAddr: 0x6DA8, symBinAddr: 0x10000A858, symSize: 0x38 }
  - { offset: 0x1B696, size: 0x8, addend: 0x0, symName: __ZNSt3__14copyB8ne180100IPtS1_EET0_T_S3_S2_, symObjAddr: 0x6E50, symBinAddr: 0x10000A900, symSize: 0x40 }
  - { offset: 0x1B6F0, size: 0x8, addend: 0x0, symName: __ZNSt3__16__copyB8ne180100INS_17_ClassicAlgPolicyEPtS2_S2_EENS_4pairIT0_T2_EES4_T1_S5_, symObjAddr: 0x6E90, symBinAddr: 0x10000A940, symSize: 0x44 }
  - { offset: 0x1B75C, size: 0x8, addend: 0x0, symName: __ZNSt3__123__dispatch_copy_or_moveB8ne180100INS_17_ClassicAlgPolicyENS_11__copy_loopIS1_EENS_14__copy_trivialEPtS5_S5_EENS_4pairIT2_T4_EES7_T3_S8_, symObjAddr: 0x6ED4, symBinAddr: 0x10000A984, symSize: 0x44 }
  - { offset: 0x1B7DA, size: 0x8, addend: 0x0, symName: __ZNSt3__121__unwrap_and_dispatchB8ne180100INS_10__overloadINS_11__copy_loopINS_17_ClassicAlgPolicyEEENS_14__copy_trivialEEEPtS7_S7_Li0EEENS_4pairIT0_T2_EES9_T1_SA_, symObjAddr: 0x6F18, symBinAddr: 0x10000A9C8, symSize: 0xB4 }
  - { offset: 0x1B8B0, size: 0x8, addend: 0x0, symName: __ZNSt3__114__rewrap_rangeB8ne180100IPtS1_EET_S2_T0_, symObjAddr: 0x7014, symBinAddr: 0x10000AAC4, symSize: 0x2C }
  - { offset: 0x1B8FC, size: 0x8, addend: 0x0, symName: __ZNSt3__119__copy_trivial_implB8ne180100IttEENS_4pairIPT_PT0_EES3_S3_S5_, symObjAddr: 0x7040, symBinAddr: 0x10000AAF0, symSize: 0x80 }
  - { offset: 0x1B965, size: 0x8, addend: 0x0, symName: __ZNSt3__119__constexpr_memmoveB8ne180100IttLi0EEEPT_S2_PT0_NS_15__element_countE, symObjAddr: 0x70C0, symBinAddr: 0x10000AB70, symSize: 0x64 }
  - { offset: 0x1B9D4, size: 0x8, addend: 0x0, symName: __ZNSt3__19make_pairB8ne180100IRPtS1_EENS_4pairINS_18__unwrap_ref_decayIT_E4typeENS4_IT0_E4typeEEEOS5_OS8_, symObjAddr: 0x7124, symBinAddr: 0x10000ABD4, symSize: 0x38 }
  - { offset: 0x1BA76, size: 0x8, addend: 0x0, symName: __ZNSt3__110__str_findB8ne180100IcmNS_11char_traitsIcEELm18446744073709551615EEET0_PKT_S3_S6_S3_S3_, symObjAddr: 0x73DC, symBinAddr: 0x10000AE8C, symSize: 0xE4 }
  - { offset: 0x1BB1D, size: 0x8, addend: 0x0, symName: __ZNSt3__118__search_substringB8ne180100IcNS_11char_traitsIcEEEEPKT_S5_S5_S5_S5_, symObjAddr: 0x74C0, symBinAddr: 0x10000AF70, symSize: 0x154 }
  - { offset: 0x1BBB7, size: 0x8, addend: 0x0, symName: __ZNSt3__118__constexpr_memchrB8ne180100IKccEEPT_S3_T0_m, symObjAddr: 0x76B8, symBinAddr: 0x10000B168, symSize: 0x40 }
  - { offset: 0x1BC2F, size: 0x8, addend: 0x0, symName: __ZNSt3__142__uninitialized_allocator_move_if_noexceptB8ne180100INS_9allocatorItEENS_16reverse_iteratorIPtEES5_tvEET1_RT_T0_S9_S6_, symObjAddr: 0x7DB0, symBinAddr: 0x10000B860, symSize: 0x78 }
  - { offset: 0x1BCAC, size: 0x8, addend: 0x0, symName: __ZNSt3__14swapB8ne180100IPtEENS_9enable_ifIXaasr21is_move_constructibleIT_EE5valuesr18is_move_assignableIS3_EE5valueEvE4typeERS3_S6_, symObjAddr: 0x7E74, symBinAddr: 0x10000B924, symSize: 0x3C }
  - { offset: 0x1BCFE, size: 0x8, addend: 0x0, symName: __ZNSt3__14moveB8ne180100INS_16reverse_iteratorIPtEES3_EET0_T_S5_S4_, symObjAddr: 0x7EB0, symBinAddr: 0x10000B960, symSize: 0x78 }
  - { offset: 0x1BD58, size: 0x8, addend: 0x0, symName: __ZNSt3__16__moveB8ne180100INS_17_ClassicAlgPolicyENS_16reverse_iteratorIPtEES4_S4_EENS_4pairIT0_T2_EES6_T1_S7_, symObjAddr: 0x7F28, symBinAddr: 0x10000B9D8, symSize: 0x64 }
  - { offset: 0x1BDC4, size: 0x8, addend: 0x0, symName: __ZNSt3__123__dispatch_copy_or_moveB8ne180100INS_17_ClassicAlgPolicyENS_11__move_loopIS1_EENS_14__move_trivialENS_16reverse_iteratorIPtEES7_S7_EENS_4pairIT2_T4_EES9_T3_SA_, symObjAddr: 0x7F8C, symBinAddr: 0x10000BA3C, symSize: 0x64 }
  - { offset: 0x1BE42, size: 0x8, addend: 0x0, symName: __ZNSt3__121__unwrap_and_dispatchB8ne180100INS_10__overloadINS_11__move_loopINS_17_ClassicAlgPolicyEEENS_14__move_trivialEEENS_16reverse_iteratorIPtEES9_S9_Li0EEENS_4pairIT0_T2_EESB_T1_SC_, symObjAddr: 0x7FF0, symBinAddr: 0x10000BAA0, symSize: 0x12C }
  - { offset: 0x1BED4, size: 0x8, addend: 0x0, symName: __ZNSt3__114__unwrap_rangeB8ne180100INS_16reverse_iteratorIPtEES3_EENS_4pairIT0_S5_EET_S7_, symObjAddr: 0x811C, symBinAddr: 0x10000BBCC, symSize: 0x84 }
  - { offset: 0x1C04F, size: 0x8, addend: 0x0, symName: __ZNSt3__113__unwrap_iterB8ne180100INS_16reverse_iteratorIPtEENS_18__unwrap_iter_implIS3_Lb0EEELi0EEEDTclsrT0_8__unwrapclsr3stdE7declvalIT_EEEES7_, symObjAddr: 0x8240, symBinAddr: 0x10000BCF0, symSize: 0x44 }
  - { offset: 0x1C093, size: 0x8, addend: 0x0, symName: __ZNSt3__19make_pairB8ne180100INS_16reverse_iteratorIPtEES3_EENS_4pairINS_18__unwrap_ref_decayIT_E4typeENS5_IT0_E4typeEEEOS6_OS9_, symObjAddr: 0x8284, symBinAddr: 0x10000BD34, symSize: 0x38 }
  - { offset: 0x1C0E2, size: 0x8, addend: 0x0, symName: __ZNSt3__114__rewrap_rangeB8ne180100INS_16reverse_iteratorIPtEES3_EET_S4_T0_, symObjAddr: 0x82BC, symBinAddr: 0x10000BD6C, symSize: 0x5C }
  - { offset: 0x1C12E, size: 0x8, addend: 0x0, symName: __ZNSt3__113__rewrap_iterB8ne180100INS_16reverse_iteratorIPtEES3_NS_18__unwrap_iter_implIS3_Lb0EEEEET_S6_T0_, symObjAddr: 0x8318, symBinAddr: 0x10000BDC8, symSize: 0x74 }
  - { offset: 0x1C183, size: 0x8, addend: 0x0, symName: __ZNSt3__1neB8ne180100IPtS1_EEbRKNS_16reverse_iteratorIT_EERKNS2_IT0_EE, symObjAddr: 0x838C, symBinAddr: 0x10000BE3C, symSize: 0x48 }
  - { offset: 0x1D13C, size: 0x8, addend: 0x0, symName: __ZSt28__throw_bad_array_new_lengthB8ne180100v, symObjAddr: 0x5364, symBinAddr: 0x100009044, symSize: 0x34 }
  - { offset: 0x1D5A4, size: 0x8, addend: 0x0, symName: __ZNSt3__16vectorINS_12basic_stringIcNS_11char_traitsIcEENS_9allocatorIcEEEENS4_IS6_EEE26__swap_out_circular_bufferERNS_14__split_bufferIS6_RS7_EE, symObjAddr: 0x4C90, symBinAddr: 0x100008970, symSize: 0x110 }
  - { offset: 0x1D7E4, size: 0x8, addend: 0x0, symName: __ZNSt3__16vectorItNS_9allocatorItEEE26__swap_out_circular_bufferERNS_14__split_bufferItRS2_EE, symObjAddr: 0x7A48, symBinAddr: 0x10000B4F8, symSize: 0x110 }
  - { offset: 0x1D858, size: 0x8, addend: 0x0, symName: __ZN21CentralProcessingUnitC2Ev, symObjAddr: 0x0, symBinAddr: 0x100004D94, symSize: 0x94 }
  - { offset: 0x1D883, size: 0x8, addend: 0x0, symName: __ZN21CentralProcessingUnitC1Ev, symObjAddr: 0x94, symBinAddr: 0x100004E28, symSize: 0x2C }
  - { offset: 0x1D8AE, size: 0x8, addend: 0x0, symName: __ZN21CentralProcessingUnit19run_continuous_loopEv, symObjAddr: 0xC0, symBinAddr: 0x100004E54, symSize: 0x6C0 }
  - { offset: 0x1DA23, size: 0x8, addend: 0x0, symName: __ZNKSt3__112basic_stringIcNS_11char_traitsIcEENS_9allocatorIcEEE5emptyB8ne180100Ev, symObjAddr: 0x8FC, symBinAddr: 0x10000561C, symSize: 0x30 }
  - { offset: 0x1DA47, size: 0x8, addend: 0x0, symName: __ZNSt3__16vectorINS_12basic_stringIcNS_11char_traitsIcEENS_9allocatorIcEEEENS4_IS6_EEEC1B8ne180100Ev, symObjAddr: 0x92C, symBinAddr: 0x10000564C, symSize: 0x2C }
  - { offset: 0x1DB43, size: 0x8, addend: 0x0, symName: __ZNSt3__118basic_stringstreamIcNS_11char_traitsIcEENS_9allocatorIcEEEC1B8ne180100ERKNS_12basic_stringIcS2_S4_EEj, symObjAddr: 0x958, symBinAddr: 0x100005678, symSize: 0x100 }
  - { offset: 0x1DB8A, size: 0x8, addend: 0x0, symName: __ZNKSt3__19basic_iosIcNS_11char_traitsIcEEEcvbB8ne180100Ev, symObjAddr: 0xD60, symBinAddr: 0x100005A80, symSize: 0x2C }
  - { offset: 0x1DBAF, size: 0x8, addend: 0x0, symName: __ZNSt3__16vectorINS_12basic_stringIcNS_11char_traitsIcEENS_9allocatorIcEEEENS4_IS6_EEE9push_backB8ne180100ERKS6_, symObjAddr: 0xD8C, symBinAddr: 0x100005AAC, symSize: 0x90 }
  - { offset: 0x1DBF4, size: 0x8, addend: 0x0, symName: __ZNKSt3__16vectorINS_12basic_stringIcNS_11char_traitsIcEENS_9allocatorIcEEEENS4_IS6_EEE4sizeB8ne180100Ev, symObjAddr: 0xE1C, symBinAddr: 0x100005B3C, symSize: 0x28 }
  - { offset: 0x1DC19, size: 0x8, addend: 0x0, symName: __ZNSt3__16vectorINS_12basic_stringIcNS_11char_traitsIcEENS_9allocatorIcEEEENS4_IS6_EEEixB8ne180100Em, symObjAddr: 0xE44, symBinAddr: 0x100005B64, symSize: 0x2C }
  - { offset: 0x1DC4F, size: 0x8, addend: 0x0, symName: __ZNSt3__112basic_stringIcNS_11char_traitsIcEENS_9allocatorIcEEE5beginB8ne180100Ev, symObjAddr: 0xE70, symBinAddr: 0x100005B90, symSize: 0x4C }
  - { offset: 0x1DC74, size: 0x8, addend: 0x0, symName: __ZNSt3__112basic_stringIcNS_11char_traitsIcEENS_9allocatorIcEEE3endB8ne180100Ev, symObjAddr: 0xEBC, symBinAddr: 0x100005BDC, symSize: 0x54 }
  - { offset: 0x1DC99, size: 0x8, addend: 0x0, symName: __ZNKSt3__111__wrap_iterIPcEdeB8ne180100Ev, symObjAddr: 0xF44, symBinAddr: 0x100005C64, symSize: 0x18 }
  - { offset: 0x1DCBD, size: 0x8, addend: 0x0, symName: __Z7isdigiti, symObjAddr: 0xF5C, symBinAddr: 0x100005C7C, symSize: 0x28 }
  - { offset: 0x1DCEA, size: 0x8, addend: 0x0, symName: __ZNSt3__112basic_stringIcNS_11char_traitsIcEENS_9allocatorIcEEEpLB8ne180100Ec, symObjAddr: 0xF84, symBinAddr: 0x100005CA4, symSize: 0x34 }
  - { offset: 0x1DD1E, size: 0x8, addend: 0x0, symName: __ZNSt3__111__wrap_iterIPcEppB8ne180100Ev, symObjAddr: 0xFB8, symBinAddr: 0x100005CD8, symSize: 0x20 }
  - { offset: 0x1DD43, size: 0x8, addend: 0x0, symName: __ZNSt3__16vectorItNS_9allocatorItEEEC1ERKS3_, symObjAddr: 0x1064, symBinAddr: 0x100005D84, symSize: 0x34 }
  - { offset: 0x1DD7C, size: 0x8, addend: 0x0, symName: __ZNSt3__16vectorItNS_9allocatorItEEED1B8ne180100Ev, symObjAddr: 0x1098, symBinAddr: 0x100005DB8, symSize: 0x2C }
  - { offset: 0x1DDA9, size: 0x8, addend: 0x0, symName: __ZNSt3__16vectorINS_12basic_stringIcNS_11char_traitsIcEENS_9allocatorIcEEEENS4_IS6_EEED1B8ne180100Ev, symObjAddr: 0x1104, symBinAddr: 0x100005DE4, symSize: 0x2C }
  - { offset: 0x1DDD2, size: 0x8, addend: 0x0, symName: __ZN21CentralProcessingUnit17run_assembly_fileENSt3__112basic_stringIcNS0_11char_traitsIcEENS0_9allocatorIcEEEE, symObjAddr: 0x1130, symBinAddr: 0x100005E10, symSize: 0xB88 }
  - { offset: 0x1DFC2, size: 0x8, addend: 0x0, symName: __ZNSt3__16vectorItNS_9allocatorItEEEC1B8ne180100Ev, symObjAddr: 0x1CB8, symBinAddr: 0x100006998, symSize: 0x2C }
  - { offset: 0x1DFEB, size: 0x8, addend: 0x0, symName: __ZNKSt3__112basic_stringIcNS_11char_traitsIcEENS_9allocatorIcEEE4findB8ne180100EPKcm, symObjAddr: 0x1CE4, symBinAddr: 0x1000069C4, symSize: 0x74 }
  - { offset: 0x1E030, size: 0x8, addend: 0x0, symName: __ZNSt3__16vectorItNS_9allocatorItEEE5beginB8ne180100Ev, symObjAddr: 0x1D58, symBinAddr: 0x100006A38, symSize: 0x30 }
  - { offset: 0x1E057, size: 0x8, addend: 0x0, symName: __ZNSt3__16vectorItNS_9allocatorItEEE3endB8ne180100Ev, symObjAddr: 0x1D88, symBinAddr: 0x100006A68, symSize: 0x30 }
  - { offset: 0x1E07E, size: 0x8, addend: 0x0, symName: __ZNKSt3__111__wrap_iterIPtEdeB8ne180100Ev, symObjAddr: 0x1DEC, symBinAddr: 0x100006ACC, symSize: 0x18 }
  - { offset: 0x1E0A3, size: 0x8, addend: 0x0, symName: __ZNSt3__16vectorItNS_9allocatorItEEE9push_backB8ne180100ERKt, symObjAddr: 0x1E04, symBinAddr: 0x100006AE4, symSize: 0x90 }
  - { offset: 0x1E0E8, size: 0x8, addend: 0x0, symName: __ZNSt3__111__wrap_iterIPtEppB8ne180100Ev, symObjAddr: 0x1E94, symBinAddr: 0x100006B74, symSize: 0x20 }
  - { offset: 0x1E10D, size: 0x8, addend: 0x0, symName: __ZNKSt3__16vectorItNS_9allocatorItEEE4sizeB8ne180100Ev, symObjAddr: 0x1EB4, symBinAddr: 0x100006B94, symSize: 0x28 }
  - { offset: 0x1E132, size: 0x8, addend: 0x0, symName: __ZNSt3__16vectorItNS_9allocatorItEEEixB8ne180100Em, symObjAddr: 0x1EDC, symBinAddr: 0x100006BBC, symSize: 0x24 }
  - { offset: 0x1E168, size: 0x8, addend: 0x0, symName: __ZNSt3__16vectorItNS_9allocatorItEEE9push_backB8ne180100EOt, symObjAddr: 0x1F00, symBinAddr: 0x100006BE0, symSize: 0x90 }
  - { offset: 0x1E1AD, size: 0x8, addend: 0x0, symName: __ZNKSt3__16vectorItNS_9allocatorItEEE5emptyB8ne180100Ev, symObjAddr: 0x1F90, symBinAddr: 0x100006C70, symSize: 0x28 }
  - { offset: 0x1E1D2, size: 0x8, addend: 0x0, symName: __ZN21CentralProcessingUnit22test_run_assembly_fileENSt3__112basic_stringIcNS0_11char_traitsIcEENS0_9allocatorIcEEEES6_, symObjAddr: 0x1FB8, symBinAddr: 0x100006C98, symSize: 0x74C }
  - { offset: 0x1E37A, size: 0x8, addend: 0x0, symName: __ZNKSt3__111__wrap_iterIPcE4baseB8ne180100Ev, symObjAddr: 0x274C, symBinAddr: 0x10000742C, symSize: 0x18 }
  - { offset: 0x1E39E, size: 0x8, addend: 0x0, symName: __Z9__isctypeim, symObjAddr: 0x2764, symBinAddr: 0x100007444, symSize: 0x78 }
  - { offset: 0x1E3DE, size: 0x8, addend: 0x0, symName: __ZNKSt3__111__wrap_iterIPtE4baseB8ne180100Ev, symObjAddr: 0x2948, symBinAddr: 0x100007504, symSize: 0x18 }
  - { offset: 0x1E44E, size: 0x8, addend: 0x0, symName: __ZNKSt3__113basic_istreamIcNS_11char_traitsIcEEE6sentrycvbB8ne180100Ev, symObjAddr: 0x3864, symBinAddr: 0x100007754, symSize: 0x1C }
  - { offset: 0x1E473, size: 0x8, addend: 0x0, symName: __ZNSt3__112basic_stringIcNS_11char_traitsIcEENS_9allocatorIcEEE5clearB8ne180100Ev, symObjAddr: 0x3880, symBinAddr: 0x100007770, symSize: 0x94 }
  - { offset: 0x1E4A9, size: 0x8, addend: 0x0, symName: __ZNSt3__115basic_streambufIcNS_11char_traitsIcEEE6sbumpcB8ne180100Ev, symObjAddr: 0x3914, symBinAddr: 0x100007804, symSize: 0x78 }
  - { offset: 0x1E4CE, size: 0x8, addend: 0x0, symName: __ZNSt3__111char_traitsIcE12to_char_typeB8ne180100Ei, symObjAddr: 0x398C, symBinAddr: 0x10000787C, symSize: 0x18 }
  - { offset: 0x1E4F2, size: 0x8, addend: 0x0, symName: __ZNSt3__111char_traitsIcE2eqEcc, symObjAddr: 0x39A4, symBinAddr: 0x100007894, symSize: 0x28 }
  - { offset: 0x1E523, size: 0x8, addend: 0x0, symName: __ZNKSt3__112basic_stringIcNS_11char_traitsIcEENS_9allocatorIcEEE8max_sizeB8ne180100Ev, symObjAddr: 0x39CC, symBinAddr: 0x1000078BC, symSize: 0xAC }
  - { offset: 0x1E575, size: 0x8, addend: 0x0, symName: __ZNSt3__18ios_base18__setstate_nothrowB8ne180100Ej, symObjAddr: 0x3A78, symBinAddr: 0x100007968, symSize: 0x64 }
  - { offset: 0x1E5A9, size: 0x8, addend: 0x0, symName: __ZNKSt3__19basic_iosIcNS_11char_traitsIcEEE10exceptionsB8ne180100Ev, symObjAddr: 0x3ADC, symBinAddr: 0x1000079CC, symSize: 0x24 }
  - { offset: 0x1E5CE, size: 0x8, addend: 0x0, symName: __ZNSt3__111char_traitsIcE6assignB8ne180100ERcRKc, symObjAddr: 0x3B00, symBinAddr: 0x1000079F0, symSize: 0x24 }
  - { offset: 0x1E5FF, size: 0x8, addend: 0x0, symName: __ZNSt3__112basic_stringIcNS_11char_traitsIcEENS_9allocatorIcEEE15__set_long_sizeB8ne180100Em, symObjAddr: 0x3B24, symBinAddr: 0x100007A14, symSize: 0x38 }
  - { offset: 0x1E633, size: 0x8, addend: 0x0, symName: __ZNSt3__112basic_stringIcNS_11char_traitsIcEENS_9allocatorIcEEE16__set_short_sizeB8ne180100Em, symObjAddr: 0x3B5C, symBinAddr: 0x100007A4C, symSize: 0x78 }
  - { offset: 0x1E667, size: 0x8, addend: 0x0, symName: __ZNKSt3__112basic_stringIcNS_11char_traitsIcEENS_9allocatorIcEEE17__annotate_shrinkB8ne180100Em, symObjAddr: 0x3BD4, symBinAddr: 0x100007AC4, symSize: 0x14 }
  - { offset: 0x1E69B, size: 0x8, addend: 0x0, symName: __ZNSt3__111char_traitsIcE11to_int_typeB8ne180100Ec, symObjAddr: 0x3BE8, symBinAddr: 0x100007AD8, symSize: 0x14 }
  - { offset: 0x1E6C8, size: 0x8, addend: 0x0, symName: __ZNSt3__116allocator_traitsINS_9allocatorIcEEE8max_sizeB8ne180100IS2_vEEmRKS2_, symObjAddr: 0x3BFC, symBinAddr: 0x100007AEC, symSize: 0x24 }
  - { offset: 0x1E6F6, size: 0x8, addend: 0x0, symName: __ZNKSt3__112basic_stringIcNS_11char_traitsIcEENS_9allocatorIcEEE7__allocB8ne180100Ev, symObjAddr: 0x3C20, symBinAddr: 0x100007B10, symSize: 0x24 }
  - { offset: 0x1E71B, size: 0x8, addend: 0x0, symName: __ZNSt3__114numeric_limitsImE3maxB8ne180100Ev, symObjAddr: 0x3C44, symBinAddr: 0x100007B34, symSize: 0x14 }
  - { offset: 0x1E72F, size: 0x8, addend: 0x0, symName: __ZNKSt3__19allocatorIcE8max_sizeB8ne180100Ev, symObjAddr: 0x3C58, symBinAddr: 0x100007B48, symSize: 0x14 }
  - { offset: 0x1E754, size: 0x8, addend: 0x0, symName: __ZNKSt3__117__compressed_pairINS_12basic_stringIcNS_11char_traitsIcEENS_9allocatorIcEEE5__repES5_E6secondB8ne180100Ev, symObjAddr: 0x3C6C, symBinAddr: 0x100007B5C, symSize: 0x24 }
  - { offset: 0x1E779, size: 0x8, addend: 0x0, symName: __ZNKSt3__122__compressed_pair_elemINS_9allocatorIcEELi1ELb1EE5__getB8ne180100Ev, symObjAddr: 0x3C90, symBinAddr: 0x100007B80, symSize: 0x14 }
  - { offset: 0x1E79E, size: 0x8, addend: 0x0, symName: __ZNSt3__123__libcpp_numeric_limitsImLb1EE3maxB8ne180100Ev, symObjAddr: 0x3CA4, symBinAddr: 0x100007B94, symSize: 0x8 }
  - { offset: 0x1E7B2, size: 0x8, addend: 0x0, symName: __ZNKSt3__18ios_base10exceptionsB8ne180100Ev, symObjAddr: 0x3CAC, symBinAddr: 0x100007B9C, symSize: 0x18 }
  - { offset: 0x1E7D8, size: 0x8, addend: 0x0, symName: __ZNSt3__16vectorINS_12basic_stringIcNS_11char_traitsIcEENS_9allocatorIcEEEENS4_IS6_EEEC2B8ne180100Ev, symObjAddr: 0x3CC4, symBinAddr: 0x100007BB4, symSize: 0x4C }
  - { offset: 0x1E805, size: 0x8, addend: 0x0, symName: __ZNSt3__117__compressed_pairIPNS_12basic_stringIcNS_11char_traitsIcEENS_9allocatorIcEEEENS4_IS6_EEEC1B8ne180100IDnNS_18__default_init_tagEEEOT_OT0_, symObjAddr: 0x3D10, symBinAddr: 0x100007C00, symSize: 0x3C }
  - { offset: 0x1E85B, size: 0x8, addend: 0x0, symName: __ZNSt3__117__compressed_pairIPNS_12basic_stringIcNS_11char_traitsIcEENS_9allocatorIcEEEENS4_IS6_EEEC2B8ne180100IDnNS_18__default_init_tagEEEOT_OT0_, symObjAddr: 0x3D4C, symBinAddr: 0x100007C3C, symSize: 0x40 }
  - { offset: 0x1E8B2, size: 0x8, addend: 0x0, symName: __ZNSt3__122__compressed_pair_elemIPNS_12basic_stringIcNS_11char_traitsIcEENS_9allocatorIcEEEELi0ELb0EEC2B8ne180100IDnvEEOT_, symObjAddr: 0x3D8C, symBinAddr: 0x100007C7C, symSize: 0x1C }
  - { offset: 0x1E8F2, size: 0x8, addend: 0x0, symName: __ZNSt3__122__compressed_pair_elemINS_9allocatorINS_12basic_stringIcNS_11char_traitsIcEENS1_IcEEEEEELi1ELb1EEC2B8ne180100ENS_18__default_init_tagE, symObjAddr: 0x3DA8, symBinAddr: 0x100007C98, symSize: 0x2C }
  - { offset: 0x1E925, size: 0x8, addend: 0x0, symName: __ZNSt3__19allocatorINS_12basic_stringIcNS_11char_traitsIcEENS0_IcEEEEEC2B8ne180100Ev, symObjAddr: 0x3DD4, symBinAddr: 0x100007CC4, symSize: 0x2C }
  - { offset: 0x1E94E, size: 0x8, addend: 0x0, symName: __ZNSt3__116__non_trivial_ifILb1ENS_9allocatorINS_12basic_stringIcNS_11char_traitsIcEENS1_IcEEEEEEEC2B8ne180100Ev, symObjAddr: 0x3E00, symBinAddr: 0x100007CF0, symSize: 0x14 }
  - { offset: 0x1E976, size: 0x8, addend: 0x0, symName: __ZNSt3__16vectorINS_12basic_stringIcNS_11char_traitsIcEENS_9allocatorIcEEEENS4_IS6_EEED2B8ne180100Ev, symObjAddr: 0x3E14, symBinAddr: 0x100007D04, symSize: 0x44 }
  - { offset: 0x1E99E, size: 0x8, addend: 0x0, symName: __ZNSt3__16vectorINS_12basic_stringIcNS_11char_traitsIcEENS_9allocatorIcEEEENS4_IS6_EEE16__destroy_vectorC1B8ne180100ERS8_, symObjAddr: 0x3E58, symBinAddr: 0x100007D48, symSize: 0x34 }
  - { offset: 0x1E9D6, size: 0x8, addend: 0x0, symName: __ZNSt3__16vectorINS_12basic_stringIcNS_11char_traitsIcEENS_9allocatorIcEEEENS4_IS6_EEE16__destroy_vectorclB8ne180100Ev, symObjAddr: 0x3E8C, symBinAddr: 0x100007D7C, symSize: 0x90 }
  - { offset: 0x1E9FB, size: 0x8, addend: 0x0, symName: __ZNSt3__16vectorINS_12basic_stringIcNS_11char_traitsIcEENS_9allocatorIcEEEENS4_IS6_EEE16__destroy_vectorC2B8ne180100ERS8_, symObjAddr: 0x3F1C, symBinAddr: 0x100007E0C, symSize: 0x20 }
  - { offset: 0x1EA33, size: 0x8, addend: 0x0, symName: __ZNSt3__16vectorINS_12basic_stringIcNS_11char_traitsIcEENS_9allocatorIcEEEENS4_IS6_EEE7__clearB8ne180100Ev, symObjAddr: 0x3F3C, symBinAddr: 0x100007E2C, symSize: 0x28 }
  - { offset: 0x1EA58, size: 0x8, addend: 0x0, symName: __ZNKSt3__16vectorINS_12basic_stringIcNS_11char_traitsIcEENS_9allocatorIcEEEENS4_IS6_EEE17__annotate_deleteB8ne180100Ev, symObjAddr: 0x3F64, symBinAddr: 0x100007E54, symSize: 0x10 }
  - { offset: 0x1EA7C, size: 0x8, addend: 0x0, symName: __ZNSt3__116allocator_traitsINS_9allocatorINS_12basic_stringIcNS_11char_traitsIcEENS1_IcEEEEEEE10deallocateB8ne180100ERS7_PS6_m, symObjAddr: 0x3F74, symBinAddr: 0x100007E64, symSize: 0x34 }
  - { offset: 0x1EABE, size: 0x8, addend: 0x0, symName: __ZNSt3__16vectorINS_12basic_stringIcNS_11char_traitsIcEENS_9allocatorIcEEEENS4_IS6_EEE7__allocB8ne180100Ev, symObjAddr: 0x3FA8, symBinAddr: 0x100007E98, symSize: 0x28 }
  - { offset: 0x1EAE3, size: 0x8, addend: 0x0, symName: __ZNKSt3__16vectorINS_12basic_stringIcNS_11char_traitsIcEENS_9allocatorIcEEEENS4_IS6_EEE8capacityB8ne180100Ev, symObjAddr: 0x3FD0, symBinAddr: 0x100007EC0, symSize: 0x40 }
  - { offset: 0x1EB08, size: 0x8, addend: 0x0, symName: __ZNSt3__16vectorINS_12basic_stringIcNS_11char_traitsIcEENS_9allocatorIcEEEENS4_IS6_EEE22__base_destruct_at_endB8ne180100EPS6_, symObjAddr: 0x4010, symBinAddr: 0x100007F00, symSize: 0x8C }
  - { offset: 0x1EB4A, size: 0x8, addend: 0x0, symName: __ZNSt3__116allocator_traitsINS_9allocatorINS_12basic_stringIcNS_11char_traitsIcEENS1_IcEEEEEEE7destroyB8ne180100IS6_vEEvRS7_PT_, symObjAddr: 0x409C, symBinAddr: 0x100007F8C, symSize: 0x2C }
  - { offset: 0x1EB87, size: 0x8, addend: 0x0, symName: __ZNSt3__19allocatorINS_12basic_stringIcNS_11char_traitsIcEENS0_IcEEEEE7destroyB8ne180100EPS5_, symObjAddr: 0x40DC, symBinAddr: 0x100007FCC, symSize: 0x28 }
  - { offset: 0x1EBBA, size: 0x8, addend: 0x0, symName: __ZNSt3__19allocatorINS_12basic_stringIcNS_11char_traitsIcEENS0_IcEEEEE10deallocateB8ne180100EPS5_m, symObjAddr: 0x4104, symBinAddr: 0x100007FF4, symSize: 0x44 }
  - { offset: 0x1EBFB, size: 0x8, addend: 0x0, symName: __ZNSt3__117__compressed_pairIPNS_12basic_stringIcNS_11char_traitsIcEENS_9allocatorIcEEEENS4_IS6_EEE6secondB8ne180100Ev, symObjAddr: 0x4270, symBinAddr: 0x100008160, symSize: 0x24 }
  - { offset: 0x1EC20, size: 0x8, addend: 0x0, symName: __ZNSt3__122__compressed_pair_elemINS_9allocatorINS_12basic_stringIcNS_11char_traitsIcEENS1_IcEEEEEELi1ELb1EE5__getB8ne180100Ev, symObjAddr: 0x4294, symBinAddr: 0x100008184, symSize: 0x14 }
  - { offset: 0x1EC45, size: 0x8, addend: 0x0, symName: __ZNKSt3__16vectorINS_12basic_stringIcNS_11char_traitsIcEENS_9allocatorIcEEEENS4_IS6_EEE9__end_capB8ne180100Ev, symObjAddr: 0x42A8, symBinAddr: 0x100008198, symSize: 0x28 }
  - { offset: 0x1EC6A, size: 0x8, addend: 0x0, symName: __ZNKSt3__117__compressed_pairIPNS_12basic_stringIcNS_11char_traitsIcEENS_9allocatorIcEEEENS4_IS6_EEE5firstB8ne180100Ev, symObjAddr: 0x42D0, symBinAddr: 0x1000081C0, symSize: 0x24 }
  - { offset: 0x1EC8E, size: 0x8, addend: 0x0, symName: __ZNSt3__115basic_stringbufIcNS_11char_traitsIcEENS_9allocatorIcEEEC1B8ne180100ERKNS_12basic_stringIcS2_S4_EEj, symObjAddr: 0x43F0, symBinAddr: 0x1000081E4, symSize: 0x3C }
  - { offset: 0x1ECD4, size: 0x8, addend: 0x0, symName: __ZNSt3__115basic_stringbufIcNS_11char_traitsIcEENS_9allocatorIcEEEC2B8ne180100ERKNS_12basic_stringIcS2_S4_EEj, symObjAddr: 0x452C, symBinAddr: 0x100008220, symSize: 0xA8 }
  - { offset: 0x1ED1B, size: 0x8, addend: 0x0, symName: __ZNKSt3__112basic_stringIcNS_11char_traitsIcEENS_9allocatorIcEEE13get_allocatorB8ne180100Ev, symObjAddr: 0x45D4, symBinAddr: 0x1000082C8, symSize: 0x24 }
  - { offset: 0x1ED3F, size: 0x8, addend: 0x0, symName: __ZNSt3__112basic_stringIcNS_11char_traitsIcEENS_9allocatorIcEEEC1B8ne180100ERKS4_, symObjAddr: 0x45F8, symBinAddr: 0x1000082EC, symSize: 0x34 }
  - { offset: 0x1ED76, size: 0x8, addend: 0x0, symName: __ZNSt3__112basic_stringIcNS_11char_traitsIcEENS_9allocatorIcEEEC2B8ne180100ERKS4_, symObjAddr: 0x462C, symBinAddr: 0x100008320, symSize: 0x4C }
  - { offset: 0x1EDAD, size: 0x8, addend: 0x0, symName: __ZNSt3__117__compressed_pairINS_12basic_stringIcNS_11char_traitsIcEENS_9allocatorIcEEE5__repES5_EC1B8ne180100INS_16__value_init_tagERKS5_EEOT_OT0_, symObjAddr: 0x4678, symBinAddr: 0x10000836C, symSize: 0x3C }
  - { offset: 0x1EE03, size: 0x8, addend: 0x0, symName: __ZNSt3__117__compressed_pairINS_12basic_stringIcNS_11char_traitsIcEENS_9allocatorIcEEE5__repES5_EC2B8ne180100INS_16__value_init_tagERKS5_EEOT_OT0_, symObjAddr: 0x46B4, symBinAddr: 0x1000083A8, symSize: 0x40 }
  - { offset: 0x1EE5A, size: 0x8, addend: 0x0, symName: __ZNSt3__122__compressed_pair_elemINS_9allocatorIcEELi1ELb1EEC2B8ne180100IRKS2_vEEOT_, symObjAddr: 0x46F4, symBinAddr: 0x1000083E8, symSize: 0x18 }
  - { offset: 0x1EE9B, size: 0x8, addend: 0x0, symName: __ZNSt3__114numeric_limitsIlE3maxB8ne180100Ev, symObjAddr: 0x470C, symBinAddr: 0x100008400, symSize: 0x14 }
  - { offset: 0x1EEAF, size: 0x8, addend: 0x0, symName: __ZNSt3__115basic_streambufIcNS_11char_traitsIcEEE5sgetcB8ne180100Ev, symObjAddr: 0x4720, symBinAddr: 0x100008414, symSize: 0x70 }
  - { offset: 0x1EED4, size: 0x8, addend: 0x0, symName: __ZNKSt3__15ctypeIcE2isB8ne180100Ejc, symObjAddr: 0x4790, symBinAddr: 0x100008484, symSize: 0x7C }
  - { offset: 0x1EF17, size: 0x8, addend: 0x0, symName: __ZNSt3__123__libcpp_numeric_limitsIlLb1EE3maxB8ne180100Ev, symObjAddr: 0x480C, symBinAddr: 0x100008500, symSize: 0x8 }
  - { offset: 0x1EF2A, size: 0x8, addend: 0x0, symName: __Z7isasciii, symObjAddr: 0x4814, symBinAddr: 0x100008508, symSize: 0x24 }
  - { offset: 0x1EF57, size: 0x8, addend: 0x0, symName: __ZNKSt3__19basic_iosIcNS_11char_traitsIcEEE4failB8ne180100Ev, symObjAddr: 0x4838, symBinAddr: 0x10000852C, symSize: 0x28 }
  - { offset: 0x1EF7C, size: 0x8, addend: 0x0, symName: __ZNKSt3__18ios_base4failB8ne180100Ev, symObjAddr: 0x4860, symBinAddr: 0x100008554, symSize: 0x28 }
  - { offset: 0x1EFA3, size: 0x8, addend: 0x0, symName: __ZNSt3__16vectorINS_12basic_stringIcNS_11char_traitsIcEENS_9allocatorIcEEEENS4_IS6_EEE9__end_capB8ne180100Ev, symObjAddr: 0x4888, symBinAddr: 0x10000857C, symSize: 0x28 }
  - { offset: 0x1EFC8, size: 0x8, addend: 0x0, symName: __ZNSt3__16vectorINS_12basic_stringIcNS_11char_traitsIcEENS_9allocatorIcEEEENS4_IS6_EEE22__construct_one_at_endB8ne180100IJRKS6_EEEvDpOT_, symObjAddr: 0x48B0, symBinAddr: 0x1000085A4, symSize: 0x90 }
  - { offset: 0x1F018, size: 0x8, addend: 0x0, symName: __ZNSt3__16vectorINS_12basic_stringIcNS_11char_traitsIcEENS_9allocatorIcEEEENS4_IS6_EEE21__push_back_slow_pathIRKS6_EEPS6_OT_, symObjAddr: 0x4940, symBinAddr: 0x100008634, symSize: 0xE8 }
  - { offset: 0x1F075, size: 0x8, addend: 0x0, symName: __ZNSt3__117__compressed_pairIPNS_12basic_stringIcNS_11char_traitsIcEENS_9allocatorIcEEEENS4_IS6_EEE5firstB8ne180100Ev, symObjAddr: 0x4A28, symBinAddr: 0x10000871C, symSize: 0x24 }
  - { offset: 0x1F0B2, size: 0x8, addend: 0x0, symName: __ZNSt3__16vectorINS_12basic_stringIcNS_11char_traitsIcEENS_9allocatorIcEEEENS4_IS6_EEE21_ConstructTransactionC1B8ne180100ERS8_m, symObjAddr: 0x4A60, symBinAddr: 0x100008740, symSize: 0x3C }
  - { offset: 0x1F0F8, size: 0x8, addend: 0x0, symName: __ZNSt3__116allocator_traitsINS_9allocatorINS_12basic_stringIcNS_11char_traitsIcEENS1_IcEEEEEEE9constructB8ne180100IS6_JRKS6_EvEEvRS7_PT_DpOT0_, symObjAddr: 0x4A9C, symBinAddr: 0x10000877C, symSize: 0x34 }
  - { offset: 0x1F150, size: 0x8, addend: 0x0, symName: __ZNSt3__16vectorINS_12basic_stringIcNS_11char_traitsIcEENS_9allocatorIcEEEENS4_IS6_EEE21_ConstructTransactionD1B8ne180100Ev, symObjAddr: 0x4AD0, symBinAddr: 0x1000087B0, symSize: 0x2C }
  - { offset: 0x1F179, size: 0x8, addend: 0x0, symName: __ZNSt3__16vectorINS_12basic_stringIcNS_11char_traitsIcEENS_9allocatorIcEEEENS4_IS6_EEE21_ConstructTransactionC2B8ne180100ERS8_m, symObjAddr: 0x4AFC, symBinAddr: 0x1000087DC, symSize: 0x4C }
  - { offset: 0x1F1C0, size: 0x8, addend: 0x0, symName: __ZNSt3__19allocatorINS_12basic_stringIcNS_11char_traitsIcEENS0_IcEEEEE9constructB8ne180100IS5_JRKS5_EEEvPT_DpOT0_, symObjAddr: 0x4B48, symBinAddr: 0x100008828, symSize: 0x30 }
  - { offset: 0x1F217, size: 0x8, addend: 0x0, symName: __ZNSt3__16vectorINS_12basic_stringIcNS_11char_traitsIcEENS_9allocatorIcEEEENS4_IS6_EEE21_ConstructTransactionD2B8ne180100Ev, symObjAddr: 0x4B78, symBinAddr: 0x100008858, symSize: 0x20 }
  - { offset: 0x1F240, size: 0x8, addend: 0x0, symName: __ZNKSt3__16vectorINS_12basic_stringIcNS_11char_traitsIcEENS_9allocatorIcEEEENS4_IS6_EEE11__recommendB8ne180100Em, symObjAddr: 0x4B98, symBinAddr: 0x100008878, symSize: 0xB4 }
  - { offset: 0x1F294, size: 0x8, addend: 0x0, symName: __ZNSt3__114__split_bufferINS_12basic_stringIcNS_11char_traitsIcEENS_9allocatorIcEEEERNS4_IS6_EEEC1EmmS8_, symObjAddr: 0x4C4C, symBinAddr: 0x10000892C, symSize: 0x44 }
  - { offset: 0x1F2E9, size: 0x8, addend: 0x0, symName: __ZNSt3__114__split_bufferINS_12basic_stringIcNS_11char_traitsIcEENS_9allocatorIcEEEERNS4_IS6_EEED1Ev, symObjAddr: 0x4DA0, symBinAddr: 0x100008A80, symSize: 0x2C }
  - { offset: 0x1F314, size: 0x8, addend: 0x0, symName: __ZNKSt3__16vectorINS_12basic_stringIcNS_11char_traitsIcEENS_9allocatorIcEEEENS4_IS6_EEE8max_sizeEv, symObjAddr: 0x4DCC, symBinAddr: 0x100008AAC, symSize: 0x60 }
  - { offset: 0x1F33B, size: 0x8, addend: 0x0, symName: __ZNKSt3__16vectorINS_12basic_stringIcNS_11char_traitsIcEENS_9allocatorIcEEEENS4_IS6_EEE20__throw_length_errorB8ne180100Ev, symObjAddr: 0x4E2C, symBinAddr: 0x100008B0C, symSize: 0x1C }
  - { offset: 0x1F369, size: 0x8, addend: 0x0, symName: __ZNSt3__116allocator_traitsINS_9allocatorINS_12basic_stringIcNS_11char_traitsIcEENS1_IcEEEEEEE8max_sizeB8ne180100IS7_vEEmRKS7_, symObjAddr: 0x4EA0, symBinAddr: 0x100008B80, symSize: 0x24 }
  - { offset: 0x1F397, size: 0x8, addend: 0x0, symName: __ZNKSt3__16vectorINS_12basic_stringIcNS_11char_traitsIcEENS_9allocatorIcEEEENS4_IS6_EEE7__allocB8ne180100Ev, symObjAddr: 0x4EC4, symBinAddr: 0x100008BA4, symSize: 0x28 }
  - { offset: 0x1F3D0, size: 0x8, addend: 0x0, symName: __ZNKSt3__16__lessIvvEclB8ne180100ImmEEbRKT_RKT0_, symObjAddr: 0x4F40, symBinAddr: 0x100008C20, symSize: 0x34 }
  - { offset: 0x1F423, size: 0x8, addend: 0x0, symName: __ZNKSt3__19allocatorINS_12basic_stringIcNS_11char_traitsIcEENS0_IcEEEEE8max_sizeB8ne180100Ev, symObjAddr: 0x4F74, symBinAddr: 0x100008C54, symSize: 0x18 }
  - { offset: 0x1F448, size: 0x8, addend: 0x0, symName: __ZNKSt3__117__compressed_pairIPNS_12basic_stringIcNS_11char_traitsIcEENS_9allocatorIcEEEENS4_IS6_EEE6secondB8ne180100Ev, symObjAddr: 0x4F8C, symBinAddr: 0x100008C6C, symSize: 0x24 }
  - { offset: 0x1F46D, size: 0x8, addend: 0x0, symName: __ZNKSt3__122__compressed_pair_elemINS_9allocatorINS_12basic_stringIcNS_11char_traitsIcEENS1_IcEEEEEELi1ELb1EE5__getB8ne180100Ev, symObjAddr: 0x4FB0, symBinAddr: 0x100008C90, symSize: 0x14 }
  - { offset: 0x1F491, size: 0x8, addend: 0x0, symName: __ZNSt12length_errorC1B8ne180100EPKc, symObjAddr: 0x5028, symBinAddr: 0x100008D08, symSize: 0x34 }
  - { offset: 0x1F4C7, size: 0x8, addend: 0x0, symName: __ZNSt12length_errorC2B8ne180100EPKc, symObjAddr: 0x505C, symBinAddr: 0x100008D3C, symSize: 0x44 }
  - { offset: 0x1F4FE, size: 0x8, addend: 0x0, symName: __ZNSt3__114__split_bufferINS_12basic_stringIcNS_11char_traitsIcEENS_9allocatorIcEEEERNS4_IS6_EEEC2EmmS8_, symObjAddr: 0x50F4, symBinAddr: 0x100008DD4, symSize: 0xE0 }
  - { offset: 0x1F570, size: 0x8, addend: 0x0, symName: __ZNSt3__117__compressed_pairIPNS_12basic_stringIcNS_11char_traitsIcEENS_9allocatorIcEEEERNS4_IS6_EEEC1B8ne180100IDnS9_EEOT_OT0_, symObjAddr: 0x51D4, symBinAddr: 0x100008EB4, symSize: 0x3C }
  - { offset: 0x1F5C7, size: 0x8, addend: 0x0, symName: __ZNSt3__114__split_bufferINS_12basic_stringIcNS_11char_traitsIcEENS_9allocatorIcEEEERNS4_IS6_EEE7__allocB8ne180100Ev, symObjAddr: 0x5250, symBinAddr: 0x100008F30, symSize: 0x28 }
  - { offset: 0x1F5EC, size: 0x8, addend: 0x0, symName: __ZNSt3__114__split_bufferINS_12basic_stringIcNS_11char_traitsIcEENS_9allocatorIcEEEERNS4_IS6_EEE9__end_capB8ne180100Ev, symObjAddr: 0x5278, symBinAddr: 0x100008F58, symSize: 0x28 }
  - { offset: 0x1F610, size: 0x8, addend: 0x0, symName: __ZNSt3__117__compressed_pairIPNS_12basic_stringIcNS_11char_traitsIcEENS_9allocatorIcEEEERNS4_IS6_EEEC2B8ne180100IDnS9_EEOT_OT0_, symObjAddr: 0x52A0, symBinAddr: 0x100008F80, symSize: 0x48 }
  - { offset: 0x1F667, size: 0x8, addend: 0x0, symName: __ZNSt3__122__compressed_pair_elemIRNS_9allocatorINS_12basic_stringIcNS_11char_traitsIcEENS1_IcEEEEEELi1ELb0EEC2B8ne180100IS8_vEEOT_, symObjAddr: 0x52E8, symBinAddr: 0x100008FC8, symSize: 0x20 }
  - { offset: 0x1F6A8, size: 0x8, addend: 0x0, symName: __ZNSt3__19allocatorINS_12basic_stringIcNS_11char_traitsIcEENS0_IcEEEEE8allocateB8ne180100Em, symObjAddr: 0x5308, symBinAddr: 0x100008FE8, symSize: 0x5C }
  - { offset: 0x1F6DB, size: 0x8, addend: 0x0, symName: __ZNSt3__117__compressed_pairIPNS_12basic_stringIcNS_11char_traitsIcEENS_9allocatorIcEEEERNS4_IS6_EEE6secondB8ne180100Ev, symObjAddr: 0x5448, symBinAddr: 0x100009128, symSize: 0x28 }
  - { offset: 0x1F700, size: 0x8, addend: 0x0, symName: __ZNSt3__122__compressed_pair_elemIRNS_9allocatorINS_12basic_stringIcNS_11char_traitsIcEENS1_IcEEEEEELi1ELb0EE5__getB8ne180100Ev, symObjAddr: 0x5470, symBinAddr: 0x100009150, symSize: 0x18 }
  - { offset: 0x1F725, size: 0x8, addend: 0x0, symName: __ZNSt3__117__compressed_pairIPNS_12basic_stringIcNS_11char_traitsIcEENS_9allocatorIcEEEERNS4_IS6_EEE5firstB8ne180100Ev, symObjAddr: 0x5488, symBinAddr: 0x100009168, symSize: 0x24 }
  - { offset: 0x1F749, size: 0x8, addend: 0x0, symName: __ZNSt3__116reverse_iteratorIPNS_12basic_stringIcNS_11char_traitsIcEENS_9allocatorIcEEEEEC1B8ne180100ES7_, symObjAddr: 0x55D8, symBinAddr: 0x1000092B8, symSize: 0x34 }
  - { offset: 0x1F780, size: 0x8, addend: 0x0, symName: __ZNKSt3__116reverse_iteratorIPNS_12basic_stringIcNS_11char_traitsIcEENS_9allocatorIcEEEEE4baseB8ne180100Ev, symObjAddr: 0x560C, symBinAddr: 0x1000092EC, symSize: 0x18 }
  - { offset: 0x1F7A5, size: 0x8, addend: 0x0, symName: __ZNKSt3__16vectorINS_12basic_stringIcNS_11char_traitsIcEENS_9allocatorIcEEEENS4_IS6_EEE14__annotate_newB8ne180100Em, symObjAddr: 0x5660, symBinAddr: 0x100009340, symSize: 0x14 }
  - { offset: 0x1F7D8, size: 0x8, addend: 0x0, symName: __ZNSt3__129_AllocatorDestroyRangeReverseINS_9allocatorINS_12basic_stringIcNS_11char_traitsIcEENS1_IcEEEEEENS_16reverse_iteratorIPS6_EEEC1B8ne180100ERS7_RSA_SD_, symObjAddr: 0x56C0, symBinAddr: 0x1000093A0, symSize: 0x44 }
  - { offset: 0x1F832, size: 0x8, addend: 0x0, symName: __ZNSt3__116allocator_traitsINS_9allocatorINS_12basic_stringIcNS_11char_traitsIcEENS1_IcEEEEEEE9constructB8ne180100IS6_JS6_EvEEvRS7_PT_DpOT0_, symObjAddr: 0x574C, symBinAddr: 0x10000942C, symSize: 0x34 }
  - { offset: 0x1F88B, size: 0x8, addend: 0x0, symName: __ZNKSt3__116reverse_iteratorIPNS_12basic_stringIcNS_11char_traitsIcEENS_9allocatorIcEEEEEdeB8ne180100Ev, symObjAddr: 0x57A4, symBinAddr: 0x100009484, symSize: 0x28 }
  - { offset: 0x1F8BF, size: 0x8, addend: 0x0, symName: __ZNSt3__116reverse_iteratorIPNS_12basic_stringIcNS_11char_traitsIcEENS_9allocatorIcEEEEEppB8ne180100Ev, symObjAddr: 0x57CC, symBinAddr: 0x1000094AC, symSize: 0x20 }
  - { offset: 0x1F8E4, size: 0x8, addend: 0x0, symName: __ZNSt3__128__exception_guard_exceptionsINS_29_AllocatorDestroyRangeReverseINS_9allocatorINS_12basic_stringIcNS_11char_traitsIcEENS2_IcEEEEEENS_16reverse_iteratorIPS7_EEEEE10__completeB8ne180100Ev, symObjAddr: 0x57EC, symBinAddr: 0x1000094CC, symSize: 0x1C }
  - { offset: 0x1F908, size: 0x8, addend: 0x0, symName: __ZNSt3__128__exception_guard_exceptionsINS_29_AllocatorDestroyRangeReverseINS_9allocatorINS_12basic_stringIcNS_11char_traitsIcEENS2_IcEEEEEENS_16reverse_iteratorIPS7_EEEEED1B8ne180100Ev, symObjAddr: 0x5808, symBinAddr: 0x1000094E8, symSize: 0x2C }
  - { offset: 0x1F930, size: 0x8, addend: 0x0, symName: __ZNSt3__128__exception_guard_exceptionsINS_29_AllocatorDestroyRangeReverseINS_9allocatorINS_12basic_stringIcNS_11char_traitsIcEENS2_IcEEEEEENS_16reverse_iteratorIPS7_EEEEEC1B8ne180100ESC_, symObjAddr: 0x5834, symBinAddr: 0x100009514, symSize: 0x34 }
  - { offset: 0x1F968, size: 0x8, addend: 0x0, symName: __ZNSt3__128__exception_guard_exceptionsINS_29_AllocatorDestroyRangeReverseINS_9allocatorINS_12basic_stringIcNS_11char_traitsIcEENS2_IcEEEEEENS_16reverse_iteratorIPS7_EEEEEC2B8ne180100ESC_, symObjAddr: 0x5868, symBinAddr: 0x100009548, symSize: 0x30 }
  - { offset: 0x1F9A0, size: 0x8, addend: 0x0, symName: __ZNSt3__129_AllocatorDestroyRangeReverseINS_9allocatorINS_12basic_stringIcNS_11char_traitsIcEENS1_IcEEEEEENS_16reverse_iteratorIPS6_EEEC2B8ne180100ERS7_RSA_SD_, symObjAddr: 0x5898, symBinAddr: 0x100009578, symSize: 0x38 }
  - { offset: 0x1F9F6, size: 0x8, addend: 0x0, symName: __ZNSt3__19allocatorINS_12basic_stringIcNS_11char_traitsIcEENS0_IcEEEEE9constructB8ne180100IS5_JS5_EEEvPT_DpOT0_, symObjAddr: 0x58D0, symBinAddr: 0x1000095B0, symSize: 0x30 }
  - { offset: 0x1FA51, size: 0x8, addend: 0x0, symName: __ZNSt3__119__to_address_helperINS_16reverse_iteratorIPNS_12basic_stringIcNS_11char_traitsIcEENS_9allocatorIcEEEEEEvE6__callB8ne180100ERKS9_, symObjAddr: 0x5A3C, symBinAddr: 0x1000095E0, symSize: 0x38 }
  - { offset: 0x1FA74, size: 0x8, addend: 0x0, symName: __ZNKSt3__116reverse_iteratorIPNS_12basic_stringIcNS_11char_traitsIcEENS_9allocatorIcEEEEEptB8ne180100Ev, symObjAddr: 0x5A74, symBinAddr: 0x100009618, symSize: 0x24 }
  - { offset: 0x1FA98, size: 0x8, addend: 0x0, symName: __ZNSt3__128__exception_guard_exceptionsINS_29_AllocatorDestroyRangeReverseINS_9allocatorINS_12basic_stringIcNS_11char_traitsIcEENS2_IcEEEEEENS_16reverse_iteratorIPS7_EEEEED2B8ne180100Ev, symObjAddr: 0x5A98, symBinAddr: 0x10000963C, symSize: 0x50 }
  - { offset: 0x1FAC1, size: 0x8, addend: 0x0, symName: __ZNKSt3__129_AllocatorDestroyRangeReverseINS_9allocatorINS_12basic_stringIcNS_11char_traitsIcEENS1_IcEEEEEENS_16reverse_iteratorIPS6_EEEclB8ne180100Ev, symObjAddr: 0x5AE8, symBinAddr: 0x10000968C, symSize: 0xB4 }
  - { offset: 0x1FAE6, size: 0x8, addend: 0x0, symName: __ZNSt3__116reverse_iteratorINS0_IPNS_12basic_stringIcNS_11char_traitsIcEENS_9allocatorIcEEEEEEEC1B8ne180100ES8_, symObjAddr: 0x5C0C, symBinAddr: 0x1000097B0, symSize: 0x3C }
  - { offset: 0x1FB1D, size: 0x8, addend: 0x0, symName: __ZNSt3__116reverse_iteratorINS0_IPNS_12basic_stringIcNS_11char_traitsIcEENS_9allocatorIcEEEEEEEppB8ne180100Ev, symObjAddr: 0x5CCC, symBinAddr: 0x100009870, symSize: 0x30 }
  - { offset: 0x1FB42, size: 0x8, addend: 0x0, symName: __ZNKSt3__116reverse_iteratorINS0_IPNS_12basic_stringIcNS_11char_traitsIcEENS_9allocatorIcEEEEEEE4baseB8ne180100Ev, symObjAddr: 0x5CFC, symBinAddr: 0x1000098A0, symSize: 0x24 }
  - { offset: 0x1FB6B, size: 0x8, addend: 0x0, symName: __ZNSt3__119__to_address_helperINS_16reverse_iteratorINS1_IPNS_12basic_stringIcNS_11char_traitsIcEENS_9allocatorIcEEEEEEEEvE6__callB8ne180100ERKSA_, symObjAddr: 0x5D20, symBinAddr: 0x1000098C4, symSize: 0x38 }
  - { offset: 0x1FB8E, size: 0x8, addend: 0x0, symName: __ZNKSt3__116reverse_iteratorINS0_IPNS_12basic_stringIcNS_11char_traitsIcEENS_9allocatorIcEEEEEEEptB8ne180100Ev, symObjAddr: 0x5D58, symBinAddr: 0x1000098FC, symSize: 0x24 }
  - { offset: 0x1FBB3, size: 0x8, addend: 0x0, symName: __ZNKSt3__116reverse_iteratorINS0_IPNS_12basic_stringIcNS_11char_traitsIcEENS_9allocatorIcEEEEEEEdeB8ne180100Ev, symObjAddr: 0x5D7C, symBinAddr: 0x100009920, symSize: 0x34 }
  - { offset: 0x1FBE7, size: 0x8, addend: 0x0, symName: __ZNSt3__116reverse_iteratorIPNS_12basic_stringIcNS_11char_traitsIcEENS_9allocatorIcEEEEEmmB8ne180100Ev, symObjAddr: 0x5DB0, symBinAddr: 0x100009954, symSize: 0x20 }
  - { offset: 0x1FC0C, size: 0x8, addend: 0x0, symName: __ZNSt3__116reverse_iteratorINS0_IPNS_12basic_stringIcNS_11char_traitsIcEENS_9allocatorIcEEEEEEEC2B8ne180100ES8_, symObjAddr: 0x5DD0, symBinAddr: 0x100009974, symSize: 0x2C }
  - { offset: 0x1FC43, size: 0x8, addend: 0x0, symName: __ZNSt3__116reverse_iteratorIPNS_12basic_stringIcNS_11char_traitsIcEENS_9allocatorIcEEEEEC2B8ne180100ES7_, symObjAddr: 0x5DFC, symBinAddr: 0x1000099A0, symSize: 0x28 }
  - { offset: 0x1FC7A, size: 0x8, addend: 0x0, symName: __ZNSt3__114__split_bufferINS_12basic_stringIcNS_11char_traitsIcEENS_9allocatorIcEEEERNS4_IS6_EEED2Ev, symObjAddr: 0x5E24, symBinAddr: 0x1000099C8, symSize: 0x8C }
  - { offset: 0x1FCA5, size: 0x8, addend: 0x0, symName: __ZNSt3__114__split_bufferINS_12basic_stringIcNS_11char_traitsIcEENS_9allocatorIcEEEERNS4_IS6_EEE5clearB8ne180100Ev, symObjAddr: 0x5EB0, symBinAddr: 0x100009A54, symSize: 0x28 }
  - { offset: 0x1FCCA, size: 0x8, addend: 0x0, symName: __ZNKSt3__114__split_bufferINS_12basic_stringIcNS_11char_traitsIcEENS_9allocatorIcEEEERNS4_IS6_EEE8capacityB8ne180100Ev, symObjAddr: 0x5ED8, symBinAddr: 0x100009A7C, symSize: 0x40 }
  - { offset: 0x1FCEF, size: 0x8, addend: 0x0, symName: __ZNSt3__114__split_bufferINS_12basic_stringIcNS_11char_traitsIcEENS_9allocatorIcEEEERNS4_IS6_EEE17__destruct_at_endB8ne180100EPS6_, symObjAddr: 0x5F18, symBinAddr: 0x100009ABC, symSize: 0x2C }
  - { offset: 0x1FD22, size: 0x8, addend: 0x0, symName: __ZNSt3__114__split_bufferINS_12basic_stringIcNS_11char_traitsIcEENS_9allocatorIcEEEERNS4_IS6_EEE17__destruct_at_endB8ne180100EPS6_NS_17integral_constantIbLb0EEE, symObjAddr: 0x5F44, symBinAddr: 0x100009AE8, symSize: 0x80 }
  - { offset: 0x1FD62, size: 0x8, addend: 0x0, symName: __ZNKSt3__114__split_bufferINS_12basic_stringIcNS_11char_traitsIcEENS_9allocatorIcEEEERNS4_IS6_EEE9__end_capB8ne180100Ev, symObjAddr: 0x5FC4, symBinAddr: 0x100009B68, symSize: 0x28 }
  - { offset: 0x1FD87, size: 0x8, addend: 0x0, symName: __ZNKSt3__117__compressed_pairIPNS_12basic_stringIcNS_11char_traitsIcEENS_9allocatorIcEEEERNS4_IS6_EEE5firstB8ne180100Ev, symObjAddr: 0x5FEC, symBinAddr: 0x100009B90, symSize: 0x24 }
  - { offset: 0x1FDAC, size: 0x8, addend: 0x0, symName: __ZNSt3__112basic_stringIcNS_11char_traitsIcEENS_9allocatorIcEEE15__make_iteratorB8ne180100EPc, symObjAddr: 0x6010, symBinAddr: 0x100009BB4, symSize: 0x30 }
  - { offset: 0x1FDDF, size: 0x8, addend: 0x0, symName: __ZNSt3__111__wrap_iterIPcEC1B8ne180100ES1_, symObjAddr: 0x6040, symBinAddr: 0x100009BE4, symSize: 0x34 }
  - { offset: 0x1FE16, size: 0x8, addend: 0x0, symName: __ZNSt3__111__wrap_iterIPcEC2B8ne180100ES1_, symObjAddr: 0x6074, symBinAddr: 0x100009C18, symSize: 0x20 }
  - { offset: 0x1FE4C, size: 0x8, addend: 0x0, symName: __ZNSt3__16vectorItNS_9allocatorItEEED2B8ne180100Ev, symObjAddr: 0x6188, symBinAddr: 0x100009C38, symSize: 0x44 }
  - { offset: 0x1FE74, size: 0x8, addend: 0x0, symName: __ZNSt3__16vectorItNS_9allocatorItEEE16__destroy_vectorC1B8ne180100ERS3_, symObjAddr: 0x61CC, symBinAddr: 0x100009C7C, symSize: 0x34 }
  - { offset: 0x1FEAC, size: 0x8, addend: 0x0, symName: __ZNSt3__16vectorItNS_9allocatorItEEE16__destroy_vectorclB8ne180100Ev, symObjAddr: 0x6200, symBinAddr: 0x100009CB0, symSize: 0x90 }
  - { offset: 0x1FED1, size: 0x8, addend: 0x0, symName: __ZNSt3__16vectorItNS_9allocatorItEEE16__destroy_vectorC2B8ne180100ERS3_, symObjAddr: 0x6290, symBinAddr: 0x100009D40, symSize: 0x20 }
  - { offset: 0x1FF09, size: 0x8, addend: 0x0, symName: __ZNSt3__16vectorItNS_9allocatorItEEE7__clearB8ne180100Ev, symObjAddr: 0x62B0, symBinAddr: 0x100009D60, symSize: 0x28 }
  - { offset: 0x1FF2E, size: 0x8, addend: 0x0, symName: __ZNKSt3__16vectorItNS_9allocatorItEEE17__annotate_deleteB8ne180100Ev, symObjAddr: 0x62D8, symBinAddr: 0x100009D88, symSize: 0x10 }
  - { offset: 0x1FF52, size: 0x8, addend: 0x0, symName: __ZNSt3__116allocator_traitsINS_9allocatorItEEE10deallocateB8ne180100ERS2_Ptm, symObjAddr: 0x62E8, symBinAddr: 0x100009D98, symSize: 0x34 }
  - { offset: 0x1FF94, size: 0x8, addend: 0x0, symName: __ZNSt3__16vectorItNS_9allocatorItEEE7__allocB8ne180100Ev, symObjAddr: 0x631C, symBinAddr: 0x100009DCC, symSize: 0x28 }
  - { offset: 0x1FFB9, size: 0x8, addend: 0x0, symName: __ZNKSt3__16vectorItNS_9allocatorItEEE8capacityB8ne180100Ev, symObjAddr: 0x6344, symBinAddr: 0x100009DF4, symSize: 0x40 }
  - { offset: 0x1FFDE, size: 0x8, addend: 0x0, symName: __ZNSt3__16vectorItNS_9allocatorItEEE22__base_destruct_at_endB8ne180100EPt, symObjAddr: 0x6384, symBinAddr: 0x100009E34, symSize: 0x8C }
  - { offset: 0x20020, size: 0x8, addend: 0x0, symName: __ZNSt3__116allocator_traitsINS_9allocatorItEEE7destroyB8ne180100ItvEEvRS2_PT_, symObjAddr: 0x6410, symBinAddr: 0x100009EC0, symSize: 0x2C }
  - { offset: 0x2005D, size: 0x8, addend: 0x0, symName: __ZNSt3__19allocatorItE7destroyB8ne180100EPt, symObjAddr: 0x6450, symBinAddr: 0x100009F00, symSize: 0x14 }
  - { offset: 0x20090, size: 0x8, addend: 0x0, symName: __ZNSt3__19allocatorItE10deallocateB8ne180100EPtm, symObjAddr: 0x6464, symBinAddr: 0x100009F14, symSize: 0x40 }
  - { offset: 0x200D1, size: 0x8, addend: 0x0, symName: __ZNSt3__117__compressed_pairIPtNS_9allocatorItEEE6secondB8ne180100Ev, symObjAddr: 0x64A4, symBinAddr: 0x100009F54, symSize: 0x24 }
  - { offset: 0x200F6, size: 0x8, addend: 0x0, symName: __ZNSt3__122__compressed_pair_elemINS_9allocatorItEELi1ELb1EE5__getB8ne180100Ev, symObjAddr: 0x64C8, symBinAddr: 0x100009F78, symSize: 0x14 }
  - { offset: 0x2011B, size: 0x8, addend: 0x0, symName: __ZNKSt3__16vectorItNS_9allocatorItEEE9__end_capB8ne180100Ev, symObjAddr: 0x64DC, symBinAddr: 0x100009F8C, symSize: 0x28 }
  - { offset: 0x20140, size: 0x8, addend: 0x0, symName: __ZNKSt3__117__compressed_pairIPtNS_9allocatorItEEE5firstB8ne180100Ev, symObjAddr: 0x6504, symBinAddr: 0x100009FB4, symSize: 0x24 }
  - { offset: 0x20165, size: 0x8, addend: 0x0, symName: __ZNKSt3__122__compressed_pair_elemIPtLi0ELb0EE5__getB8ne180100Ev, symObjAddr: 0x6528, symBinAddr: 0x100009FD8, symSize: 0x14 }
  - { offset: 0x2018A, size: 0x8, addend: 0x0, symName: __ZNSt3__16vectorItNS_9allocatorItEEEC2ERKS3_, symObjAddr: 0x653C, symBinAddr: 0x100009FEC, symSize: 0x94 }
  - { offset: 0x201CE, size: 0x8, addend: 0x0, symName: __ZNSt3__116allocator_traitsINS_9allocatorItEEE37select_on_container_copy_constructionB8ne180100IS2_vvEES2_RKS2_, symObjAddr: 0x65D0, symBinAddr: 0x10000A080, symSize: 0x10 }
  - { offset: 0x201FD, size: 0x8, addend: 0x0, symName: __ZNKSt3__16vectorItNS_9allocatorItEEE7__allocB8ne180100Ev, symObjAddr: 0x65E0, symBinAddr: 0x10000A090, symSize: 0x28 }
  - { offset: 0x20226, size: 0x8, addend: 0x0, symName: __ZNSt3__117__compressed_pairIPtNS_9allocatorItEEEC1B8ne180100IDnS3_EEOT_OT0_, symObjAddr: 0x6608, symBinAddr: 0x10000A0B8, symSize: 0x3C }
  - { offset: 0x2027D, size: 0x8, addend: 0x0, symName: __ZNSt3__16vectorItNS_9allocatorItEEE16__init_with_sizeB8ne180100IPtS5_EEvT_T0_m, symObjAddr: 0x6644, symBinAddr: 0x10000A0F4, symSize: 0xB8 }
  - { offset: 0x202F0, size: 0x8, addend: 0x0, symName: __ZNKSt3__117__compressed_pairIPtNS_9allocatorItEEE6secondB8ne180100Ev, symObjAddr: 0x66FC, symBinAddr: 0x10000A1AC, symSize: 0x24 }
  - { offset: 0x20315, size: 0x8, addend: 0x0, symName: __ZNKSt3__122__compressed_pair_elemINS_9allocatorItEELi1ELb1EE5__getB8ne180100Ev, symObjAddr: 0x6720, symBinAddr: 0x10000A1D0, symSize: 0x14 }
  - { offset: 0x20339, size: 0x8, addend: 0x0, symName: __ZNSt3__117__compressed_pairIPtNS_9allocatorItEEEC2B8ne180100IDnS3_EEOT_OT0_, symObjAddr: 0x6734, symBinAddr: 0x10000A1E4, symSize: 0x44 }
  - { offset: 0x20390, size: 0x8, addend: 0x0, symName: __ZNSt3__122__compressed_pair_elemIPtLi0ELb0EEC2B8ne180100IDnvEEOT_, symObjAddr: 0x6778, symBinAddr: 0x10000A228, symSize: 0x1C }
  - { offset: 0x203D1, size: 0x8, addend: 0x0, symName: __ZNSt3__122__compressed_pair_elemINS_9allocatorItEELi1ELb1EEC2B8ne180100IS2_vEEOT_, symObjAddr: 0x6794, symBinAddr: 0x10000A244, symSize: 0x18 }
  - { offset: 0x20412, size: 0x8, addend: 0x0, symName: __ZNSt3__16vectorItNS_9allocatorItEEE11__vallocateB8ne180100Em, symObjAddr: 0x67EC, symBinAddr: 0x10000A29C, symSize: 0xAC }
  - { offset: 0x20455, size: 0x8, addend: 0x0, symName: __ZNSt3__16vectorItNS_9allocatorItEEE18__construct_at_endIPtS5_EEvT_T0_m, symObjAddr: 0x6898, symBinAddr: 0x10000A348, symSize: 0x8C }
  - { offset: 0x204CA, size: 0x8, addend: 0x0, symName: __ZNSt3__128__exception_guard_exceptionsINS_6vectorItNS_9allocatorItEEE16__destroy_vectorEE10__completeB8ne180100Ev, symObjAddr: 0x6924, symBinAddr: 0x10000A3D4, symSize: 0x1C }
  - { offset: 0x204EE, size: 0x8, addend: 0x0, symName: __ZNSt3__128__exception_guard_exceptionsINS_6vectorItNS_9allocatorItEEE16__destroy_vectorEED1B8ne180100Ev, symObjAddr: 0x6940, symBinAddr: 0x10000A3F0, symSize: 0x2C }
  - { offset: 0x20516, size: 0x8, addend: 0x0, symName: __ZNSt3__128__exception_guard_exceptionsINS_6vectorItNS_9allocatorItEEE16__destroy_vectorEEC1B8ne180100ES5_, symObjAddr: 0x696C, symBinAddr: 0x10000A41C, symSize: 0x34 }
  - { offset: 0x2054D, size: 0x8, addend: 0x0, symName: __ZNSt3__128__exception_guard_exceptionsINS_6vectorItNS_9allocatorItEEE16__destroy_vectorEEC2B8ne180100ES5_, symObjAddr: 0x69A0, symBinAddr: 0x10000A450, symSize: 0x24 }
  - { offset: 0x20584, size: 0x8, addend: 0x0, symName: __ZNKSt3__16vectorItNS_9allocatorItEEE8max_sizeEv, symObjAddr: 0x69C4, symBinAddr: 0x10000A474, symSize: 0x60 }
  - { offset: 0x205AB, size: 0x8, addend: 0x0, symName: __ZNKSt3__16vectorItNS_9allocatorItEEE20__throw_length_errorB8ne180100Ev, symObjAddr: 0x6A24, symBinAddr: 0x10000A4D4, symSize: 0x1C }
  - { offset: 0x205D0, size: 0x8, addend: 0x0, symName: __ZNSt3__16vectorItNS_9allocatorItEEE9__end_capB8ne180100Ev, symObjAddr: 0x6A80, symBinAddr: 0x10000A530, symSize: 0x28 }
  - { offset: 0x205F5, size: 0x8, addend: 0x0, symName: __ZNKSt3__16vectorItNS_9allocatorItEEE14__annotate_newB8ne180100Em, symObjAddr: 0x6AA8, symBinAddr: 0x10000A558, symSize: 0x14 }
  - { offset: 0x20628, size: 0x8, addend: 0x0, symName: __ZNSt3__116allocator_traitsINS_9allocatorItEEE8max_sizeB8ne180100IS2_vEEmRKS2_, symObjAddr: 0x6ABC, symBinAddr: 0x10000A56C, symSize: 0x24 }
  - { offset: 0x20656, size: 0x8, addend: 0x0, symName: __ZNKSt3__19allocatorItE8max_sizeB8ne180100Ev, symObjAddr: 0x6AE0, symBinAddr: 0x10000A590, symSize: 0x14 }
  - { offset: 0x2067B, size: 0x8, addend: 0x0, symName: __ZNSt3__19allocatorItE8allocateB8ne180100Em, symObjAddr: 0x6AF4, symBinAddr: 0x10000A5A4, symSize: 0x58 }
  - { offset: 0x206AE, size: 0x8, addend: 0x0, symName: __ZNSt3__117__compressed_pairIPtNS_9allocatorItEEE5firstB8ne180100Ev, symObjAddr: 0x6B4C, symBinAddr: 0x10000A5FC, symSize: 0x24 }
  - { offset: 0x206D3, size: 0x8, addend: 0x0, symName: __ZNSt3__122__compressed_pair_elemIPtLi0ELb0EE5__getB8ne180100Ev, symObjAddr: 0x6B70, symBinAddr: 0x10000A620, symSize: 0x14 }
  - { offset: 0x20710, size: 0x8, addend: 0x0, symName: __ZNSt3__16vectorItNS_9allocatorItEEE21_ConstructTransactionC1B8ne180100ERS3_m, symObjAddr: 0x6B84, symBinAddr: 0x10000A634, symSize: 0x3C }
  - { offset: 0x20756, size: 0x8, addend: 0x0, symName: __ZNSt3__16vectorItNS_9allocatorItEEE21_ConstructTransactionD1B8ne180100Ev, symObjAddr: 0x6C40, symBinAddr: 0x10000A6F0, symSize: 0x2C }
  - { offset: 0x2077F, size: 0x8, addend: 0x0, symName: __ZNSt3__16vectorItNS_9allocatorItEEE21_ConstructTransactionC2B8ne180100ERS3_m, symObjAddr: 0x6C6C, symBinAddr: 0x10000A71C, symSize: 0x44 }
  - { offset: 0x207E3, size: 0x8, addend: 0x0, symName: __ZNSt3__14pairIPtS1_EC1B8ne180100IS1_S1_Li0EEEOT_OT0_, symObjAddr: 0x6DE0, symBinAddr: 0x10000A890, symSize: 0x3C }
  - { offset: 0x20840, size: 0x8, addend: 0x0, symName: __ZNSt3__14pairIPtS1_EC2B8ne180100IS1_S1_Li0EEEOT_OT0_, symObjAddr: 0x6E1C, symBinAddr: 0x10000A8CC, symSize: 0x34 }
  - { offset: 0x208A7, size: 0x8, addend: 0x0, symName: __ZNKSt3__114__copy_trivialclB8ne180100IttLi0EEENS_4pairIPT_PT0_EES4_S4_S6_, symObjAddr: 0x6FCC, symBinAddr: 0x10000AA7C, symSize: 0x48 }
  - { offset: 0x2090D, size: 0x8, addend: 0x0, symName: __ZNSt3__14pairIPtS1_EC1B8ne180100IRS1_S1_Li0EEEOT_OT0_, symObjAddr: 0x715C, symBinAddr: 0x10000AC0C, symSize: 0x3C }
  - { offset: 0x2096A, size: 0x8, addend: 0x0, symName: __ZNSt3__14pairIPtS1_EC2B8ne180100IRS1_S1_Li0EEEOT_OT0_, symObjAddr: 0x7198, symBinAddr: 0x10000AC48, symSize: 0x34 }
  - { offset: 0x209C6, size: 0x8, addend: 0x0, symName: __ZNSt3__118__unwrap_iter_implIPtLb1EE8__unwrapB8ne180100ES1_, symObjAddr: 0x71CC, symBinAddr: 0x10000AC7C, symSize: 0x24 }
  - { offset: 0x209E8, size: 0x8, addend: 0x0, symName: __ZNSt3__118__unwrap_iter_implIPtLb1EE8__rewrapB8ne180100ES1_S1_, symObjAddr: 0x71F0, symBinAddr: 0x10000ACA0, symSize: 0x50 }
  - { offset: 0x20A19, size: 0x8, addend: 0x0, symName: __ZNSt3__16vectorItNS_9allocatorItEEE21_ConstructTransactionD2B8ne180100Ev, symObjAddr: 0x7240, symBinAddr: 0x10000ACF0, symSize: 0x20 }
  - { offset: 0x20A41, size: 0x8, addend: 0x0, symName: __ZNSt3__128__exception_guard_exceptionsINS_6vectorItNS_9allocatorItEEE16__destroy_vectorEED2B8ne180100Ev, symObjAddr: 0x7260, symBinAddr: 0x10000AD10, symSize: 0x48 }
  - { offset: 0x20A69, size: 0x8, addend: 0x0, symName: __ZNSt3__16vectorItNS_9allocatorItEEEC2B8ne180100Ev, symObjAddr: 0x72A8, symBinAddr: 0x10000AD58, symSize: 0x4C }
  - { offset: 0x20A91, size: 0x8, addend: 0x0, symName: __ZNSt3__117__compressed_pairIPtNS_9allocatorItEEEC1B8ne180100IDnNS_18__default_init_tagEEEOT_OT0_, symObjAddr: 0x72F4, symBinAddr: 0x10000ADA4, symSize: 0x3C }
  - { offset: 0x20AE7, size: 0x8, addend: 0x0, symName: __ZNSt3__117__compressed_pairIPtNS_9allocatorItEEEC2B8ne180100IDnNS_18__default_init_tagEEEOT_OT0_, symObjAddr: 0x7330, symBinAddr: 0x10000ADE0, symSize: 0x40 }
  - { offset: 0x20B3D, size: 0x8, addend: 0x0, symName: __ZNSt3__122__compressed_pair_elemINS_9allocatorItEELi1ELb1EEC2B8ne180100ENS_18__default_init_tagE, symObjAddr: 0x7370, symBinAddr: 0x10000AE20, symSize: 0x2C }
  - { offset: 0x20B70, size: 0x8, addend: 0x0, symName: __ZNSt3__19allocatorItEC2B8ne180100Ev, symObjAddr: 0x739C, symBinAddr: 0x10000AE4C, symSize: 0x2C }
  - { offset: 0x20B99, size: 0x8, addend: 0x0, symName: __ZNSt3__116__non_trivial_ifILb1ENS_9allocatorItEEEC2B8ne180100Ev, symObjAddr: 0x73C8, symBinAddr: 0x10000AE78, symSize: 0x14 }
  - { offset: 0x20BC1, size: 0x8, addend: 0x0, symName: __ZNSt3__111char_traitsIcE4findB8ne180100EPKcmRS2_, symObjAddr: 0x7614, symBinAddr: 0x10000B0C4, symSize: 0x70 }
  - { offset: 0x20BFF, size: 0x8, addend: 0x0, symName: __ZNSt3__111char_traitsIcE7compareB8ne180100EPKcS3_m, symObjAddr: 0x7684, symBinAddr: 0x10000B134, symSize: 0x34 }
  - { offset: 0x20C3E, size: 0x8, addend: 0x0, symName: __ZNSt3__16vectorItNS_9allocatorItEEE11__make_iterB8ne180100EPt, symObjAddr: 0x76F8, symBinAddr: 0x10000B1A8, symSize: 0x30 }
  - { offset: 0x20C71, size: 0x8, addend: 0x0, symName: __ZNSt3__111__wrap_iterIPtEC1B8ne180100ES1_, symObjAddr: 0x7728, symBinAddr: 0x10000B1D8, symSize: 0x34 }
  - { offset: 0x20CA8, size: 0x8, addend: 0x0, symName: __ZNSt3__111__wrap_iterIPtEC2B8ne180100ES1_, symObjAddr: 0x775C, symBinAddr: 0x10000B20C, symSize: 0x20 }
  - { offset: 0x20CDF, size: 0x8, addend: 0x0, symName: __ZNSt3__16vectorItNS_9allocatorItEEE22__construct_one_at_endB8ne180100IJRKtEEEvDpOT_, symObjAddr: 0x777C, symBinAddr: 0x10000B22C, symSize: 0x90 }
  - { offset: 0x20D2F, size: 0x8, addend: 0x0, symName: __ZNSt3__16vectorItNS_9allocatorItEEE21__push_back_slow_pathIRKtEEPtOT_, symObjAddr: 0x780C, symBinAddr: 0x10000B2BC, symSize: 0xE8 }
  - { offset: 0x20D8B, size: 0x8, addend: 0x0, symName: __ZNSt3__116allocator_traitsINS_9allocatorItEEE9constructB8ne180100ItJRKtEvEEvRS2_PT_DpOT0_, symObjAddr: 0x78F4, symBinAddr: 0x10000B3A4, symSize: 0x34 }
  - { offset: 0x20DE4, size: 0x8, addend: 0x0, symName: __ZNSt3__19allocatorItE9constructB8ne180100ItJRKtEEEvPT_DpOT0_, symObjAddr: 0x7928, symBinAddr: 0x10000B3D8, symSize: 0x28 }
  - { offset: 0x20E3B, size: 0x8, addend: 0x0, symName: __ZNKSt3__16vectorItNS_9allocatorItEEE11__recommendB8ne180100Em, symObjAddr: 0x7950, symBinAddr: 0x10000B400, symSize: 0xB4 }
  - { offset: 0x20E8F, size: 0x8, addend: 0x0, symName: __ZNSt3__114__split_bufferItRNS_9allocatorItEEEC1EmmS3_, symObjAddr: 0x7A04, symBinAddr: 0x10000B4B4, symSize: 0x44 }
  - { offset: 0x20EE4, size: 0x8, addend: 0x0, symName: __ZNSt3__114__split_bufferItRNS_9allocatorItEEED1Ev, symObjAddr: 0x7B58, symBinAddr: 0x10000B608, symSize: 0x2C }
  - { offset: 0x20F0F, size: 0x8, addend: 0x0, symName: __ZNSt3__114__split_bufferItRNS_9allocatorItEEEC2EmmS3_, symObjAddr: 0x7B84, symBinAddr: 0x10000B634, symSize: 0xD4 }
  - { offset: 0x20F81, size: 0x8, addend: 0x0, symName: __ZNSt3__117__compressed_pairIPtRNS_9allocatorItEEEC1B8ne180100IDnS4_EEOT_OT0_, symObjAddr: 0x7C58, symBinAddr: 0x10000B708, symSize: 0x3C }
  - { offset: 0x20FD8, size: 0x8, addend: 0x0, symName: __ZNSt3__114__split_bufferItRNS_9allocatorItEEE7__allocB8ne180100Ev, symObjAddr: 0x7C94, symBinAddr: 0x10000B744, symSize: 0x28 }
  - { offset: 0x20FFD, size: 0x8, addend: 0x0, symName: __ZNSt3__114__split_bufferItRNS_9allocatorItEEE9__end_capB8ne180100Ev, symObjAddr: 0x7CBC, symBinAddr: 0x10000B76C, symSize: 0x28 }
  - { offset: 0x21021, size: 0x8, addend: 0x0, symName: __ZNSt3__117__compressed_pairIPtRNS_9allocatorItEEEC2B8ne180100IDnS4_EEOT_OT0_, symObjAddr: 0x7CE4, symBinAddr: 0x10000B794, symSize: 0x48 }
  - { offset: 0x21078, size: 0x8, addend: 0x0, symName: __ZNSt3__122__compressed_pair_elemIRNS_9allocatorItEELi1ELb0EEC2B8ne180100IS3_vEEOT_, symObjAddr: 0x7D2C, symBinAddr: 0x10000B7DC, symSize: 0x20 }
  - { offset: 0x210B9, size: 0x8, addend: 0x0, symName: __ZNSt3__117__compressed_pairIPtRNS_9allocatorItEEE6secondB8ne180100Ev, symObjAddr: 0x7D4C, symBinAddr: 0x10000B7FC, symSize: 0x28 }
  - { offset: 0x210DE, size: 0x8, addend: 0x0, symName: __ZNSt3__122__compressed_pair_elemIRNS_9allocatorItEELi1ELb0EE5__getB8ne180100Ev, symObjAddr: 0x7D74, symBinAddr: 0x10000B824, symSize: 0x18 }
  - { offset: 0x21103, size: 0x8, addend: 0x0, symName: __ZNSt3__117__compressed_pairIPtRNS_9allocatorItEEE5firstB8ne180100Ev, symObjAddr: 0x7D8C, symBinAddr: 0x10000B83C, symSize: 0x24 }
  - { offset: 0x21127, size: 0x8, addend: 0x0, symName: __ZNSt3__116reverse_iteratorIPtEC1B8ne180100ES1_, symObjAddr: 0x7E28, symBinAddr: 0x10000B8D8, symSize: 0x34 }
  - { offset: 0x2115E, size: 0x8, addend: 0x0, symName: __ZNKSt3__116reverse_iteratorIPtE4baseB8ne180100Ev, symObjAddr: 0x7E5C, symBinAddr: 0x10000B90C, symSize: 0x18 }
  - { offset: 0x211A6, size: 0x8, addend: 0x0, symName: __ZNKSt3__111__move_loopINS_17_ClassicAlgPolicyEEclB8ne180100INS_16reverse_iteratorIPtEES6_S6_EENS_4pairIT_T1_EES8_T0_S9_, symObjAddr: 0x81A0, symBinAddr: 0x10000BC50, symSize: 0xA0 }
  - { offset: 0x21214, size: 0x8, addend: 0x0, symName: __ZNSt3__18_IterOpsINS_17_ClassicAlgPolicyEE11__iter_moveB8ne180100IRNS_16reverse_iteratorIPtEELi0EEEDTclsr3stdE4movedeclsr3stdE7declvalIRT_EEEEOS8_, symObjAddr: 0x83D4, symBinAddr: 0x10000BE84, symSize: 0x28 }
  - { offset: 0x21246, size: 0x8, addend: 0x0, symName: __ZNKSt3__116reverse_iteratorIPtEdeB8ne180100Ev, symObjAddr: 0x83FC, symBinAddr: 0x10000BEAC, symSize: 0x28 }
  - { offset: 0x2127A, size: 0x8, addend: 0x0, symName: __ZNSt3__116reverse_iteratorIPtEppB8ne180100Ev, symObjAddr: 0x8424, symBinAddr: 0x10000BED4, symSize: 0x20 }
  - { offset: 0x2129F, size: 0x8, addend: 0x0, symName: __ZNSt3__18_IterOpsINS_17_ClassicAlgPolicyEE25__validate_iter_referenceB8ne180100IRNS_16reverse_iteratorIPtEEEEvv, symObjAddr: 0x8444, symBinAddr: 0x10000BEF4, symSize: 0x4 }
  - { offset: 0x212BD, size: 0x8, addend: 0x0, symName: __ZNSt3__118__unwrap_iter_implINS_16reverse_iteratorIPtEELb0EE8__unwrapB8ne180100ES3_, symObjAddr: 0x8448, symBinAddr: 0x10000BEF8, symSize: 0x24 }
  - { offset: 0x212E4, size: 0x8, addend: 0x0, symName: __ZNSt3__14pairINS_16reverse_iteratorIPtEES3_EC1B8ne180100IS3_S3_Li0EEEOT_OT0_, symObjAddr: 0x846C, symBinAddr: 0x10000BF1C, symSize: 0x3C }
  - { offset: 0x21341, size: 0x8, addend: 0x0, symName: __ZNSt3__14pairINS_16reverse_iteratorIPtEES3_EC2B8ne180100IS3_S3_Li0EEEOT_OT0_, symObjAddr: 0x84A8, symBinAddr: 0x10000BF58, symSize: 0x34 }
  - { offset: 0x2139E, size: 0x8, addend: 0x0, symName: __ZNSt3__118__unwrap_iter_implINS_16reverse_iteratorIPtEELb0EE8__rewrapB8ne180100ES3_S3_, symObjAddr: 0x84DC, symBinAddr: 0x10000BF8C, symSize: 0x2C }
  - { offset: 0x213CC, size: 0x8, addend: 0x0, symName: __ZNSt3__116reverse_iteratorIPtEC2B8ne180100ES1_, symObjAddr: 0x8508, symBinAddr: 0x10000BFB8, symSize: 0x28 }
  - { offset: 0x21403, size: 0x8, addend: 0x0, symName: __ZNSt3__114__split_bufferItRNS_9allocatorItEEED2Ev, symObjAddr: 0x8530, symBinAddr: 0x10000BFE0, symSize: 0x8C }
  - { offset: 0x2142E, size: 0x8, addend: 0x0, symName: __ZNSt3__114__split_bufferItRNS_9allocatorItEEE5clearB8ne180100Ev, symObjAddr: 0x85BC, symBinAddr: 0x10000C06C, symSize: 0x28 }
  - { offset: 0x21453, size: 0x8, addend: 0x0, symName: __ZNKSt3__114__split_bufferItRNS_9allocatorItEEE8capacityB8ne180100Ev, symObjAddr: 0x85E4, symBinAddr: 0x10000C094, symSize: 0x40 }
  - { offset: 0x21478, size: 0x8, addend: 0x0, symName: __ZNSt3__114__split_bufferItRNS_9allocatorItEEE17__destruct_at_endB8ne180100EPt, symObjAddr: 0x8624, symBinAddr: 0x10000C0D4, symSize: 0x2C }
  - { offset: 0x214AB, size: 0x8, addend: 0x0, symName: __ZNSt3__114__split_bufferItRNS_9allocatorItEEE17__destruct_at_endB8ne180100EPtNS_17integral_constantIbLb0EEE, symObjAddr: 0x8650, symBinAddr: 0x10000C100, symSize: 0x80 }
  - { offset: 0x214EB, size: 0x8, addend: 0x0, symName: __ZNKSt3__114__split_bufferItRNS_9allocatorItEEE9__end_capB8ne180100Ev, symObjAddr: 0x86D0, symBinAddr: 0x10000C180, symSize: 0x28 }
  - { offset: 0x21510, size: 0x8, addend: 0x0, symName: __ZNKSt3__117__compressed_pairIPtRNS_9allocatorItEEE5firstB8ne180100Ev, symObjAddr: 0x86F8, symBinAddr: 0x10000C1A8, symSize: 0x24 }
  - { offset: 0x2153A, size: 0x8, addend: 0x0, symName: __ZNSt3__16vectorItNS_9allocatorItEEE22__construct_one_at_endB8ne180100IJtEEEvDpOT_, symObjAddr: 0x871C, symBinAddr: 0x10000C1CC, symSize: 0x90 }
  - { offset: 0x2158A, size: 0x8, addend: 0x0, symName: __ZNSt3__16vectorItNS_9allocatorItEEE21__push_back_slow_pathItEEPtOT_, symObjAddr: 0x87AC, symBinAddr: 0x10000C25C, symSize: 0xE8 }
  - { offset: 0x215E6, size: 0x8, addend: 0x0, symName: __ZNSt3__116allocator_traitsINS_9allocatorItEEE9constructB8ne180100ItJtEvEEvRS2_PT_DpOT0_, symObjAddr: 0x8894, symBinAddr: 0x10000C344, symSize: 0x34 }
  - { offset: 0x2163F, size: 0x8, addend: 0x0, symName: __ZNSt3__19allocatorItE9constructB8ne180100ItJtEEEvPT_DpOT0_, symObjAddr: 0x88C8, symBinAddr: 0x10000C378, symSize: 0x28 }
  - { offset: 0x23677, size: 0x8, addend: 0x0, symName: __ZN19ArithmeticLogicUnitC2EP9RegistersP18RandomAccessMemory, symObjAddr: 0x0, symBinAddr: 0x10000C3A0, symSize: 0x2C }
  - { offset: 0x2369D, size: 0x8, addend: 0x0, symName: __ZN19ArithmeticLogicUnitC2EP9RegistersP18RandomAccessMemory, symObjAddr: 0x0, symBinAddr: 0x10000C3A0, symSize: 0x2C }
  - { offset: 0x236E4, size: 0x8, addend: 0x0, symName: __ZN19ArithmeticLogicUnitC1EP9RegistersP18RandomAccessMemory, symObjAddr: 0x2C, symBinAddr: 0x10000C3CC, symSize: 0x3C }
  - { offset: 0x2372B, size: 0x8, addend: 0x0, symName: __ZN19ArithmeticLogicUnit8alu_loadEtt, symObjAddr: 0x68, symBinAddr: 0x10000C408, symSize: 0x50 }
  - { offset: 0x2377D, size: 0x8, addend: 0x0, symName: __ZN19ArithmeticLogicUnit9alu_storeEtt, symObjAddr: 0xB8, symBinAddr: 0x10000C458, symSize: 0x50 }
  - { offset: 0x237CF, size: 0x8, addend: 0x0, symName: __ZN19ArithmeticLogicUnit7alu_addEttt, symObjAddr: 0x108, symBinAddr: 0x10000C4A8, symSize: 0x74 }
  - { offset: 0x2383E, size: 0x8, addend: 0x0, symName: __ZN19ArithmeticLogicUnit7alu_subEttt, symObjAddr: 0x17C, symBinAddr: 0x10000C51C, symSize: 0x74 }
  - { offset: 0x238AD, size: 0x8, addend: 0x0, symName: __ZN19ArithmeticLogicUnit7alu_andEttt, symObjAddr: 0x1F0, symBinAddr: 0x10000C590, symSize: 0x74 }
  - { offset: 0x2391C, size: 0x8, addend: 0x0, symName: __ZN19ArithmeticLogicUnit6alu_orEttt, symObjAddr: 0x264, symBinAddr: 0x10000C604, symSize: 0x74 }
  - { offset: 0x2398B, size: 0x8, addend: 0x0, symName: __ZN19ArithmeticLogicUnit7alu_xorEttt, symObjAddr: 0x2D8, symBinAddr: 0x10000C678, symSize: 0x74 }
  - { offset: 0x239FA, size: 0x8, addend: 0x0, symName: __ZN19ArithmeticLogicUnit7alu_notEtt, symObjAddr: 0x34C, symBinAddr: 0x10000C6EC, symSize: 0x58 }
  - { offset: 0x23A4C, size: 0x8, addend: 0x0, symName: __ZN19ArithmeticLogicUnit8alu_addiEttt, symObjAddr: 0x3A4, symBinAddr: 0x10000C744, symSize: 0x60 }
  - { offset: 0x23AAC, size: 0x8, addend: 0x0, symName: __ZN19ArithmeticLogicUnit8alu_subiEttt, symObjAddr: 0x404, symBinAddr: 0x10000C7A4, symSize: 0x60 }
  - { offset: 0x23B0C, size: 0x8, addend: 0x0, symName: __ZN19ArithmeticLogicUnit8alu_andiEttt, symObjAddr: 0x464, symBinAddr: 0x10000C804, symSize: 0x60 }
  - { offset: 0x23B6C, size: 0x8, addend: 0x0, symName: __ZN19ArithmeticLogicUnit7alu_oriEttt, symObjAddr: 0x4C4, symBinAddr: 0x10000C864, symSize: 0x60 }
  - { offset: 0x23BCC, size: 0x8, addend: 0x0, symName: __ZN19ArithmeticLogicUnit8alu_xoriEttt, symObjAddr: 0x524, symBinAddr: 0x10000C8C4, symSize: 0x60 }
  - { offset: 0x23C2C, size: 0x8, addend: 0x0, symName: __ZN19ArithmeticLogicUnit7alu_jmpEt, symObjAddr: 0x584, symBinAddr: 0x10000C924, symSize: 0x38 }
  - { offset: 0x23C61, size: 0x8, addend: 0x0, symName: __ZN19ArithmeticLogicUnit7alu_beqEttt, symObjAddr: 0x5BC, symBinAddr: 0x10000C95C, symSize: 0x88 }
  - { offset: 0x23CD0, size: 0x8, addend: 0x0, symName: __ZN19ArithmeticLogicUnit7alu_bneEttt, symObjAddr: 0x644, symBinAddr: 0x10000C9E4, symSize: 0x88 }
  - { offset: 0x27F33, size: 0x8, addend: 0x0, symName: __ZN11ControlUnitC2EP9RegistersP18RandomAccessMemoryP19ArithmeticLogicUnit, symObjAddr: 0x0, symBinAddr: 0x10000CA6C, symSize: 0x38 }
  - { offset: 0x27F88, size: 0x8, addend: 0x0, symName: __ZN11ControlUnitC1EP9RegistersP18RandomAccessMemoryP19ArithmeticLogicUnit, symObjAddr: 0x38, symBinAddr: 0x10000CAA4, symSize: 0x44 }
  - { offset: 0x27FDD, size: 0x8, addend: 0x0, symName: __ZN11ControlUnit18decode_instructionEt, symObjAddr: 0x7C, symBinAddr: 0x10000CAE8, symSize: 0x14C }
  - { offset: 0x28021, size: 0x8, addend: 0x0, symName: __ZN11ControlUnit11decode_loadEt, symObjAddr: 0x200, symBinAddr: 0x10000CC6C, symSize: 0x4C }
  - { offset: 0x28074, size: 0x8, addend: 0x0, symName: __ZN11ControlUnit12decode_storeEt, symObjAddr: 0x24C, symBinAddr: 0x10000CCB8, symSize: 0x4C }
  - { offset: 0x280C7, size: 0x8, addend: 0x0, symName: __ZN11ControlUnit10decode_addEt, symObjAddr: 0x298, symBinAddr: 0x10000CD04, symSize: 0x64 }
  - { offset: 0x28129, size: 0x8, addend: 0x0, symName: __ZN11ControlUnit10decode_subEt, symObjAddr: 0x2FC, symBinAddr: 0x10000CD68, symSize: 0x64 }
  - { offset: 0x2818B, size: 0x8, addend: 0x0, symName: __ZN11ControlUnit10decode_andEt, symObjAddr: 0x360, symBinAddr: 0x10000CDCC, symSize: 0x64 }
  - { offset: 0x281ED, size: 0x8, addend: 0x0, symName: __ZN11ControlUnit9decode_orEt, symObjAddr: 0x3C4, symBinAddr: 0x10000CE30, symSize: 0x64 }
  - { offset: 0x2824F, size: 0x8, addend: 0x0, symName: __ZN11ControlUnit10decode_xorEt, symObjAddr: 0x428, symBinAddr: 0x10000CE94, symSize: 0x64 }
  - { offset: 0x282B1, size: 0x8, addend: 0x0, symName: __ZN11ControlUnit10decode_notEt, symObjAddr: 0x48C, symBinAddr: 0x10000CEF8, symSize: 0x54 }
  - { offset: 0x28304, size: 0x8, addend: 0x0, symName: __ZN11ControlUnit11decode_addiEt, symObjAddr: 0x4E0, symBinAddr: 0x10000CF4C, symSize: 0x64 }
  - { offset: 0x28366, size: 0x8, addend: 0x0, symName: __ZN11ControlUnit11decode_subiEt, symObjAddr: 0x544, symBinAddr: 0x10000CFB0, symSize: 0x64 }
  - { offset: 0x283C8, size: 0x8, addend: 0x0, symName: __ZN11ControlUnit11decode_andiEt, symObjAddr: 0x5A8, symBinAddr: 0x10000D014, symSize: 0x64 }
  - { offset: 0x2842A, size: 0x8, addend: 0x0, symName: __ZN11ControlUnit10decode_oriEt, symObjAddr: 0x60C, symBinAddr: 0x10000D078, symSize: 0x64 }
  - { offset: 0x2848C, size: 0x8, addend: 0x0, symName: __ZN11ControlUnit11decode_xoriEt, symObjAddr: 0x670, symBinAddr: 0x10000D0DC, symSize: 0x64 }
  - { offset: 0x284EE, size: 0x8, addend: 0x0, symName: __ZN11ControlUnit10decode_jmpEt, symObjAddr: 0x6D4, symBinAddr: 0x10000D140, symSize: 0x3C }
  - { offset: 0x28532, size: 0x8, addend: 0x0, symName: __ZN11ControlUnit18decode_instructionENSt3__16vectorItNS0_9allocatorItEEEE, symObjAddr: 0x710, symBinAddr: 0x10000D17C, symSize: 0x108 }
  - { offset: 0x28577, size: 0x8, addend: 0x0, symName: __ZN11ControlUnit10decode_beqENSt3__16vectorItNS0_9allocatorItEEEE, symObjAddr: 0x83C, symBinAddr: 0x10000D284, symSize: 0xA4 }
  - { offset: 0x285DA, size: 0x8, addend: 0x0, symName: __ZN11ControlUnit10decode_bneENSt3__16vectorItNS0_9allocatorItEEEE, symObjAddr: 0x940, symBinAddr: 0x10000D328, symSize: 0xA4 }
  - { offset: 0x2A537, size: 0x8, addend: 0x0, symName: __ZN7RAMCell8get_dataEv, symObjAddr: 0x0, symBinAddr: 0x10000D3CC, symSize: 0x18 }
  - { offset: 0x2A567, size: 0x8, addend: 0x0, symName: __ZN7RAMCell8get_dataEv, symObjAddr: 0x0, symBinAddr: 0x10000D3CC, symSize: 0x18 }
  - { offset: 0x2A58E, size: 0x8, addend: 0x0, symName: __ZN7RAMCell11update_dataEt, symObjAddr: 0x18, symBinAddr: 0x10000D3E4, symSize: 0x20 }
  - { offset: 0x2A5C3, size: 0x8, addend: 0x0, symName: __ZN7RAMCell10reset_dataEv, symObjAddr: 0x38, symBinAddr: 0x10000D404, symSize: 0x18 }
  - { offset: 0x2A5F1, size: 0x8, addend: 0x0, symName: __ZN18RandomAccessMemoryC2Ev, symObjAddr: 0x50, symBinAddr: 0x10000D41C, symSize: 0x2C }
  - { offset: 0x2A61C, size: 0x8, addend: 0x0, symName: __ZN18RandomAccessMemory8init_ramEv, symObjAddr: 0x7C, symBinAddr: 0x10000D448, symSize: 0x64 }
  - { offset: 0x2A65F, size: 0x8, addend: 0x0, symName: __ZN18RandomAccessMemoryC1Ev, symObjAddr: 0xE0, symBinAddr: 0x10000D4AC, symSize: 0x2C }
  - { offset: 0x2A68A, size: 0x8, addend: 0x0, symName: __ZN18RandomAccessMemory11get_ramcellEt, symObjAddr: 0x10C, symBinAddr: 0x10000D4D8, symSize: 0x34 }
  - { offset: 0x2A6BF, size: 0x8, addend: 0x0, symName: __ZN18RandomAccessMemory14update_ramcellEtt, symObjAddr: 0x140, symBinAddr: 0x10000D50C, symSize: 0x38 }
  - { offset: 0x2A702, size: 0x8, addend: 0x0, symName: __ZN18RandomAccessMemory13reset_ramcellEt, symObjAddr: 0x178, symBinAddr: 0x10000D544, symSize: 0x34 }
  - { offset: 0x2A737, size: 0x8, addend: 0x0, symName: __ZN18RandomAccessMemory14clear_ramcellsEv, symObjAddr: 0x1AC, symBinAddr: 0x10000D578, symSize: 0x64 }
  - { offset: 0x2A7AC, size: 0x8, addend: 0x0, symName: __ZN22GeneralPurposeRegister8get_dataEv, symObjAddr: 0x0, symBinAddr: 0x10000D5DC, symSize: 0x18 }
  - { offset: 0x2A7C1, size: 0x8, addend: 0x0, symName: __ZN22GeneralPurposeRegister8get_dataEv, symObjAddr: 0x0, symBinAddr: 0x10000D5DC, symSize: 0x18 }
  - { offset: 0x2A7E8, size: 0x8, addend: 0x0, symName: __ZN22GeneralPurposeRegister11update_dataEt, symObjAddr: 0x18, symBinAddr: 0x10000D5F4, symSize: 0x20 }
  - { offset: 0x2A81D, size: 0x8, addend: 0x0, symName: __ZN22GeneralPurposeRegister10reset_dataEv, symObjAddr: 0x38, symBinAddr: 0x10000D614, symSize: 0x18 }
  - { offset: 0x2A844, size: 0x8, addend: 0x0, symName: __ZN19InstructionRegister8get_dataEv, symObjAddr: 0x50, symBinAddr: 0x10000D62C, symSize: 0x18 }
  - { offset: 0x2A86B, size: 0x8, addend: 0x0, symName: __ZN19InstructionRegister11update_dataEt, symObjAddr: 0x68, symBinAddr: 0x10000D644, symSize: 0x20 }
  - { offset: 0x2A8A0, size: 0x8, addend: 0x0, symName: __ZN19InstructionRegister10reset_dataEv, symObjAddr: 0x88, symBinAddr: 0x10000D664, symSize: 0x18 }
  - { offset: 0x2A8C7, size: 0x8, addend: 0x0, symName: __ZN14ProgramCounter11get_addressEv, symObjAddr: 0xA0, symBinAddr: 0x10000D67C, symSize: 0x18 }
  - { offset: 0x2A8EE, size: 0x8, addend: 0x0, symName: __ZN14ProgramCounter11set_addressEt, symObjAddr: 0xB8, symBinAddr: 0x10000D694, symSize: 0x20 }
  - { offset: 0x2A923, size: 0x8, addend: 0x0, symName: __ZN14ProgramCounter13reset_addressEv, symObjAddr: 0xD8, symBinAddr: 0x10000D6B4, symSize: 0x18 }
  - { offset: 0x2A951, size: 0x8, addend: 0x0, symName: __ZN9RegistersC2Ev, symObjAddr: 0xF0, symBinAddr: 0x10000D6CC, symSize: 0x3C }
  - { offset: 0x2A97C, size: 0x8, addend: 0x0, symName: __ZN9Registers30init_general_purpose_registersEv, symObjAddr: 0x12C, symBinAddr: 0x10000D708, symSize: 0x68 }
  - { offset: 0x2A9BF, size: 0x8, addend: 0x0, symName: __ZN9Registers25init_instruction_registerEv, symObjAddr: 0x194, symBinAddr: 0x10000D770, symSize: 0x2C }
  - { offset: 0x2A9E4, size: 0x8, addend: 0x0, symName: __ZN9Registers20init_program_counterEv, symObjAddr: 0x1C0, symBinAddr: 0x10000D79C, symSize: 0x2C }
  - { offset: 0x2AA09, size: 0x8, addend: 0x0, symName: __ZN9RegistersC1Ev, symObjAddr: 0x1EC, symBinAddr: 0x10000D7C8, symSize: 0x2C }
  - { offset: 0x2AA34, size: 0x8, addend: 0x0, symName: __ZN9Registers33get_data_general_purpose_registerEt, symObjAddr: 0x218, symBinAddr: 0x10000D7F4, symSize: 0x34 }
  - { offset: 0x2AA69, size: 0x8, addend: 0x0, symName: __ZN9Registers31update_general_purpose_registerEtt, symObjAddr: 0x24C, symBinAddr: 0x10000D828, symSize: 0x38 }
  - { offset: 0x2AAAC, size: 0x8, addend: 0x0, symName: __ZN9Registers35clear_all_general_purpose_registersEv, symObjAddr: 0x284, symBinAddr: 0x10000D860, symSize: 0x64 }
  - { offset: 0x2AAF1, size: 0x8, addend: 0x0, symName: __ZN9Registers26clear_instruction_registerEv, symObjAddr: 0x2E8, symBinAddr: 0x10000D8C4, symSize: 0x28 }
  - { offset: 0x2AB18, size: 0x8, addend: 0x0, symName: __ZN9Registers21clear_program_counterEv, symObjAddr: 0x310, symBinAddr: 0x10000D8EC, symSize: 0x2C }
  - { offset: 0x2AB3F, size: 0x8, addend: 0x0, symName: __ZN9Registers22update_program_counterEt, symObjAddr: 0x33C, symBinAddr: 0x10000D918, symSize: 0x30 }
  - { offset: 0x2AB74, size: 0x8, addend: 0x0, symName: __ZN9Registers19get_program_counterEv, symObjAddr: 0x36C, symBinAddr: 0x10000D948, symSize: 0x2C }
  - { offset: 0x2AB9B, size: 0x8, addend: 0x0, symName: __ZN9Registers27update_instruction_registerEt, symObjAddr: 0x398, symBinAddr: 0x10000D974, symSize: 0x30 }
  - { offset: 0x2ABD0, size: 0x8, addend: 0x0, symName: __ZN9Registers24get_instruction_registerEv, symObjAddr: 0x3C8, symBinAddr: 0x10000D9A4, symSize: 0x2C }
  - { offset: 0x370CB, size: 0x8, addend: 0x0, symName: __ZNSt3__120__throw_out_of_rangeB8ne180100EPKc, symObjAddr: 0x7720, symBinAddr: 0x100010078, symSize: 0x64 }
  - { offset: 0x384EF, size: 0x8, addend: 0x0, symName: __ZN9AssemblerC2Ev, symObjAddr: 0x0, symBinAddr: 0x10000D9D0, symSize: 0x14 }
  - { offset: 0x3851A, size: 0x8, addend: 0x0, symName: __ZN9AssemblerC1Ev, symObjAddr: 0x14, symBinAddr: 0x10000D9E4, symSize: 0x2C }
  - { offset: 0x38545, size: 0x8, addend: 0x0, symName: __ZN9Assembler25generate_instruction_codeENSt3__112basic_stringIcNS0_11char_traitsIcEENS0_9allocatorIcEEEE, symObjAddr: 0x40, symBinAddr: 0x10000DA10, symSize: 0x100 }
  - { offset: 0x385A8, size: 0x8, addend: 0x0, symName: __ZN9Assembler8fetch_opENSt3__112basic_stringIcNS0_11char_traitsIcEENS0_9allocatorIcEEEE, symObjAddr: 0x140, symBinAddr: 0x10000DB10, symSize: 0x3D4 }
  - { offset: 0x385ED, size: 0x8, addend: 0x0, symName: __ZN9Assembler12fetch_non_opEtNSt3__112basic_stringIcNS0_11char_traitsIcEENS0_9allocatorIcEEEE, symObjAddr: 0x514, symBinAddr: 0x10000DEE4, symSize: 0x1400 }
  - { offset: 0x38651, size: 0x8, addend: 0x0, symName: __ZN9Assembler32generate_instruction_code_branchENSt3__112basic_stringIcNS0_11char_traitsIcEENS0_9allocatorIcEEEE, symObjAddr: 0x1954, symBinAddr: 0x10000F324, symSize: 0x224 }
  - { offset: 0x386E4, size: 0x8, addend: 0x0, symName: __ZN9Assembler10line_splitENSt3__112basic_stringIcNS0_11char_traitsIcEENS0_9allocatorIcEEEE, symObjAddr: 0x1C34, symBinAddr: 0x10000F548, symSize: 0x140 }
  - { offset: 0x3884F, size: 0x8, addend: 0x0, symName: __ZNSt3__119basic_istringstreamIcNS_11char_traitsIcEENS_9allocatorIcEEEC1B8ne180100ERKNS_12basic_stringIcS2_S4_EEj, symObjAddr: 0x1E24, symBinAddr: 0x10000F688, symSize: 0xF4 }
  - { offset: 0x3889B, size: 0x8, addend: 0x0, symName: __ZNSt3__119basic_istringstreamIcNS_11char_traitsIcEENS_9allocatorIcEEED1Ev, symObjAddr: 0x231C, symBinAddr: 0x10000F77C, symSize: 0x40 }
  - { offset: 0x388C7, size: 0x8, addend: 0x0, symName: __ZN9Assembler14assembly_splitENSt3__112basic_stringIcNS0_11char_traitsIcEENS0_9allocatorIcEEEE, symObjAddr: 0x235C, symBinAddr: 0x10000F7BC, symSize: 0x1A8 }
  - { offset: 0x38B79, size: 0x8, addend: 0x0, symName: __ZNSt3__114basic_ifstreamIcNS_11char_traitsIcEEEC1ERKNS_12basic_stringIcS2_NS_9allocatorIcEEEEj, symObjAddr: 0x2504, symBinAddr: 0x10000F964, symSize: 0x164 }
  - { offset: 0x38BC7, size: 0x8, addend: 0x0, symName: __ZNSt3__114basic_ifstreamIcNS_11char_traitsIcEEED1Ev, symObjAddr: 0x26C4, symBinAddr: 0x10000FAC8, symSize: 0x40 }
  - { offset: 0x38BF3, size: 0x8, addend: 0x0, symName: __ZNSt3__16vectorINS_12basic_stringIcNS_11char_traitsIcEENS_9allocatorIcEEEENS4_IS6_EEE2atEm, symObjAddr: 0x2704, symBinAddr: 0x10000FB08, symSize: 0x68 }
  - { offset: 0x38C29, size: 0x8, addend: 0x0, symName: __ZN9Assembler8fetch_rsENSt3__112basic_stringIcNS0_11char_traitsIcEENS0_9allocatorIcEEEEc, symObjAddr: 0x2818, symBinAddr: 0x10000FB70, symSize: 0x1E0 }
  - { offset: 0x38CD6, size: 0x8, addend: 0x0, symName: __ZN9Assembler9fetch_memENSt3__112basic_stringIcNS0_11char_traitsIcEENS0_9allocatorIcEEEE, symObjAddr: 0x29F8, symBinAddr: 0x10000FD50, symSize: 0x138 }
  - { offset: 0x38D68, size: 0x8, addend: 0x0, symName: __ZN9Assembler9fetch_immENSt3__112basic_stringIcNS0_11char_traitsIcEENS0_9allocatorIcEEEE, symObjAddr: 0x2B30, symBinAddr: 0x10000FE88, symSize: 0x3C }
  - { offset: 0x38DA0, size: 0x8, addend: 0x0, symName: __ZN9Assembler9fetch_jmpENSt3__112basic_stringIcNS0_11char_traitsIcEENS0_9allocatorIcEEEE, symObjAddr: 0x2B6C, symBinAddr: 0x10000FEC4, symSize: 0x3C }
  - { offset: 0x38DF5, size: 0x8, addend: 0x0, symName: __ZNSt3__119basic_istringstreamIcNS_11char_traitsIcEENS_9allocatorIcEEED2Ev, symObjAddr: 0x2D40, symBinAddr: 0x10000FF00, symSize: 0x64 }
  - { offset: 0x38E2D, size: 0x8, addend: 0x0, symName: __ZTv0_n24_NSt3__119basic_istringstreamIcNS_11char_traitsIcEENS_9allocatorIcEEED1Ev, symObjAddr: 0x2DA4, symBinAddr: 0x10000FF64, symSize: 0x28 }
  - { offset: 0x38E49, size: 0x8, addend: 0x0, symName: __ZNSt3__114basic_ifstreamIcNS_11char_traitsIcEEED2Ev, symObjAddr: 0x2E40, symBinAddr: 0x10000FF8C, symSize: 0x64 }
  - { offset: 0x38E81, size: 0x8, addend: 0x0, symName: __ZTv0_n24_NSt3__114basic_ifstreamIcNS_11char_traitsIcEEED1Ev, symObjAddr: 0x2EA4, symBinAddr: 0x10000FFF0, symSize: 0x28 }
  - { offset: 0x38EF7, size: 0x8, addend: 0x0, symName: __ZNSt3__113basic_filebufIcNS_11char_traitsIcEEE4openERKNS_12basic_stringIcS2_NS_9allocatorIcEEEEj, symObjAddr: 0x7290, symBinAddr: 0x100010018, symSize: 0x44 }
  - { offset: 0x38F3C, size: 0x8, addend: 0x0, symName: __ZNKSt3__16vectorINS_12basic_stringIcNS_11char_traitsIcEENS_9allocatorIcEEEENS4_IS6_EEE20__throw_out_of_rangeB8ne180100Ev, symObjAddr: 0x7704, symBinAddr: 0x10001005C, symSize: 0x1C }
  - { offset: 0x38F60, size: 0x8, addend: 0x0, symName: __ZNSt12out_of_rangeC1B8ne180100EPKc, symObjAddr: 0x7784, symBinAddr: 0x1000100DC, symSize: 0x34 }
  - { offset: 0x38F96, size: 0x8, addend: 0x0, symName: __ZNSt12out_of_rangeC2B8ne180100EPKc, symObjAddr: 0x77B8, symBinAddr: 0x100010110, symSize: 0x44 }
  - { offset: 0x3C12D, size: 0x8, addend: 0x0, symName: __ZNSt3__14__fs10filesystem5beginB8ne180100ENS1_18directory_iteratorE, symObjAddr: 0x8BC, symBinAddr: 0x100010910, symSize: 0x38 }
  - { offset: 0x3C15A, size: 0x8, addend: 0x0, symName: __ZNSt3__14__fs10filesystem3endB8ne180100ENS1_18directory_iteratorE, symObjAddr: 0x954, symBinAddr: 0x1000109A8, symSize: 0x34 }
  - { offset: 0x3C184, size: 0x8, addend: 0x0, symName: __ZNSt3__14__fs10filesystemneB8ne180100ERKNS1_18directory_iteratorES4_, symObjAddr: 0x988, symBinAddr: 0x1000109DC, symSize: 0x34 }
  - { offset: 0x3C1BE, size: 0x8, addend: 0x0, symName: __ZNSt3__14__fs10filesystemlsB8ne180100IcNS_11char_traitsIcEELi0EEERNS_13basic_ostreamIT_T0_EES9_RKNS1_4pathE, symObjAddr: 0xA18, symBinAddr: 0x100010A6C, symSize: 0x54 }
  - { offset: 0x3C213, size: 0x8, addend: 0x0, symName: __ZNSt3__14__fs10filesystemeqB8ne180100ERKNS1_18directory_iteratorES4_, symObjAddr: 0x13B4, symBinAddr: 0x100011408, symSize: 0x30 }
  - { offset: 0x3C24D, size: 0x8, addend: 0x0, symName: __ZNSt3__14__fs10filesystem6existsB8ne180100ENS1_11file_statusE, symObjAddr: 0x167C, symBinAddr: 0x1000116D0, symSize: 0x78 }
  - { offset: 0x3C27A, size: 0x8, addend: 0x0, symName: __ZNSt3__14__fs10filesystem12status_knownB8ne180100ENS1_11file_statusE, symObjAddr: 0x17AC, symBinAddr: 0x100011800, symSize: 0x30 }
  - { offset: 0x4AC89, size: 0x8, addend: 0x0, symName: __ZNSt3__1eqB8ne180100ERKNS_21__tree_const_iteratorIiPNS_11__tree_nodeIiPvEElEES7_, symObjAddr: 0xE94, symBinAddr: 0x100010EE8, symSize: 0x30 }
  - { offset: 0x4ACC6, size: 0x8, addend: 0x0, symName: __ZNSt3__134__libcpp_atomic_refcount_incrementB8ne180100IlEET_RS1_, symObjAddr: 0x1150, symBinAddr: 0x1000111A4, symSize: 0x30 }
  - { offset: 0x4ACFB, size: 0x8, addend: 0x0, symName: __ZNSt3__134__libcpp_atomic_refcount_decrementB8ne180100IlEET_RS1_, symObjAddr: 0x12E4, symBinAddr: 0x100011338, symSize: 0x30 }
  - { offset: 0x4AD30, size: 0x8, addend: 0x0, symName: __ZNSt3__1eqB8ne180100INS_4__fs10filesystem12__dir_streamES3_EEbRKNS_10shared_ptrIT_EERKNS4_IT0_EE, symObjAddr: 0x13E4, symBinAddr: 0x100011438, symSize: 0x48 }
  - { offset: 0x4AD7F, size: 0x8, addend: 0x0, symName: __ZNSt3__115make_error_codeB8ne180100ENS_4errcE, symObjAddr: 0x16F4, symBinAddr: 0x100011748, symSize: 0x40 }
  - { offset: 0x4ADAC, size: 0x8, addend: 0x0, symName: __ZNSt3__120__libcpp_unreachableB8ne180100Ev, symObjAddr: 0x1768, symBinAddr: 0x1000117BC, symSize: 0x4 }
  - { offset: 0x4ADC6, size: 0x8, addend: 0x0, symName: __ZNSt3__112__destroy_atB8ne180100INS_11__hash_nodeINS_17__hash_value_typeIiNS_12basic_stringIcNS_11char_traitsIcEENS_9allocatorIcEEEEEEPvEELi0EEEvPT_, symObjAddr: 0x31E4, symBinAddr: 0x10001233C, symSize: 0x24 }
  - { offset: 0x4AE31, size: 0x8, addend: 0x0, symName: __ZNSt3__112__destroy_atB8ne180100INS_4pairIKiNS_12basic_stringIcNS_11char_traitsIcEENS_9allocatorIcEEEEEELi0EEEvPT_, symObjAddr: 0x3288, symBinAddr: 0x1000123E0, symSize: 0x24 }
  - { offset: 0x4AE68, size: 0x8, addend: 0x0, symName: __ZNSt3__17launderB8ne180100INS_4pairIKiNS_12basic_stringIcNS_11char_traitsIcEENS_9allocatorIcEEEEEEEEPT_SB_, symObjAddr: 0x32D0, symBinAddr: 0x100012428, symSize: 0x24 }
  - { offset: 0x4AE9F, size: 0x8, addend: 0x0, symName: __ZNSt3__19__launderB8ne180100INS_4pairIKiNS_12basic_stringIcNS_11char_traitsIcEENS_9allocatorIcEEEEEEEEPT_SB_, symObjAddr: 0x32F4, symBinAddr: 0x10001244C, symSize: 0x14 }
  - { offset: 0x4AED6, size: 0x8, addend: 0x0, symName: __ZNSt3__18distanceB8ne180100IPKcEENS_15iterator_traitsIT_E15difference_typeES4_S4_, symObjAddr: 0x3AEC, symBinAddr: 0x100012B1C, symSize: 0x2C }
  - { offset: 0x4AF19, size: 0x8, addend: 0x0, symName: __ZNSt3__110__distanceB8ne180100IPKcEENS_15iterator_traitsIT_E15difference_typeES4_S4_NS_26random_access_iterator_tagE, symObjAddr: 0x3D38, symBinAddr: 0x100012D44, symSize: 0x20 }
  - { offset: 0x4AF67, size: 0x8, addend: 0x0, symName: __ZNSt3__121__is_pointer_in_rangeB8ne180100IccLi0EEEbPKT_S3_PKT0_, symObjAddr: 0x3D58, symBinAddr: 0x100012D64, symSize: 0x68 }
  - { offset: 0x4B03F, size: 0x8, addend: 0x0, symName: __ZNSt3__119__allocate_at_leastB8ne180100INS_9allocatorIcEEEENS_19__allocation_resultINS_16allocator_traitsIT_E7pointerEEERS5_m, symObjAddr: 0x424C, symBinAddr: 0x1000130E4, symSize: 0x40 }
  - { offset: 0x4B082, size: 0x8, addend: 0x0, symName: __ZNSt3__1lsB8ne180100INS_11char_traitsIcEELPv0EEERNS_13basic_ostreamIcT_EES7_RKNS_21__quoted_output_proxyIcS2_EE, symObjAddr: 0x46B0, symBinAddr: 0x1000132D8, symSize: 0x48 }
  - { offset: 0x4B0CE, size: 0x8, addend: 0x0, symName: __ZNSt3__18__quotedB8ne180100IcNS_11char_traitsIcEENS_9allocatorIcEEEENS_21__quoted_output_proxyIT_T0_EERKNS_12basic_stringIS6_S7_T1_EES6_S6_, symObjAddr: 0x46F8, symBinAddr: 0x100013320, symSize: 0x68 }
  - { offset: 0x4B135, size: 0x8, addend: 0x0, symName: __ZNSt3__115__quoted_outputB8ne180100IcNS_11char_traitsIcEEEERNS_13basic_ostreamIT_T0_EES7_PKS4_S9_S4_S4_, symObjAddr: 0x4774, symBinAddr: 0x10001339C, symSize: 0x148 }
  - { offset: 0x4B233, size: 0x8, addend: 0x0, symName: __ZNSt3__116__constrain_hashB8ne180100Emm, symObjAddr: 0x4F64, symBinAddr: 0x100013B64, symSize: 0x98 }
  - { offset: 0x4B26D, size: 0x8, addend: 0x0, symName: __ZNSt3__116__is_hash_power2B8ne180100Em, symObjAddr: 0x529C, symBinAddr: 0x100013E70, symSize: 0x50 }
  - { offset: 0x4B29E, size: 0x8, addend: 0x0, symName: __ZNSt3__16__math4ceilB8ne180100Ef, symObjAddr: 0x52EC, symBinAddr: 0x100013EC0, symSize: 0x18 }
  - { offset: 0x4B30F, size: 0x8, addend: 0x0, symName: __ZNSt3__17launderB8ne180100IKNS_4pairIKiNS_12basic_stringIcNS_11char_traitsIcEENS_9allocatorIcEEEEEEEEPT_SC_, symObjAddr: 0x5630, symBinAddr: 0x100014204, symSize: 0x24 }
  - { offset: 0x4B346, size: 0x8, addend: 0x0, symName: __ZNSt3__19__launderB8ne180100IKNS_4pairIKiNS_12basic_stringIcNS_11char_traitsIcEENS_9allocatorIcEEEEEEEEPT_SC_, symObjAddr: 0x5654, symBinAddr: 0x100014228, symSize: 0x14 }
  - { offset: 0x4B39B, size: 0x8, addend: 0x0, symName: __ZNSt3__114__construct_atB8ne180100INS_11__hash_nodeINS_17__hash_value_typeIiNS_12basic_stringIcNS_11char_traitsIcEENS_9allocatorIcEEEEEEPvEEJDnRmEPSB_EEPT_SF_DpOT0_, symObjAddr: 0x5718, symBinAddr: 0x1000142EC, symSize: 0x40 }
  - { offset: 0x4B405, size: 0x8, addend: 0x0, symName: __ZNSt3__116__next_hash_pow2B8ne180100Em, symObjAddr: 0x6004, symBinAddr: 0x100014BD8, symSize: 0x6C }
  - { offset: 0x4B431, size: 0x8, addend: 0x0, symName: __ZNSt3__112__libcpp_clzB8ne180100Em, symObjAddr: 0x61C8, symBinAddr: 0x100014D9C, symSize: 0x1C }
  - { offset: 0x4B45D, size: 0x8, addend: 0x0, symName: __ZNSt3__1eqB8ne180100ERKNS_19__hash_map_iteratorINS_15__hash_iteratorIPNS_11__hash_nodeINS_17__hash_value_typeIiNS_12basic_stringIcNS_11char_traitsIcEENS_9allocatorIcEEEEEEPvEEEEEESH_, symObjAddr: 0x6528, symBinAddr: 0x100015074, symSize: 0x30 }
  - { offset: 0x4B49A, size: 0x8, addend: 0x0, symName: __ZNSt3__1eqB8ne180100ERKNS_15__hash_iteratorIPNS_11__hash_nodeINS_17__hash_value_typeIiNS_12basic_stringIcNS_11char_traitsIcEENS_9allocatorIcEEEEEEPvEEEESF_, symObjAddr: 0x67FC, symBinAddr: 0x1000152E4, symSize: 0x30 }
  - { offset: 0x4B53D, size: 0x8, addend: 0x0, symName: __ZNSt3__1neB8ne180100ERKNS_21__tree_const_iteratorIiPNS_11__tree_nodeIiPvEElEES7_, symObjAddr: 0x6AEC, symBinAddr: 0x10001555C, symSize: 0x34 }
  - { offset: 0x4D1B0, size: 0x8, addend: 0x0, symName: __ZN10Simulation7settingEv, symObjAddr: 0x0, symBinAddr: 0x100010154, symSize: 0xB8 }
  - { offset: 0x4D1E6, size: 0x8, addend: 0x0, symName: __ZN10Simulation19change_program_typeEv, symObjAddr: 0x100, symBinAddr: 0x10001020C, symSize: 0x1C0 }
  - { offset: 0x4D22B, size: 0x8, addend: 0x0, symName: __ZN10Simulation20choose_assembly_fileEv, symObjAddr: 0x2C0, symBinAddr: 0x1000103CC, symSize: 0x448 }
  - { offset: 0x4D2D0, size: 0x8, addend: 0x0, symName: __ZNSt3__112basic_stringIcNS_11char_traitsIcEENS_9allocatorIcEEEaSB8ne180100EPKc, symObjAddr: 0x734, symBinAddr: 0x100010814, symSize: 0x2C }
  - { offset: 0x4D47F, size: 0x8, addend: 0x0, symName: __ZNSt3__113unordered_mapIiNS_12basic_stringIcNS_11char_traitsIcEENS_9allocatorIcEEEENS_4hashIiEENS_8equal_toIiEENS4_INS_4pairIKiS6_EEEEEC1B8ne180100Ev, symObjAddr: 0x7EC, symBinAddr: 0x100010840, symSize: 0x2C }
  - { offset: 0x4D4BD, size: 0x8, addend: 0x0, symName: __ZNSt3__14__fs10filesystem4pathC1B8ne180100IA15_cvEERKT_NS2_6formatE, symObjAddr: 0x818, symBinAddr: 0x10001086C, symSize: 0x3C }
  - { offset: 0x4D509, size: 0x8, addend: 0x0, symName: __ZNSt3__14__fs10filesystem18directory_iteratorC1B8ne180100ERKNS1_4pathE, symObjAddr: 0x854, symBinAddr: 0x1000108A8, symSize: 0x3C }
  - { offset: 0x4D53F, size: 0x8, addend: 0x0, symName: __ZNSt3__14__fs10filesystem4pathD1B8ne180100Ev, symObjAddr: 0x890, symBinAddr: 0x1000108E4, symSize: 0x2C }
  - { offset: 0x4D567, size: 0x8, addend: 0x0, symName: __ZNSt3__14__fs10filesystem18directory_iteratorC1B8ne180100ERKS2_, symObjAddr: 0x8F4, symBinAddr: 0x100010948, symSize: 0x34 }
  - { offset: 0x4D59A, size: 0x8, addend: 0x0, symName: __ZNSt3__14__fs10filesystem18directory_iteratorD1B8ne180100Ev, symObjAddr: 0x928, symBinAddr: 0x10001097C, symSize: 0x2C }
  - { offset: 0x4D5C3, size: 0x8, addend: 0x0, symName: __ZNKSt3__14__fs10filesystem18directory_iteratordeB8ne180100Ev, symObjAddr: 0x9BC, symBinAddr: 0x100010A10, symSize: 0x24 }
  - { offset: 0x4D5E8, size: 0x8, addend: 0x0, symName: __ZNKSt3__14__fs10filesystem15directory_entry15is_regular_fileB8ne180100Ev, symObjAddr: 0x9E0, symBinAddr: 0x100010A34, symSize: 0x38 }
  - { offset: 0x4D60D, size: 0x8, addend: 0x0, symName: __ZNKSt3__14__fs10filesystem15directory_entry4pathB8ne180100Ev, symObjAddr: 0xA6C, symBinAddr: 0x100010AC0, symSize: 0x14 }
  - { offset: 0x4D632, size: 0x8, addend: 0x0, symName: __ZNKSt3__14__fs10filesystem4path8filenameB8ne180100Ev, symObjAddr: 0xA80, symBinAddr: 0x100010AD4, symSize: 0x60 }
  - { offset: 0x4D657, size: 0x8, addend: 0x0, symName: __ZNSt3__113unordered_mapIiNS_12basic_stringIcNS_11char_traitsIcEENS_9allocatorIcEEEENS_4hashIiEENS_8equal_toIiEENS4_INS_4pairIKiS6_EEEEE6insertB8ne180100EOSD_, symObjAddr: 0xAE0, symBinAddr: 0x100010B34, symSize: 0x4C }
  - { offset: 0x4D68A, size: 0x8, addend: 0x0, symName: __ZNSt3__14pairIKiNS_12basic_stringIcNS_11char_traitsIcEENS_9allocatorIcEEEEEC1B8ne180100IRiNS_4__fs10filesystem4pathELi0EEEOT_OT0_, symObjAddr: 0xB2C, symBinAddr: 0x100010B80, symSize: 0x3C }
  - { offset: 0x4D6E7, size: 0x8, addend: 0x0, symName: __ZNSt3__14pairIKiNS_12basic_stringIcNS_11char_traitsIcEENS_9allocatorIcEEEEED1Ev, symObjAddr: 0xB68, symBinAddr: 0x100010BBC, symSize: 0x2C }
  - { offset: 0x4D712, size: 0x8, addend: 0x0, symName: __ZNSt3__14__fs10filesystem18directory_iteratorppB8ne180100Ev, symObjAddr: 0xB94, symBinAddr: 0x100010BE8, symSize: 0x28 }
  - { offset: 0x4D737, size: 0x8, addend: 0x0, symName: __ZNSt3__113unordered_mapIiNS_12basic_stringIcNS_11char_traitsIcEENS_9allocatorIcEEEENS_4hashIiEENS_8equal_toIiEENS4_INS_4pairIKiS6_EEEEE2atERSC_, symObjAddr: 0xBBC, symBinAddr: 0x100010C10, symSize: 0x7C }
  - { offset: 0x4D77B, size: 0x8, addend: 0x0, symName: __ZNSt3__113unordered_mapIiNS_12basic_stringIcNS_11char_traitsIcEENS_9allocatorIcEEEENS_4hashIiEENS_8equal_toIiEENS4_INS_4pairIKiS6_EEEEED1B8ne180100Ev, symObjAddr: 0xC38, symBinAddr: 0x100010C8C, symSize: 0x2C }
  - { offset: 0x4D7A4, size: 0x8, addend: 0x0, symName: __ZN10Simulation7run_simEv, symObjAddr: 0xC64, symBinAddr: 0x100010CB8, symSize: 0x230 }
  - { offset: 0x4D7CB, size: 0x8, addend: 0x0, symName: __ZNKSt3__13setIiNS_4lessIiEENS_9allocatorIiEEE4findB8ne180100ERKi, symObjAddr: 0xEC4, symBinAddr: 0x100010F18, symSize: 0x34 }
  - { offset: 0x4D7FF, size: 0x8, addend: 0x0, symName: __ZNKSt3__13setIiNS_4lessIiEENS_9allocatorIiEEE3endB8ne180100Ev, symObjAddr: 0xEF8, symBinAddr: 0x100010F4C, symSize: 0x2C }
  - { offset: 0x4D823, size: 0x8, addend: 0x0, symName: __ZNSt3__14__fs10filesystem4pathD2B8ne180100Ev, symObjAddr: 0xF24, symBinAddr: 0x100010F78, symSize: 0x2C }
  - { offset: 0x4D84B, size: 0x8, addend: 0x0, symName: __ZNSt3__14__fs10filesystem18directory_iteratorC1B8ne180100EOS2_, symObjAddr: 0xF50, symBinAddr: 0x100010FA4, symSize: 0x34 }
  - { offset: 0x4D87E, size: 0x8, addend: 0x0, symName: __ZNSt3__14__fs10filesystem18directory_iteratorC2B8ne180100EOS2_, symObjAddr: 0xF84, symBinAddr: 0x100010FD8, symSize: 0x34 }
  - { offset: 0x4D8B1, size: 0x8, addend: 0x0, symName: __ZNSt3__110shared_ptrINS_4__fs10filesystem12__dir_streamEEC1B8ne180100EOS4_, symObjAddr: 0xFB8, symBinAddr: 0x10001100C, symSize: 0x34 }
  - { offset: 0x4D8E9, size: 0x8, addend: 0x0, symName: __ZNSt3__110shared_ptrINS_4__fs10filesystem12__dir_streamEEC2B8ne180100EOS4_, symObjAddr: 0xFEC, symBinAddr: 0x100011040, symSize: 0x40 }
  - { offset: 0x4D920, size: 0x8, addend: 0x0, symName: __ZNSt3__14__fs10filesystem18directory_iteratorC2B8ne180100ERKS2_, symObjAddr: 0x102C, symBinAddr: 0x100011080, symSize: 0x34 }
  - { offset: 0x4D953, size: 0x8, addend: 0x0, symName: __ZNSt3__110shared_ptrINS_4__fs10filesystem12__dir_streamEEC1B8ne180100ERKS4_, symObjAddr: 0x1060, symBinAddr: 0x1000110B4, symSize: 0x34 }
  - { offset: 0x4D98A, size: 0x8, addend: 0x0, symName: __ZNSt3__110shared_ptrINS_4__fs10filesystem12__dir_streamEEC2B8ne180100ERKS4_, symObjAddr: 0x1094, symBinAddr: 0x1000110E8, symSize: 0x70 }
  - { offset: 0x4D9C2, size: 0x8, addend: 0x0, symName: __ZNSt3__119__shared_weak_count12__add_sharedB8ne180100Ev, symObjAddr: 0x1104, symBinAddr: 0x100011158, symSize: 0x24 }
  - { offset: 0x4D9E7, size: 0x8, addend: 0x0, symName: __ZNSt3__114__shared_count12__add_sharedB8ne180100Ev, symObjAddr: 0x1128, symBinAddr: 0x10001117C, symSize: 0x28 }
  - { offset: 0x4DA0B, size: 0x8, addend: 0x0, symName: __ZNSt3__14__fs10filesystem18directory_iteratorD2B8ne180100Ev, symObjAddr: 0x1180, symBinAddr: 0x1000111D4, symSize: 0x2C }
  - { offset: 0x4DA33, size: 0x8, addend: 0x0, symName: __ZNSt3__110shared_ptrINS_4__fs10filesystem12__dir_streamEED1B8ne180100Ev, symObjAddr: 0x11AC, symBinAddr: 0x100011200, symSize: 0x2C }
  - { offset: 0x4DA5B, size: 0x8, addend: 0x0, symName: __ZNSt3__110shared_ptrINS_4__fs10filesystem12__dir_streamEED2B8ne180100Ev, symObjAddr: 0x11D8, symBinAddr: 0x10001122C, symSize: 0x54 }
  - { offset: 0x4DA84, size: 0x8, addend: 0x0, symName: __ZNSt3__119__shared_weak_count16__release_sharedB8ne180100Ev, symObjAddr: 0x122C, symBinAddr: 0x100011280, symSize: 0x3C }
  - { offset: 0x4DAA9, size: 0x8, addend: 0x0, symName: __ZNSt3__114__shared_count16__release_sharedB8ne180100Ev, symObjAddr: 0x1268, symBinAddr: 0x1000112BC, symSize: 0x7C }
  - { offset: 0x4DACD, size: 0x8, addend: 0x0, symName: __ZNSt3__14__fs10filesystem18directory_iteratorC1B8ne180100Ev, symObjAddr: 0x1314, symBinAddr: 0x100011368, symSize: 0x2C }
  - { offset: 0x4DAF5, size: 0x8, addend: 0x0, symName: __ZNSt3__14__fs10filesystem18directory_iteratorC2B8ne180100Ev, symObjAddr: 0x1340, symBinAddr: 0x100011394, symSize: 0x2C }
  - { offset: 0x4DB1D, size: 0x8, addend: 0x0, symName: __ZNSt3__110shared_ptrINS_4__fs10filesystem12__dir_streamEEC1B8ne180100Ev, symObjAddr: 0x136C, symBinAddr: 0x1000113C0, symSize: 0x2C }
  - { offset: 0x4DB46, size: 0x8, addend: 0x0, symName: __ZNSt3__110shared_ptrINS_4__fs10filesystem12__dir_streamEEC2B8ne180100Ev, symObjAddr: 0x1398, symBinAddr: 0x1000113EC, symSize: 0x1C }
  - { offset: 0x4DB6F, size: 0x8, addend: 0x0, symName: __ZNKSt3__110shared_ptrINS_4__fs10filesystem12__dir_streamEE3getB8ne180100Ev, symObjAddr: 0x142C, symBinAddr: 0x100011480, symSize: 0x18 }
  - { offset: 0x4DB94, size: 0x8, addend: 0x0, symName: __ZNKSt3__14__fs10filesystem15directory_entry8__get_ftB8ne180100EPNS_10error_codeE, symObjAddr: 0x1444, symBinAddr: 0x100011498, symSize: 0x1B8 }
  - { offset: 0x4DBE6, size: 0x8, addend: 0x0, symName: __ZNKSt3__14__fs10filesystem11file_status4typeB8ne180100Ev, symObjAddr: 0x15FC, symBinAddr: 0x100011650, symSize: 0x18 }
  - { offset: 0x4DC0A, size: 0x8, addend: 0x0, symName: __ZNSt3__14__fs10filesystem11file_statusD1B8ne180100Ev, symObjAddr: 0x1614, symBinAddr: 0x100011668, symSize: 0x2C }
  - { offset: 0x4DC32, size: 0x8, addend: 0x0, symName: __ZNSt3__14__fs10filesystem11file_statusC1B8ne180100ENS1_9file_typeENS1_5permsE, symObjAddr: 0x1640, symBinAddr: 0x100011694, symSize: 0x3C }
  - { offset: 0x4DC77, size: 0x8, addend: 0x0, symName: __ZNSt3__110error_code5clearB8ne180100Ev, symObjAddr: 0x1734, symBinAddr: 0x100011788, symSize: 0x34 }
  - { offset: 0x4DC9C, size: 0x8, addend: 0x0, symName: __ZNSt3__14__fs10filesystem11file_statusD2B8ne180100Ev, symObjAddr: 0x176C, symBinAddr: 0x1000117C0, symSize: 0x14 }
  - { offset: 0x4DCC5, size: 0x8, addend: 0x0, symName: __ZNSt3__14__fs10filesystem11file_statusC2B8ne180100ENS1_9file_typeENS1_5permsE, symObjAddr: 0x1780, symBinAddr: 0x1000117D4, symSize: 0x2C }
  - { offset: 0x4DD09, size: 0x8, addend: 0x0, symName: __ZNSt3__110error_codeC1B8ne180100EiRKNS_14error_categoryE, symObjAddr: 0x17DC, symBinAddr: 0x100011830, symSize: 0x3C }
  - { offset: 0x4DD4E, size: 0x8, addend: 0x0, symName: __ZNSt3__110error_codeC2B8ne180100EiRKNS_14error_categoryE, symObjAddr: 0x1818, symBinAddr: 0x10001186C, symSize: 0x2C }
  - { offset: 0x4DD97, size: 0x8, addend: 0x0, symName: __ZNSt3__112basic_stringIcNS_11char_traitsIcEENS_9allocatorIcEEEC1INS_17basic_string_viewIcS2_EELi0EEERKT_, symObjAddr: 0x1844, symBinAddr: 0x100011898, symSize: 0x34 }
  - { offset: 0x4DDDD, size: 0x8, addend: 0x0, symName: __ZNSt3__14__fs10filesystem4pathC1B8ne180100EONS_12basic_stringIcNS_11char_traitsIcEENS_9allocatorIcEEEENS2_6formatE, symObjAddr: 0x1878, symBinAddr: 0x1000118CC, symSize: 0x3C }
  - { offset: 0x4DE1F, size: 0x8, addend: 0x0, symName: __ZNSt3__112basic_stringIcNS_11char_traitsIcEENS_9allocatorIcEEEC2INS_17basic_string_viewIcS2_EELi0EEERKT_, symObjAddr: 0x18B4, symBinAddr: 0x100011908, symSize: 0x70 }
  - { offset: 0x4DE89, size: 0x8, addend: 0x0, symName: __ZNKSt3__117basic_string_viewIcNS_11char_traitsIcEEE4dataB8ne180100Ev, symObjAddr: 0x1960, symBinAddr: 0x100011978, symSize: 0x18 }
  - { offset: 0x4DEAE, size: 0x8, addend: 0x0, symName: __ZNKSt3__117basic_string_viewIcNS_11char_traitsIcEEE4sizeB8ne180100Ev, symObjAddr: 0x1978, symBinAddr: 0x100011990, symSize: 0x18 }
  - { offset: 0x4DED2, size: 0x8, addend: 0x0, symName: __ZNSt3__14__fs10filesystem4pathC2B8ne180100EONS_12basic_stringIcNS_11char_traitsIcEENS_9allocatorIcEEEENS2_6formatE, symObjAddr: 0x1A4C, symBinAddr: 0x1000119A8, symSize: 0x38 }
  - { offset: 0x4DF14, size: 0x8, addend: 0x0, symName: __ZNSt3__14pairIKiNS_12basic_stringIcNS_11char_traitsIcEENS_9allocatorIcEEEEEC2B8ne180100IRiNS_4__fs10filesystem4pathELi0EEEOT_OT0_, symObjAddr: 0x1D3C, symBinAddr: 0x1000119E0, symSize: 0x48 }
  - { offset: 0x4DF71, size: 0x8, addend: 0x0, symName: __ZNKSt3__14__fs10filesystem4pathcvNS_12basic_stringIcNS_11char_traitsIcEENS_9allocatorIcEEEEB8ne180100Ev, symObjAddr: 0x1D84, symBinAddr: 0x100011A28, symSize: 0x38 }
  - { offset: 0x4DF96, size: 0x8, addend: 0x0, symName: __ZNSt3__14pairIKiNS_12basic_stringIcNS_11char_traitsIcEENS_9allocatorIcEEEEED2Ev, symObjAddr: 0x1DBC, symBinAddr: 0x100011A60, symSize: 0x30 }
  - { offset: 0x4DFE3, size: 0x8, addend: 0x0, symName: __ZNSt3__113unordered_mapIiNS_12basic_stringIcNS_11char_traitsIcEENS_9allocatorIcEEEENS_4hashIiEENS_8equal_toIiEENS4_INS_4pairIKiS6_EEEEEC2B8ne180100Ev, symObjAddr: 0x2938, symBinAddr: 0x100011A90, symSize: 0x2C }
  - { offset: 0x4E00C, size: 0x8, addend: 0x0, symName: __ZNSt3__112__hash_tableINS_17__hash_value_typeIiNS_12basic_stringIcNS_11char_traitsIcEENS_9allocatorIcEEEEEENS_22__unordered_map_hasherIiS8_NS_4hashIiEENS_8equal_toIiEELb1EEENS_21__unordered_map_equalIiS8_SD_SB_Lb1EEENS5_IS8_EEEC1Ev, symObjAddr: 0x2964, symBinAddr: 0x100011ABC, symSize: 0x2C }
  - { offset: 0x4E037, size: 0x8, addend: 0x0, symName: __ZNSt3__112__hash_tableINS_17__hash_value_typeIiNS_12basic_stringIcNS_11char_traitsIcEENS_9allocatorIcEEEEEENS_22__unordered_map_hasherIiS8_NS_4hashIiEENS_8equal_toIiEELb1EEENS_21__unordered_map_equalIiS8_SD_SB_Lb1EEENS5_IS8_EEEC2Ev, symObjAddr: 0x2990, symBinAddr: 0x100011AE8, symSize: 0x7C }
  - { offset: 0x4E061, size: 0x8, addend: 0x0, symName: __ZNSt3__110unique_ptrIA_PNS_16__hash_node_baseIPNS_11__hash_nodeINS_17__hash_value_typeIiNS_12basic_stringIcNS_11char_traitsIcEENS_9allocatorIcEEEEEEPvEEEENS_25__bucket_list_deallocatorINS7_ISF_EEEEEC1B8ne180100ILb1EvEEv, symObjAddr: 0x2A0C, symBinAddr: 0x100011B64, symSize: 0x2C }
  - { offset: 0x4E094, size: 0x8, addend: 0x0, symName: __ZNSt3__117__compressed_pairINS_16__hash_node_baseIPNS_11__hash_nodeINS_17__hash_value_typeIiNS_12basic_stringIcNS_11char_traitsIcEENS_9allocatorIcEEEEEEPvEEEENS7_ISC_EEEC1B8ne180100ILb1EvEEv, symObjAddr: 0x2A38, symBinAddr: 0x100011B90, symSize: 0x2C }
  - { offset: 0x4E0CC, size: 0x8, addend: 0x0, symName: __ZNSt3__117__compressed_pairImNS_22__unordered_map_hasherIiNS_17__hash_value_typeIiNS_12basic_stringIcNS_11char_traitsIcEENS_9allocatorIcEEEEEENS_4hashIiEENS_8equal_toIiEELb1EEEEC1B8ne180100IiNS_18__default_init_tagEEEOT_OT0_, symObjAddr: 0x2A64, symBinAddr: 0x100011BBC, symSize: 0x3C }
  - { offset: 0x4E127, size: 0x8, addend: 0x0, symName: __ZNSt3__117__compressed_pairIfNS_21__unordered_map_equalIiNS_17__hash_value_typeIiNS_12basic_stringIcNS_11char_traitsIcEENS_9allocatorIcEEEEEENS_8equal_toIiEENS_4hashIiEELb1EEEEC1B8ne180100IfNS_18__default_init_tagEEEOT_OT0_, symObjAddr: 0x2AA0, symBinAddr: 0x100011BF8, symSize: 0x3C }
  - { offset: 0x4E17D, size: 0x8, addend: 0x0, symName: __ZNSt3__110unique_ptrIA_PNS_16__hash_node_baseIPNS_11__hash_nodeINS_17__hash_value_typeIiNS_12basic_stringIcNS_11char_traitsIcEENS_9allocatorIcEEEEEEPvEEEENS_25__bucket_list_deallocatorINS7_ISF_EEEEEC2B8ne180100ILb1EvEEv, symObjAddr: 0x2ADC, symBinAddr: 0x100011C34, symSize: 0x3C }
  - { offset: 0x4E1B0, size: 0x8, addend: 0x0, symName: __ZNSt3__117__compressed_pairIPPNS_16__hash_node_baseIPNS_11__hash_nodeINS_17__hash_value_typeIiNS_12basic_stringIcNS_11char_traitsIcEENS_9allocatorIcEEEEEEPvEEEENS_25__bucket_list_deallocatorINS7_ISF_EEEEEC1B8ne180100INS_16__value_init_tagESM_EEOT_OT0_, symObjAddr: 0x2B18, symBinAddr: 0x100011C70, symSize: 0x3C }
  - { offset: 0x4E206, size: 0x8, addend: 0x0, symName: __ZNSt3__117__compressed_pairIPPNS_16__hash_node_baseIPNS_11__hash_nodeINS_17__hash_value_typeIiNS_12basic_stringIcNS_11char_traitsIcEENS_9allocatorIcEEEEEEPvEEEENS_25__bucket_list_deallocatorINS7_ISF_EEEEEC2B8ne180100INS_16__value_init_tagESM_EEOT_OT0_, symObjAddr: 0x2B54, symBinAddr: 0x100011CAC, symSize: 0x40 }
  - { offset: 0x4E25D, size: 0x8, addend: 0x0, symName: __ZNSt3__122__compressed_pair_elemIPPNS_16__hash_node_baseIPNS_11__hash_nodeINS_17__hash_value_typeIiNS_12basic_stringIcNS_11char_traitsIcEENS_9allocatorIcEEEEEEPvEEEELi0ELb0EEC2B8ne180100ENS_16__value_init_tagE, symObjAddr: 0x2B94, symBinAddr: 0x100011CEC, symSize: 0x18 }
  - { offset: 0x4E290, size: 0x8, addend: 0x0, symName: __ZNSt3__122__compressed_pair_elemINS_25__bucket_list_deallocatorINS_9allocatorIPNS_16__hash_node_baseIPNS_11__hash_nodeINS_17__hash_value_typeIiNS_12basic_stringIcNS_11char_traitsIcEENS2_IcEEEEEEPvEEEEEEEELi1ELb0EEC2B8ne180100ENS_16__value_init_tagE, symObjAddr: 0x2BAC, symBinAddr: 0x100011D04, symSize: 0x2C }
  - { offset: 0x4E2C3, size: 0x8, addend: 0x0, symName: __ZNSt3__125__bucket_list_deallocatorINS_9allocatorIPNS_16__hash_node_baseIPNS_11__hash_nodeINS_17__hash_value_typeIiNS_12basic_stringIcNS_11char_traitsIcEENS1_IcEEEEEEPvEEEEEEEC1B8ne180100Ev, symObjAddr: 0x2BD8, symBinAddr: 0x100011D30, symSize: 0x2C }
  - { offset: 0x4E2EB, size: 0x8, addend: 0x0, symName: __ZNSt3__125__bucket_list_deallocatorINS_9allocatorIPNS_16__hash_node_baseIPNS_11__hash_nodeINS_17__hash_value_typeIiNS_12basic_stringIcNS_11char_traitsIcEENS1_IcEEEEEEPvEEEEEEEC2B8ne180100Ev, symObjAddr: 0x2C04, symBinAddr: 0x100011D5C, symSize: 0x40 }
  - { offset: 0x4E313, size: 0x8, addend: 0x0, symName: __ZNSt3__117__compressed_pairImNS_9allocatorIPNS_16__hash_node_baseIPNS_11__hash_nodeINS_17__hash_value_typeIiNS_12basic_stringIcNS_11char_traitsIcEENS1_IcEEEEEEPvEEEEEEEC1B8ne180100IiNS_18__default_init_tagEEEOT_OT0_, symObjAddr: 0x2C44, symBinAddr: 0x100011D9C, symSize: 0x3C }
  - { offset: 0x4E369, size: 0x8, addend: 0x0, symName: __ZNSt3__117__compressed_pairImNS_9allocatorIPNS_16__hash_node_baseIPNS_11__hash_nodeINS_17__hash_value_typeIiNS_12basic_stringIcNS_11char_traitsIcEENS1_IcEEEEEEPvEEEEEEEC2B8ne180100IiNS_18__default_init_tagEEEOT_OT0_, symObjAddr: 0x2C80, symBinAddr: 0x100011DD8, symSize: 0x40 }
  - { offset: 0x4E3C0, size: 0x8, addend: 0x0, symName: __ZNSt3__122__compressed_pair_elemImLi0ELb0EEC2B8ne180100IivEEOT_, symObjAddr: 0x2CC0, symBinAddr: 0x100011E18, symSize: 0x24 }
  - { offset: 0x4E400, size: 0x8, addend: 0x0, symName: __ZNSt3__122__compressed_pair_elemINS_9allocatorIPNS_16__hash_node_baseIPNS_11__hash_nodeINS_17__hash_value_typeIiNS_12basic_stringIcNS_11char_traitsIcEENS1_IcEEEEEEPvEEEEEELi1ELb1EEC2B8ne180100ENS_18__default_init_tagE, symObjAddr: 0x2CE4, symBinAddr: 0x100011E3C, symSize: 0x2C }
  - { offset: 0x4E433, size: 0x8, addend: 0x0, symName: __ZNSt3__19allocatorIPNS_16__hash_node_baseIPNS_11__hash_nodeINS_17__hash_value_typeIiNS_12basic_stringIcNS_11char_traitsIcEENS0_IcEEEEEEPvEEEEEC2B8ne180100Ev, symObjAddr: 0x2D10, symBinAddr: 0x100011E68, symSize: 0x2C }
  - { offset: 0x4E45C, size: 0x8, addend: 0x0, symName: __ZNSt3__116__non_trivial_ifILb1ENS_9allocatorIPNS_16__hash_node_baseIPNS_11__hash_nodeINS_17__hash_value_typeIiNS_12basic_stringIcNS_11char_traitsIcEENS1_IcEEEEEEPvEEEEEEEC2B8ne180100Ev, symObjAddr: 0x2D3C, symBinAddr: 0x100011E94, symSize: 0x14 }
  - { offset: 0x4E484, size: 0x8, addend: 0x0, symName: __ZNSt3__117__compressed_pairINS_16__hash_node_baseIPNS_11__hash_nodeINS_17__hash_value_typeIiNS_12basic_stringIcNS_11char_traitsIcEENS_9allocatorIcEEEEEEPvEEEENS7_ISC_EEEC2B8ne180100ILb1EvEEv, symObjAddr: 0x2D50, symBinAddr: 0x100011EA8, symSize: 0x34 }
  - { offset: 0x4E4B7, size: 0x8, addend: 0x0, symName: __ZNSt3__122__compressed_pair_elemINS_16__hash_node_baseIPNS_11__hash_nodeINS_17__hash_value_typeIiNS_12basic_stringIcNS_11char_traitsIcEENS_9allocatorIcEEEEEEPvEEEELi0ELb0EEC2B8ne180100ENS_16__value_init_tagE, symObjAddr: 0x2D84, symBinAddr: 0x100011EDC, symSize: 0x2C }
  - { offset: 0x4E4EA, size: 0x8, addend: 0x0, symName: __ZNSt3__122__compressed_pair_elemINS_9allocatorINS_11__hash_nodeINS_17__hash_value_typeIiNS_12basic_stringIcNS_11char_traitsIcEENS1_IcEEEEEEPvEEEELi1ELb1EEC2B8ne180100ENS_16__value_init_tagE, symObjAddr: 0x2DB0, symBinAddr: 0x100011F08, symSize: 0x2C }
  - { offset: 0x4E51D, size: 0x8, addend: 0x0, symName: __ZNSt3__116__hash_node_baseIPNS_11__hash_nodeINS_17__hash_value_typeIiNS_12basic_stringIcNS_11char_traitsIcEENS_9allocatorIcEEEEEEPvEEEC1B8ne180100Ev, symObjAddr: 0x2DDC, symBinAddr: 0x100011F34, symSize: 0x2C }
  - { offset: 0x4E546, size: 0x8, addend: 0x0, symName: __ZNSt3__116__hash_node_baseIPNS_11__hash_nodeINS_17__hash_value_typeIiNS_12basic_stringIcNS_11char_traitsIcEENS_9allocatorIcEEEEEEPvEEEC2B8ne180100Ev, symObjAddr: 0x2E08, symBinAddr: 0x100011F60, symSize: 0x18 }
  - { offset: 0x4E56E, size: 0x8, addend: 0x0, symName: __ZNSt3__19allocatorINS_11__hash_nodeINS_17__hash_value_typeIiNS_12basic_stringIcNS_11char_traitsIcEENS0_IcEEEEEEPvEEEC2B8ne180100Ev, symObjAddr: 0x2E20, symBinAddr: 0x100011F78, symSize: 0x2C }
  - { offset: 0x4E597, size: 0x8, addend: 0x0, symName: __ZNSt3__116__non_trivial_ifILb1ENS_9allocatorINS_11__hash_nodeINS_17__hash_value_typeIiNS_12basic_stringIcNS_11char_traitsIcEENS1_IcEEEEEEPvEEEEEC2B8ne180100Ev, symObjAddr: 0x2E4C, symBinAddr: 0x100011FA4, symSize: 0x14 }
  - { offset: 0x4E5BF, size: 0x8, addend: 0x0, symName: __ZNSt3__117__compressed_pairImNS_22__unordered_map_hasherIiNS_17__hash_value_typeIiNS_12basic_stringIcNS_11char_traitsIcEENS_9allocatorIcEEEEEENS_4hashIiEENS_8equal_toIiEELb1EEEEC2B8ne180100IiNS_18__default_init_tagEEEOT_OT0_, symObjAddr: 0x2E60, symBinAddr: 0x100011FB8, symSize: 0x40 }
  - { offset: 0x4E615, size: 0x8, addend: 0x0, symName: __ZNSt3__122__compressed_pair_elemINS_22__unordered_map_hasherIiNS_17__hash_value_typeIiNS_12basic_stringIcNS_11char_traitsIcEENS_9allocatorIcEEEEEENS_4hashIiEENS_8equal_toIiEELb1EEELi1ELb1EEC2B8ne180100ENS_18__default_init_tagE, symObjAddr: 0x2EA0, symBinAddr: 0x100011FF8, symSize: 0x2C }
  - { offset: 0x4E649, size: 0x8, addend: 0x0, symName: __ZNSt3__122__unordered_map_hasherIiNS_17__hash_value_typeIiNS_12basic_stringIcNS_11char_traitsIcEENS_9allocatorIcEEEEEENS_4hashIiEENS_8equal_toIiEELb1EEC2B8ne180100Ev, symObjAddr: 0x2ECC, symBinAddr: 0x100012024, symSize: 0x14 }
  - { offset: 0x4E671, size: 0x8, addend: 0x0, symName: __ZNSt3__117__compressed_pairIfNS_21__unordered_map_equalIiNS_17__hash_value_typeIiNS_12basic_stringIcNS_11char_traitsIcEENS_9allocatorIcEEEEEENS_8equal_toIiEENS_4hashIiEELb1EEEEC2B8ne180100IfNS_18__default_init_tagEEEOT_OT0_, symObjAddr: 0x2EE0, symBinAddr: 0x100012038, symSize: 0x40 }
  - { offset: 0x4E6C8, size: 0x8, addend: 0x0, symName: __ZNSt3__122__compressed_pair_elemIfLi0ELb0EEC2B8ne180100IfvEEOT_, symObjAddr: 0x2F20, symBinAddr: 0x100012078, symSize: 0x24 }
  - { offset: 0x4E708, size: 0x8, addend: 0x0, symName: __ZNSt3__122__compressed_pair_elemINS_21__unordered_map_equalIiNS_17__hash_value_typeIiNS_12basic_stringIcNS_11char_traitsIcEENS_9allocatorIcEEEEEENS_8equal_toIiEENS_4hashIiEELb1EEELi1ELb1EEC2B8ne180100ENS_18__default_init_tagE, symObjAddr: 0x2F44, symBinAddr: 0x10001209C, symSize: 0x2C }
  - { offset: 0x4E73C, size: 0x8, addend: 0x0, symName: __ZNSt3__121__unordered_map_equalIiNS_17__hash_value_typeIiNS_12basic_stringIcNS_11char_traitsIcEENS_9allocatorIcEEEEEENS_8equal_toIiEENS_4hashIiEELb1EEC2B8ne180100Ev, symObjAddr: 0x2F70, symBinAddr: 0x1000120C8, symSize: 0x14 }
  - { offset: 0x4E764, size: 0x8, addend: 0x0, symName: __ZNSt3__113unordered_mapIiNS_12basic_stringIcNS_11char_traitsIcEENS_9allocatorIcEEEENS_4hashIiEENS_8equal_toIiEENS4_INS_4pairIKiS6_EEEEED2B8ne180100Ev, symObjAddr: 0x2F84, symBinAddr: 0x1000120DC, symSize: 0x2C }
  - { offset: 0x4E78D, size: 0x8, addend: 0x0, symName: __ZNSt3__112__hash_tableINS_17__hash_value_typeIiNS_12basic_stringIcNS_11char_traitsIcEENS_9allocatorIcEEEEEENS_22__unordered_map_hasherIiS8_NS_4hashIiEENS_8equal_toIiEELb1EEENS_21__unordered_map_equalIiS8_SD_SB_Lb1EEENS5_IS8_EEED1Ev, symObjAddr: 0x2FB0, symBinAddr: 0x100012108, symSize: 0x2C }
  - { offset: 0x4E7B8, size: 0x8, addend: 0x0, symName: __ZNSt3__112__hash_tableINS_17__hash_value_typeIiNS_12basic_stringIcNS_11char_traitsIcEENS_9allocatorIcEEEEEENS_22__unordered_map_hasherIiS8_NS_4hashIiEENS_8equal_toIiEELb1EEENS_21__unordered_map_equalIiS8_SD_SB_Lb1EEENS5_IS8_EEED2Ev, symObjAddr: 0x2FDC, symBinAddr: 0x100012134, symSize: 0x48 }
  - { offset: 0x4E7E3, size: 0x8, addend: 0x0, symName: __ZNSt3__112__hash_tableINS_17__hash_value_typeIiNS_12basic_stringIcNS_11char_traitsIcEENS_9allocatorIcEEEEEENS_22__unordered_map_hasherIiS8_NS_4hashIiEENS_8equal_toIiEELb1EEENS_21__unordered_map_equalIiS8_SD_SB_Lb1EEENS5_IS8_EEE17__deallocate_nodeEPNS_16__hash_node_baseIPNS_11__hash_nodeIS8_PvEEEE, symObjAddr: 0x3024, symBinAddr: 0x10001217C, symSize: 0xC0 }
  - { offset: 0x4E84C, size: 0x8, addend: 0x0, symName: __ZNSt3__117__compressed_pairINS_16__hash_node_baseIPNS_11__hash_nodeINS_17__hash_value_typeIiNS_12basic_stringIcNS_11char_traitsIcEENS_9allocatorIcEEEEEEPvEEEENS7_ISC_EEE5firstB8ne180100Ev, symObjAddr: 0x30E4, symBinAddr: 0x10001223C, symSize: 0x24 }
  - { offset: 0x4E870, size: 0x8, addend: 0x0, symName: __ZNSt3__110unique_ptrIA_PNS_16__hash_node_baseIPNS_11__hash_nodeINS_17__hash_value_typeIiNS_12basic_stringIcNS_11char_traitsIcEENS_9allocatorIcEEEEEEPvEEEENS_25__bucket_list_deallocatorINS7_ISF_EEEEED1B8ne180100Ev, symObjAddr: 0x3108, symBinAddr: 0x100012260, symSize: 0x2C }
  - { offset: 0x4E899, size: 0x8, addend: 0x0, symName: __ZNSt3__112__hash_tableINS_17__hash_value_typeIiNS_12basic_stringIcNS_11char_traitsIcEENS_9allocatorIcEEEEEENS_22__unordered_map_hasherIiS8_NS_4hashIiEENS_8equal_toIiEELb1EEENS_21__unordered_map_equalIiS8_SD_SB_Lb1EEENS5_IS8_EEE12__node_allocB8ne180100Ev, symObjAddr: 0x3134, symBinAddr: 0x10001228C, symSize: 0x28 }
  - { offset: 0x4E8BE, size: 0x8, addend: 0x0, symName: __ZNSt3__116__hash_node_baseIPNS_11__hash_nodeINS_17__hash_value_typeIiNS_12basic_stringIcNS_11char_traitsIcEENS_9allocatorIcEEEEEEPvEEE8__upcastB8ne180100Ev, symObjAddr: 0x315C, symBinAddr: 0x1000122B4, symSize: 0x24 }
  - { offset: 0x4E8E2, size: 0x8, addend: 0x0, symName: __ZNSt3__116allocator_traitsINS_9allocatorINS_11__hash_nodeINS_17__hash_value_typeIiNS_12basic_stringIcNS_11char_traitsIcEENS1_IcEEEEEEPvEEEEE7destroyB8ne180100INS_4pairIKiS8_EEvvEEvRSC_PT_, symObjAddr: 0x3180, symBinAddr: 0x1000122D8, symSize: 0x28 }
  - { offset: 0x4E91B, size: 0x8, addend: 0x0, symName: __ZNSt3__122__hash_key_value_typesINS_17__hash_value_typeIiNS_12basic_stringIcNS_11char_traitsIcEENS_9allocatorIcEEEEEEE9__get_ptrB8ne180100ERS8_, symObjAddr: 0x31A8, symBinAddr: 0x100012300, symSize: 0x24 }
  - { offset: 0x4E93E, size: 0x8, addend: 0x0, symName: __ZNSt3__111__hash_nodeINS_17__hash_value_typeIiNS_12basic_stringIcNS_11char_traitsIcEENS_9allocatorIcEEEEEEPvE11__get_valueB8ne180100Ev, symObjAddr: 0x31CC, symBinAddr: 0x100012324, symSize: 0x18 }
  - { offset: 0x4E962, size: 0x8, addend: 0x0, symName: __ZNSt3__116allocator_traitsINS_9allocatorINS_11__hash_nodeINS_17__hash_value_typeIiNS_12basic_stringIcNS_11char_traitsIcEENS1_IcEEEEEEPvEEEEE10deallocateB8ne180100ERSC_PSB_m, symObjAddr: 0x3208, symBinAddr: 0x100012360, symSize: 0x34 }
  - { offset: 0x4E9A4, size: 0x8, addend: 0x0, symName: __ZNSt3__117__compressed_pairINS_16__hash_node_baseIPNS_11__hash_nodeINS_17__hash_value_typeIiNS_12basic_stringIcNS_11char_traitsIcEENS_9allocatorIcEEEEEEPvEEEENS7_ISC_EEE6secondB8ne180100Ev, symObjAddr: 0x323C, symBinAddr: 0x100012394, symSize: 0x24 }
  - { offset: 0x4E9C9, size: 0x8, addend: 0x0, symName: __ZNSt3__122__compressed_pair_elemINS_9allocatorINS_11__hash_nodeINS_17__hash_value_typeIiNS_12basic_stringIcNS_11char_traitsIcEENS1_IcEEEEEEPvEEEELi1ELb1EE5__getB8ne180100Ev, symObjAddr: 0x3260, symBinAddr: 0x1000123B8, symSize: 0x14 }
  - { offset: 0x4E9EE, size: 0x8, addend: 0x0, symName: __ZNSt3__114pointer_traitsIPNS_16__hash_node_baseIPNS_11__hash_nodeINS_17__hash_value_typeIiNS_12basic_stringIcNS_11char_traitsIcEENS_9allocatorIcEEEEEEPvEEEEE10pointer_toB8ne180100ERSE_, symObjAddr: 0x3274, symBinAddr: 0x1000123CC, symSize: 0x14 }
  - { offset: 0x4EA11, size: 0x8, addend: 0x0, symName: __ZNSt3__117__hash_value_typeIiNS_12basic_stringIcNS_11char_traitsIcEENS_9allocatorIcEEEEE11__get_valueB8ne180100Ev, symObjAddr: 0x32AC, symBinAddr: 0x100012404, symSize: 0x24 }
  - { offset: 0x4EA35, size: 0x8, addend: 0x0, symName: __ZNSt3__111__hash_nodeINS_17__hash_value_typeIiNS_12basic_stringIcNS_11char_traitsIcEENS_9allocatorIcEEEEEEPvED1B8ne180100Ev, symObjAddr: 0x3308, symBinAddr: 0x100012460, symSize: 0x2C }
  - { offset: 0x4EA5E, size: 0x8, addend: 0x0, symName: __ZNSt3__111__hash_nodeINS_17__hash_value_typeIiNS_12basic_stringIcNS_11char_traitsIcEENS_9allocatorIcEEEEEEPvED2B8ne180100Ev, symObjAddr: 0x3334, symBinAddr: 0x10001248C, symSize: 0x14 }
  - { offset: 0x4EA87, size: 0x8, addend: 0x0, symName: __ZNSt3__19allocatorINS_11__hash_nodeINS_17__hash_value_typeIiNS_12basic_stringIcNS_11char_traitsIcEENS0_IcEEEEEEPvEEE10deallocateB8ne180100EPSA_m, symObjAddr: 0x3348, symBinAddr: 0x1000124A0, symSize: 0x44 }
  - { offset: 0x4EAC8, size: 0x8, addend: 0x0, symName: __ZNSt3__122__compressed_pair_elemINS_16__hash_node_baseIPNS_11__hash_nodeINS_17__hash_value_typeIiNS_12basic_stringIcNS_11char_traitsIcEENS_9allocatorIcEEEEEEPvEEEELi0ELb0EE5__getB8ne180100Ev, symObjAddr: 0x34B4, symBinAddr: 0x1000124E4, symSize: 0x14 }
  - { offset: 0x4EAEC, size: 0x8, addend: 0x0, symName: __ZNSt3__110unique_ptrIA_PNS_16__hash_node_baseIPNS_11__hash_nodeINS_17__hash_value_typeIiNS_12basic_stringIcNS_11char_traitsIcEENS_9allocatorIcEEEEEEPvEEEENS_25__bucket_list_deallocatorINS7_ISF_EEEEED2B8ne180100Ev, symObjAddr: 0x34C8, symBinAddr: 0x1000124F8, symSize: 0x30 }
  - { offset: 0x4EB15, size: 0x8, addend: 0x0, symName: __ZNSt3__110unique_ptrIA_PNS_16__hash_node_baseIPNS_11__hash_nodeINS_17__hash_value_typeIiNS_12basic_stringIcNS_11char_traitsIcEENS_9allocatorIcEEEEEEPvEEEENS_25__bucket_list_deallocatorINS7_ISF_EEEEE5resetB8ne180100EDn, symObjAddr: 0x34F8, symBinAddr: 0x100012528, symSize: 0x6C }
  - { offset: 0x4EB54, size: 0x8, addend: 0x0, symName: __ZNSt3__117__compressed_pairIPPNS_16__hash_node_baseIPNS_11__hash_nodeINS_17__hash_value_typeIiNS_12basic_stringIcNS_11char_traitsIcEENS_9allocatorIcEEEEEEPvEEEENS_25__bucket_list_deallocatorINS7_ISF_EEEEE5firstB8ne180100Ev, symObjAddr: 0x3564, symBinAddr: 0x100012594, symSize: 0x24 }
  - { offset: 0x4EB79, size: 0x8, addend: 0x0, symName: __ZNSt3__117__compressed_pairIPPNS_16__hash_node_baseIPNS_11__hash_nodeINS_17__hash_value_typeIiNS_12basic_stringIcNS_11char_traitsIcEENS_9allocatorIcEEEEEEPvEEEENS_25__bucket_list_deallocatorINS7_ISF_EEEEE6secondB8ne180100Ev, symObjAddr: 0x3588, symBinAddr: 0x1000125B8, symSize: 0x28 }
  - { offset: 0x4EB9E, size: 0x8, addend: 0x0, symName: __ZNSt3__125__bucket_list_deallocatorINS_9allocatorIPNS_16__hash_node_baseIPNS_11__hash_nodeINS_17__hash_value_typeIiNS_12basic_stringIcNS_11char_traitsIcEENS1_IcEEEEEEPvEEEEEEEclB8ne180100EPSF_, symObjAddr: 0x35B0, symBinAddr: 0x1000125E0, symSize: 0x58 }
  - { offset: 0x4EBD2, size: 0x8, addend: 0x0, symName: __ZNSt3__122__compressed_pair_elemIPPNS_16__hash_node_baseIPNS_11__hash_nodeINS_17__hash_value_typeIiNS_12basic_stringIcNS_11char_traitsIcEENS_9allocatorIcEEEEEEPvEEEELi0ELb0EE5__getB8ne180100Ev, symObjAddr: 0x3608, symBinAddr: 0x100012638, symSize: 0x14 }
  - { offset: 0x4EBF7, size: 0x8, addend: 0x0, symName: __ZNSt3__122__compressed_pair_elemINS_25__bucket_list_deallocatorINS_9allocatorIPNS_16__hash_node_baseIPNS_11__hash_nodeINS_17__hash_value_typeIiNS_12basic_stringIcNS_11char_traitsIcEENS2_IcEEEEEEPvEEEEEEEELi1ELb0EE5__getB8ne180100Ev, symObjAddr: 0x361C, symBinAddr: 0x10001264C, symSize: 0x14 }
  - { offset: 0x4EC1B, size: 0x8, addend: 0x0, symName: __ZNSt3__116allocator_traitsINS_9allocatorIPNS_16__hash_node_baseIPNS_11__hash_nodeINS_17__hash_value_typeIiNS_12basic_stringIcNS_11char_traitsIcEENS1_IcEEEEEEPvEEEEEEE10deallocateB8ne180100ERSG_PSF_m, symObjAddr: 0x3630, symBinAddr: 0x100012660, symSize: 0x34 }
  - { offset: 0x4EC5D, size: 0x8, addend: 0x0, symName: __ZNSt3__125__bucket_list_deallocatorINS_9allocatorIPNS_16__hash_node_baseIPNS_11__hash_nodeINS_17__hash_value_typeIiNS_12basic_stringIcNS_11char_traitsIcEENS1_IcEEEEEEPvEEEEEEE7__allocB8ne180100Ev, symObjAddr: 0x3664, symBinAddr: 0x100012694, symSize: 0x24 }
  - { offset: 0x4EC82, size: 0x8, addend: 0x0, symName: __ZNSt3__125__bucket_list_deallocatorINS_9allocatorIPNS_16__hash_node_baseIPNS_11__hash_nodeINS_17__hash_value_typeIiNS_12basic_stringIcNS_11char_traitsIcEENS1_IcEEEEEEPvEEEEEEE4sizeB8ne180100Ev, symObjAddr: 0x3688, symBinAddr: 0x1000126B8, symSize: 0x24 }
  - { offset: 0x4ECA7, size: 0x8, addend: 0x0, symName: __ZNSt3__19allocatorIPNS_16__hash_node_baseIPNS_11__hash_nodeINS_17__hash_value_typeIiNS_12basic_stringIcNS_11char_traitsIcEENS0_IcEEEEEEPvEEEEE10deallocateB8ne180100EPSE_m, symObjAddr: 0x36AC, symBinAddr: 0x1000126DC, symSize: 0x40 }
  - { offset: 0x4ECE8, size: 0x8, addend: 0x0, symName: __ZNSt3__117__compressed_pairImNS_9allocatorIPNS_16__hash_node_baseIPNS_11__hash_nodeINS_17__hash_value_typeIiNS_12basic_stringIcNS_11char_traitsIcEENS1_IcEEEEEEPvEEEEEEE6secondB8ne180100Ev, symObjAddr: 0x36EC, symBinAddr: 0x10001271C, symSize: 0x24 }
  - { offset: 0x4ED0D, size: 0x8, addend: 0x0, symName: __ZNSt3__122__compressed_pair_elemINS_9allocatorIPNS_16__hash_node_baseIPNS_11__hash_nodeINS_17__hash_value_typeIiNS_12basic_stringIcNS_11char_traitsIcEENS1_IcEEEEEEPvEEEEEELi1ELb1EE5__getB8ne180100Ev, symObjAddr: 0x3710, symBinAddr: 0x100012740, symSize: 0x14 }
  - { offset: 0x4ED32, size: 0x8, addend: 0x0, symName: __ZNSt3__117__compressed_pairImNS_9allocatorIPNS_16__hash_node_baseIPNS_11__hash_nodeINS_17__hash_value_typeIiNS_12basic_stringIcNS_11char_traitsIcEENS1_IcEEEEEEPvEEEEEEE5firstB8ne180100Ev, symObjAddr: 0x3724, symBinAddr: 0x100012754, symSize: 0x24 }
  - { offset: 0x4ED57, size: 0x8, addend: 0x0, symName: __ZNSt3__122__compressed_pair_elemImLi0ELb0EE5__getB8ne180100Ev, symObjAddr: 0x3748, symBinAddr: 0x100012778, symSize: 0x14 }
  - { offset: 0x4ED7B, size: 0x8, addend: 0x0, symName: __ZNSt3__14__fs10filesystem4pathC2B8ne180100IA15_cvEERKT_NS2_6formatE, symObjAddr: 0x375C, symBinAddr: 0x10001278C, symSize: 0x68 }
  - { offset: 0x4EDCC, size: 0x8, addend: 0x0, symName: __ZNSt3__14__fs10filesystem8_PathCVTIcE15__append_sourceB8ne180100IA15_cEEvRNS_12basic_stringIcNS_11char_traitsIcEENS_9allocatorIcEEEERKT_, symObjAddr: 0x37C4, symBinAddr: 0x1000127F4, symSize: 0x4C }
  - { offset: 0x4EE07, size: 0x8, addend: 0x0, symName: __ZNSt3__14__fs10filesystem8_PathCVTIcE14__append_rangeB8ne180100IPKcLi0EEEvRNS_12basic_stringIcNS_11char_traitsIcEENS_9allocatorIcEEEET_SE_, symObjAddr: 0x3810, symBinAddr: 0x100012840, symSize: 0x34 }
  - { offset: 0x4EE58, size: 0x8, addend: 0x0, symName: __ZNSt3__14__fs10filesystem24__is_pathable_char_arrayIA15_cPccLb1EE13__range_beginB8ne180100EPKc, symObjAddr: 0x3844, symBinAddr: 0x100012874, symSize: 0x14 }
  - { offset: 0x4EE7B, size: 0x8, addend: 0x0, symName: __ZNSt3__14__fs10filesystem24__is_pathable_char_arrayIA15_cPccLb1EE11__range_endB8ne180100EPKc, symObjAddr: 0x3858, symBinAddr: 0x100012888, symSize: 0x50 }
  - { offset: 0x4EEC7, size: 0x8, addend: 0x0, symName: __ZNSt3__112basic_stringIcNS_11char_traitsIcEENS_9allocatorIcEEE6appendB8ne180100IPKcLi0EEERS5_T_SA_, symObjAddr: 0x38A8, symBinAddr: 0x1000128D8, symSize: 0x1F0 }
  - { offset: 0x4EF7B, size: 0x8, addend: 0x0, symName: __ZNKSt3__112basic_stringIcNS_11char_traitsIcEENS_9allocatorIcEEE8capacityB8ne180100Ev, symObjAddr: 0x3A98, symBinAddr: 0x100012AC8, symSize: 0x54 }
  - { offset: 0x4EFA0, size: 0x8, addend: 0x0, symName: __ZNKSt3__112basic_stringIcNS_11char_traitsIcEENS_9allocatorIcEEE15__addr_in_rangeB8ne180100IcEEbRKT_, symObjAddr: 0x3B18, symBinAddr: 0x100012B48, symSize: 0x6C }
  - { offset: 0x4EFDD, size: 0x8, addend: 0x0, symName: __ZNSt3__112basic_stringIcNS_11char_traitsIcEENS_9allocatorIcEEE25__grow_by_without_replaceB8ne180100Emmmmmm, symObjAddr: 0x3B84, symBinAddr: 0x100012BB4, symSize: 0x90 }
  - { offset: 0x4F05E, size: 0x8, addend: 0x0, symName: __ZNKSt3__112basic_stringIcNS_11char_traitsIcEENS_9allocatorIcEEE19__annotate_increaseB8ne180100Em, symObjAddr: 0x3C14, symBinAddr: 0x100012C44, symSize: 0x14 }
  - { offset: 0x4F092, size: 0x8, addend: 0x0, symName: __ZNSt3__112basic_stringIcNS_11char_traitsIcEENS_9allocatorIcEEE10__set_sizeB8ne180100Em, symObjAddr: 0x3C4C, symBinAddr: 0x100012C58, symSize: 0x54 }
  - { offset: 0x4F0C6, size: 0x8, addend: 0x0, symName: __ZNSt3__112basic_stringIcNS_11char_traitsIcEENS_9allocatorIcEEE7__allocB8ne180100Ev, symObjAddr: 0x3CA0, symBinAddr: 0x100012CAC, symSize: 0x24 }
  - { offset: 0x4F0EA, size: 0x8, addend: 0x0, symName: __ZNSt3__112basic_stringIcNS_11char_traitsIcEENS_9allocatorIcEEEC1B8ne180100IPKcLi0EEET_S9_RKS4_, symObjAddr: 0x3CC4, symBinAddr: 0x100012CD0, symSize: 0x44 }
  - { offset: 0x4F14F, size: 0x8, addend: 0x0, symName: __ZNKSt3__112basic_stringIcNS_11char_traitsIcEENS_9allocatorIcEEE14__get_long_capB8ne180100Ev, symObjAddr: 0x3D08, symBinAddr: 0x100012D14, symSize: 0x30 }
  - { offset: 0x4F188, size: 0x8, addend: 0x0, symName: __ZNKSt3__16__lessIvvEclB8ne180100IPKcS4_EEbRKT_RKT0_, symObjAddr: 0x3DC0, symBinAddr: 0x100012DCC, symSize: 0x34 }
  - { offset: 0x4F1DB, size: 0x8, addend: 0x0, symName: __ZNSt3__117__compressed_pairINS_12basic_stringIcNS_11char_traitsIcEENS_9allocatorIcEEE5__repES5_E6secondB8ne180100Ev, symObjAddr: 0x3EA4, symBinAddr: 0x100012E00, symSize: 0x24 }
  - { offset: 0x4F200, size: 0x8, addend: 0x0, symName: __ZNSt3__122__compressed_pair_elemINS_9allocatorIcEELi1ELb1EE5__getB8ne180100Ev, symObjAddr: 0x3EC8, symBinAddr: 0x100012E24, symSize: 0x14 }
  - { offset: 0x4F224, size: 0x8, addend: 0x0, symName: __ZNSt3__112basic_stringIcNS_11char_traitsIcEENS_9allocatorIcEEEC2B8ne180100IPKcLi0EEET_S9_RKS4_, symObjAddr: 0x3EDC, symBinAddr: 0x100012E38, symSize: 0x50 }
  - { offset: 0x4F288, size: 0x8, addend: 0x0, symName: __ZNSt3__117__compressed_pairINS_12basic_stringIcNS_11char_traitsIcEENS_9allocatorIcEEE5__repES5_EC1B8ne180100INS_18__default_init_tagERKS5_EEOT_OT0_, symObjAddr: 0x3F2C, symBinAddr: 0x100012E88, symSize: 0x3C }
  - { offset: 0x4F2DF, size: 0x8, addend: 0x0, symName: __ZNSt3__112basic_stringIcNS_11char_traitsIcEENS_9allocatorIcEEE6__initIPKcLi0EEEvT_S9_, symObjAddr: 0x3F68, symBinAddr: 0x100012EC4, symSize: 0x54 }
  - { offset: 0x4F341, size: 0x8, addend: 0x0, symName: __ZNSt3__117__compressed_pairINS_12basic_stringIcNS_11char_traitsIcEENS_9allocatorIcEEE5__repES5_EC2B8ne180100INS_18__default_init_tagERKS5_EEOT_OT0_, symObjAddr: 0x3FBC, symBinAddr: 0x100012F18, symSize: 0x40 }
  - { offset: 0x4F398, size: 0x8, addend: 0x0, symName: __ZNSt3__112basic_stringIcNS_11char_traitsIcEENS_9allocatorIcEEE16__init_with_sizeB8ne180100IPKcS8_EEvT_T0_m, symObjAddr: 0x4014, symBinAddr: 0x100012F58, symSize: 0x150 }
  - { offset: 0x4F42B, size: 0x8, addend: 0x0, symName: __ZNKSt3__112basic_stringIcNS_11char_traitsIcEENS_9allocatorIcEEE20__throw_length_errorB8ne180100Ev, symObjAddr: 0x4210, symBinAddr: 0x1000130A8, symSize: 0x1C }
  - { offset: 0x4F450, size: 0x8, addend: 0x0, symName: __ZNSt3__112basic_stringIcNS_11char_traitsIcEENS_9allocatorIcEEE13__fits_in_ssoB8ne180100Em, symObjAddr: 0x422C, symBinAddr: 0x1000130C4, symSize: 0x20 }
  - { offset: 0x4F473, size: 0x8, addend: 0x0, symName: __ZNSt3__112basic_stringIcNS_11char_traitsIcEENS_9allocatorIcEEE11__recommendB8ne180100Em, symObjAddr: 0x428C, symBinAddr: 0x100013124, symSize: 0x84 }
  - { offset: 0x4F4A6, size: 0x8, addend: 0x0, symName: __ZNSt3__112basic_stringIcNS_11char_traitsIcEENS_9allocatorIcEEE16__begin_lifetimeB8ne180100EPcm, symObjAddr: 0x4310, symBinAddr: 0x1000131A8, symSize: 0x14 }
  - { offset: 0x4F4D9, size: 0x8, addend: 0x0, symName: __ZNSt3__112basic_stringIcNS_11char_traitsIcEENS_9allocatorIcEEE18__set_long_pointerB8ne180100EPc, symObjAddr: 0x4324, symBinAddr: 0x1000131BC, symSize: 0x38 }
  - { offset: 0x4F50D, size: 0x8, addend: 0x0, symName: __ZNSt3__112basic_stringIcNS_11char_traitsIcEENS_9allocatorIcEEE14__set_long_capB8ne180100Em, symObjAddr: 0x435C, symBinAddr: 0x1000131F4, symSize: 0x70 }
  - { offset: 0x4F541, size: 0x8, addend: 0x0, symName: __ZNSt3__19allocatorIcE8allocateB8ne180100Em, symObjAddr: 0x4558, symBinAddr: 0x100013264, symSize: 0x58 }
  - { offset: 0x4F574, size: 0x8, addend: 0x0, symName: __ZNSt3__112basic_stringIcNS_11char_traitsIcEENS_9allocatorIcEEE10__align_itB8ne180100ILm8EEEmm, symObjAddr: 0x4694, symBinAddr: 0x1000132BC, symSize: 0x1C }
  - { offset: 0x4F5A2, size: 0x8, addend: 0x0, symName: __ZNKSt3__14__fs10filesystem4path6nativeB8ne180100Ev, symObjAddr: 0x4760, symBinAddr: 0x100013388, symSize: 0x14 }
  - { offset: 0x4F5CB, size: 0x8, addend: 0x0, symName: __ZNSt3__121__quoted_output_proxyIcNS_11char_traitsIcEEEC1B8ne180100EPKcS5_cc, symObjAddr: 0x48E4, symBinAddr: 0x1000134E4, symSize: 0x4C }
  - { offset: 0x4F630, size: 0x8, addend: 0x0, symName: __ZNSt3__121__quoted_output_proxyIcNS_11char_traitsIcEEEC2B8ne180100EPKcS5_cc, symObjAddr: 0x4930, symBinAddr: 0x100013530, symSize: 0x44 }
  - { offset: 0x4F695, size: 0x8, addend: 0x0, symName: __ZNSt3__112__hash_tableINS_17__hash_value_typeIiNS_12basic_stringIcNS_11char_traitsIcEENS_9allocatorIcEEEEEENS_22__unordered_map_hasherIiS8_NS_4hashIiEENS_8equal_toIiEELb1EEENS_21__unordered_map_equalIiS8_SD_SB_Lb1EEENS5_IS8_EEE15__insert_uniqueB8ne180100EONS_4pairIKiS7_EE, symObjAddr: 0x4974, symBinAddr: 0x100013574, symSize: 0x50 }
  - { offset: 0x4F6C8, size: 0x8, addend: 0x0, symName: __ZNSt3__14pairINS_19__hash_map_iteratorINS_15__hash_iteratorIPNS_11__hash_nodeINS_17__hash_value_typeIiNS_12basic_stringIcNS_11char_traitsIcEENS_9allocatorIcEEEEEEPvEEEEEEbEC1B8ne180100ISF_bLi0EEEONS0_IT_T0_EE, symObjAddr: 0x49C4, symBinAddr: 0x1000135C4, symSize: 0x34 }
  - { offset: 0x4F717, size: 0x8, addend: 0x0, symName: __ZNSt3__112__hash_tableINS_17__hash_value_typeIiNS_12basic_stringIcNS_11char_traitsIcEENS_9allocatorIcEEEEEENS_22__unordered_map_hasherIiS8_NS_4hashIiEENS_8equal_toIiEELb1EEENS_21__unordered_map_equalIiS8_SD_SB_Lb1EEENS5_IS8_EEE25__emplace_unique_key_argsIiJNS_4pairIKiS7_EEEEENSK_INS_15__hash_iteratorIPNS_11__hash_nodeIS8_PvEEEEbEERKT_DpOT0_, symObjAddr: 0x49F8, symBinAddr: 0x1000135F8, symSize: 0x4D8 }
  - { offset: 0x4F7F8, size: 0x8, addend: 0x0, symName: __ZNSt3__122__hash_key_value_typesINS_17__hash_value_typeIiNS_12basic_stringIcNS_11char_traitsIcEENS_9allocatorIcEEEEEEE9__get_keyB8ne180100ERKNS_4pairIKiS7_EE, symObjAddr: 0x4ED0, symBinAddr: 0x100013AD0, symSize: 0x14 }
  - { offset: 0x4F81B, size: 0x8, addend: 0x0, symName: __ZNSt3__112__hash_tableINS_17__hash_value_typeIiNS_12basic_stringIcNS_11char_traitsIcEENS_9allocatorIcEEEEEENS_22__unordered_map_hasherIiS8_NS_4hashIiEENS_8equal_toIiEELb1EEENS_21__unordered_map_equalIiS8_SD_SB_Lb1EEENS5_IS8_EEE13hash_functionB8ne180100Ev, symObjAddr: 0x4EE4, symBinAddr: 0x100013AE4, symSize: 0x28 }
  - { offset: 0x4F840, size: 0x8, addend: 0x0, symName: __ZNKSt3__122__unordered_map_hasherIiNS_17__hash_value_typeIiNS_12basic_stringIcNS_11char_traitsIcEENS_9allocatorIcEEEEEENS_4hashIiEENS_8equal_toIiEELb1EEclB8ne180100ERKi, symObjAddr: 0x4F0C, symBinAddr: 0x100013B0C, symSize: 0x30 }
  - { offset: 0x4F874, size: 0x8, addend: 0x0, symName: __ZNKSt3__112__hash_tableINS_17__hash_value_typeIiNS_12basic_stringIcNS_11char_traitsIcEENS_9allocatorIcEEEEEENS_22__unordered_map_hasherIiS8_NS_4hashIiEENS_8equal_toIiEELb1EEENS_21__unordered_map_equalIiS8_SD_SB_Lb1EEENS5_IS8_EEE12bucket_countB8ne180100Ev, symObjAddr: 0x4F3C, symBinAddr: 0x100013B3C, symSize: 0x28 }
  - { offset: 0x4F899, size: 0x8, addend: 0x0, symName: __ZNKSt3__110unique_ptrIA_PNS_16__hash_node_baseIPNS_11__hash_nodeINS_17__hash_value_typeIiNS_12basic_stringIcNS_11char_traitsIcEENS_9allocatorIcEEEEEEPvEEEENS_25__bucket_list_deallocatorINS7_ISF_EEEEEixB8ne180100Em, symObjAddr: 0x4FFC, symBinAddr: 0x100013BFC, symSize: 0x34 }
  - { offset: 0x4F8CD, size: 0x8, addend: 0x0, symName: __ZNKSt3__116__hash_node_baseIPNS_11__hash_nodeINS_17__hash_value_typeIiNS_12basic_stringIcNS_11char_traitsIcEENS_9allocatorIcEEEEEEPvEEE6__hashB8ne180100Ev, symObjAddr: 0x5030, symBinAddr: 0x100013C30, symSize: 0x18 }
  - { offset: 0x4F8F2, size: 0x8, addend: 0x0, symName: __ZNSt3__112__hash_tableINS_17__hash_value_typeIiNS_12basic_stringIcNS_11char_traitsIcEENS_9allocatorIcEEEEEENS_22__unordered_map_hasherIiS8_NS_4hashIiEENS_8equal_toIiEELb1EEENS_21__unordered_map_equalIiS8_SD_SB_Lb1EEENS5_IS8_EEE6key_eqB8ne180100Ev, symObjAddr: 0x5048, symBinAddr: 0x100013C48, symSize: 0x28 }
  - { offset: 0x4F917, size: 0x8, addend: 0x0, symName: __ZNKSt3__121__unordered_map_equalIiNS_17__hash_value_typeIiNS_12basic_stringIcNS_11char_traitsIcEENS_9allocatorIcEEEEEENS_8equal_toIiEENS_4hashIiEELb1EEclB8ne180100ERKS8_RKi, symObjAddr: 0x5070, symBinAddr: 0x100013C70, symSize: 0x48 }
  - { offset: 0x4F95A, size: 0x8, addend: 0x0, symName: __ZNSt3__112__hash_tableINS_17__hash_value_typeIiNS_12basic_stringIcNS_11char_traitsIcEENS_9allocatorIcEEEEEENS_22__unordered_map_hasherIiS8_NS_4hashIiEENS_8equal_toIiEELb1EEENS_21__unordered_map_equalIiS8_SD_SB_Lb1EEENS5_IS8_EEE21__construct_node_hashINS_4pairIKiS7_EEJEEENS_10unique_ptrINS_11__hash_nodeIS8_PvEENS_22__hash_node_destructorINS5_ISQ_EEEEEEmOT_DpOT0_, symObjAddr: 0x50B8, symBinAddr: 0x100013CB8, symSize: 0x13C }
  - { offset: 0x4F9CD, size: 0x8, addend: 0x0, symName: __ZNSt3__112__hash_tableINS_17__hash_value_typeIiNS_12basic_stringIcNS_11char_traitsIcEENS_9allocatorIcEEEEEENS_22__unordered_map_hasherIiS8_NS_4hashIiEENS_8equal_toIiEELb1EEENS_21__unordered_map_equalIiS8_SD_SB_Lb1EEENS5_IS8_EEE4sizeB8ne180100Ev, symObjAddr: 0x51F4, symBinAddr: 0x100013DF4, symSize: 0x28 }
  - { offset: 0x4F9F2, size: 0x8, addend: 0x0, symName: __ZNSt3__112__hash_tableINS_17__hash_value_typeIiNS_12basic_stringIcNS_11char_traitsIcEENS_9allocatorIcEEEEEENS_22__unordered_map_hasherIiS8_NS_4hashIiEENS_8equal_toIiEELb1EEENS_21__unordered_map_equalIiS8_SD_SB_Lb1EEENS5_IS8_EEE15max_load_factorB8ne180100Ev, symObjAddr: 0x521C, symBinAddr: 0x100013E1C, symSize: 0x28 }
  - { offset: 0x4FA17, size: 0x8, addend: 0x0, symName: __ZNSt3__112__hash_tableINS_17__hash_value_typeIiNS_12basic_stringIcNS_11char_traitsIcEENS_9allocatorIcEEEEEENS_22__unordered_map_hasherIiS8_NS_4hashIiEENS_8equal_toIiEELb1EEENS_21__unordered_map_equalIiS8_SD_SB_Lb1EEENS5_IS8_EEE15__rehash_uniqueB8ne180100Em, symObjAddr: 0x5244, symBinAddr: 0x100013E44, symSize: 0x2C }
  - { offset: 0x4FA4B, size: 0x8, addend: 0x0, symName: __ZNSt3__116__hash_node_baseIPNS_11__hash_nodeINS_17__hash_value_typeIiNS_12basic_stringIcNS_11char_traitsIcEENS_9allocatorIcEEEEEEPvEEE5__ptrB8ne180100Ev, symObjAddr: 0x5304, symBinAddr: 0x100013ED8, symSize: 0x24 }
  - { offset: 0x4FA70, size: 0x8, addend: 0x0, symName: __ZNKSt3__110unique_ptrINS_11__hash_nodeINS_17__hash_value_typeIiNS_12basic_stringIcNS_11char_traitsIcEENS_9allocatorIcEEEEEEPvEENS_22__hash_node_destructorINS6_ISB_EEEEEptB8ne180100Ev, symObjAddr: 0x5328, symBinAddr: 0x100013EFC, symSize: 0x28 }
  - { offset: 0x4FA95, size: 0x8, addend: 0x0, symName: __ZNKSt3__110unique_ptrINS_11__hash_nodeINS_17__hash_value_typeIiNS_12basic_stringIcNS_11char_traitsIcEENS_9allocatorIcEEEEEEPvEENS_22__hash_node_destructorINS6_ISB_EEEEE3getB8ne180100Ev, symObjAddr: 0x5350, symBinAddr: 0x100013F24, symSize: 0x28 }
  - { offset: 0x4FABA, size: 0x8, addend: 0x0, symName: __ZNSt3__110unique_ptrINS_11__hash_nodeINS_17__hash_value_typeIiNS_12basic_stringIcNS_11char_traitsIcEENS_9allocatorIcEEEEEEPvEENS_22__hash_node_destructorINS6_ISB_EEEEE7releaseB8ne180100Ev, symObjAddr: 0x5378, symBinAddr: 0x100013F4C, symSize: 0x44 }
  - { offset: 0x4FAED, size: 0x8, addend: 0x0, symName: __ZNSt3__110unique_ptrINS_11__hash_nodeINS_17__hash_value_typeIiNS_12basic_stringIcNS_11char_traitsIcEENS_9allocatorIcEEEEEEPvEENS_22__hash_node_destructorINS6_ISB_EEEEED1B8ne180100Ev, symObjAddr: 0x53BC, symBinAddr: 0x100013F90, symSize: 0x2C }
  - { offset: 0x4FB15, size: 0x8, addend: 0x0, symName: __ZNSt3__115__hash_iteratorIPNS_11__hash_nodeINS_17__hash_value_typeIiNS_12basic_stringIcNS_11char_traitsIcEENS_9allocatorIcEEEEEEPvEEEC1B8ne180100EPNS_16__hash_node_baseISC_EE, symObjAddr: 0x53E8, symBinAddr: 0x100013FBC, symSize: 0x34 }
  - { offset: 0x4FB56, size: 0x8, addend: 0x0, symName: __ZNSt3__14pairINS_15__hash_iteratorIPNS_11__hash_nodeINS_17__hash_value_typeIiNS_12basic_stringIcNS_11char_traitsIcEENS_9allocatorIcEEEEEEPvEEEEbEC1B8ne180100ISE_RbLi0EEEOT_OT0_, symObjAddr: 0x541C, symBinAddr: 0x100013FF0, symSize: 0x3C }
  - { offset: 0x4FBB3, size: 0x8, addend: 0x0, symName: __ZNSt3__117__compressed_pairImNS_22__unordered_map_hasherIiNS_17__hash_value_typeIiNS_12basic_stringIcNS_11char_traitsIcEENS_9allocatorIcEEEEEENS_4hashIiEENS_8equal_toIiEELb1EEEE6secondB8ne180100Ev, symObjAddr: 0x5458, symBinAddr: 0x10001402C, symSize: 0x24 }
  - { offset: 0x4FBD8, size: 0x8, addend: 0x0, symName: __ZNSt3__122__compressed_pair_elemINS_22__unordered_map_hasherIiNS_17__hash_value_typeIiNS_12basic_stringIcNS_11char_traitsIcEENS_9allocatorIcEEEEEENS_4hashIiEENS_8equal_toIiEELb1EEELi1ELb1EE5__getB8ne180100Ev, symObjAddr: 0x547C, symBinAddr: 0x100014050, symSize: 0x14 }
  - { offset: 0x4FBFD, size: 0x8, addend: 0x0, symName: __ZNKSt3__14hashIiEclB8ne180100Ei, symObjAddr: 0x5490, symBinAddr: 0x100014064, symSize: 0x18 }
  - { offset: 0x4FC31, size: 0x8, addend: 0x0, symName: __ZNKSt3__110unique_ptrIA_PNS_16__hash_node_baseIPNS_11__hash_nodeINS_17__hash_value_typeIiNS_12basic_stringIcNS_11char_traitsIcEENS_9allocatorIcEEEEEEPvEEEENS_25__bucket_list_deallocatorINS7_ISF_EEEEE11get_deleterB8ne180100Ev, symObjAddr: 0x54A8, symBinAddr: 0x10001407C, symSize: 0x24 }
  - { offset: 0x4FC56, size: 0x8, addend: 0x0, symName: __ZNKSt3__125__bucket_list_deallocatorINS_9allocatorIPNS_16__hash_node_baseIPNS_11__hash_nodeINS_17__hash_value_typeIiNS_12basic_stringIcNS_11char_traitsIcEENS1_IcEEEEEEPvEEEEEEE4sizeB8ne180100Ev, symObjAddr: 0x54CC, symBinAddr: 0x1000140A0, symSize: 0x28 }
  - { offset: 0x4FC7B, size: 0x8, addend: 0x0, symName: __ZNKSt3__117__compressed_pairIPPNS_16__hash_node_baseIPNS_11__hash_nodeINS_17__hash_value_typeIiNS_12basic_stringIcNS_11char_traitsIcEENS_9allocatorIcEEEEEEPvEEEENS_25__bucket_list_deallocatorINS7_ISF_EEEEE6secondB8ne180100Ev, symObjAddr: 0x54F4, symBinAddr: 0x1000140C8, symSize: 0x28 }
  - { offset: 0x4FCA0, size: 0x8, addend: 0x0, symName: __ZNKSt3__122__compressed_pair_elemINS_25__bucket_list_deallocatorINS_9allocatorIPNS_16__hash_node_baseIPNS_11__hash_nodeINS_17__hash_value_typeIiNS_12basic_stringIcNS_11char_traitsIcEENS2_IcEEEEEEPvEEEEEEEELi1ELb0EE5__getB8ne180100Ev, symObjAddr: 0x551C, symBinAddr: 0x1000140F0, symSize: 0x14 }
  - { offset: 0x4FCC5, size: 0x8, addend: 0x0, symName: __ZNKSt3__117__compressed_pairImNS_9allocatorIPNS_16__hash_node_baseIPNS_11__hash_nodeINS_17__hash_value_typeIiNS_12basic_stringIcNS_11char_traitsIcEENS1_IcEEEEEEPvEEEEEEE5firstB8ne180100Ev, symObjAddr: 0x5530, symBinAddr: 0x100014104, symSize: 0x24 }
  - { offset: 0x4FCEA, size: 0x8, addend: 0x0, symName: __ZNKSt3__122__compressed_pair_elemImLi0ELb0EE5__getB8ne180100Ev, symObjAddr: 0x5554, symBinAddr: 0x100014128, symSize: 0x14 }
  - { offset: 0x4FD0F, size: 0x8, addend: 0x0, symName: __ZNKSt3__117__compressed_pairIPPNS_16__hash_node_baseIPNS_11__hash_nodeINS_17__hash_value_typeIiNS_12basic_stringIcNS_11char_traitsIcEENS_9allocatorIcEEEEEEPvEEEENS_25__bucket_list_deallocatorINS7_ISF_EEEEE5firstB8ne180100Ev, symObjAddr: 0x5568, symBinAddr: 0x10001413C, symSize: 0x24 }
  - { offset: 0x4FD34, size: 0x8, addend: 0x0, symName: __ZNKSt3__122__compressed_pair_elemIPPNS_16__hash_node_baseIPNS_11__hash_nodeINS_17__hash_value_typeIiNS_12basic_stringIcNS_11char_traitsIcEENS_9allocatorIcEEEEEEPvEEEELi0ELb0EE5__getB8ne180100Ev, symObjAddr: 0x558C, symBinAddr: 0x100014160, symSize: 0x14 }
  - { offset: 0x4FD59, size: 0x8, addend: 0x0, symName: __ZNSt3__117__compressed_pairIfNS_21__unordered_map_equalIiNS_17__hash_value_typeIiNS_12basic_stringIcNS_11char_traitsIcEENS_9allocatorIcEEEEEENS_8equal_toIiEENS_4hashIiEELb1EEEE6secondB8ne180100Ev, symObjAddr: 0x55A0, symBinAddr: 0x100014174, symSize: 0x24 }
  - { offset: 0x4FD7E, size: 0x8, addend: 0x0, symName: __ZNSt3__122__compressed_pair_elemINS_21__unordered_map_equalIiNS_17__hash_value_typeIiNS_12basic_stringIcNS_11char_traitsIcEENS_9allocatorIcEEEEEENS_8equal_toIiEENS_4hashIiEELb1EEELi1ELb1EE5__getB8ne180100Ev, symObjAddr: 0x55C4, symBinAddr: 0x100014198, symSize: 0x14 }
  - { offset: 0x4FDA3, size: 0x8, addend: 0x0, symName: __ZNKSt3__18equal_toIiEclB8ne180100ERKiS3_, symObjAddr: 0x55D8, symBinAddr: 0x1000141AC, symSize: 0x34 }
  - { offset: 0x4FDE6, size: 0x8, addend: 0x0, symName: __ZNKSt3__117__hash_value_typeIiNS_12basic_stringIcNS_11char_traitsIcEENS_9allocatorIcEEEEE11__get_valueB8ne180100Ev, symObjAddr: 0x560C, symBinAddr: 0x1000141E0, symSize: 0x24 }
  - { offset: 0x4FE0A, size: 0x8, addend: 0x0, symName: __ZNSt3__116allocator_traitsINS_9allocatorINS_11__hash_nodeINS_17__hash_value_typeIiNS_12basic_stringIcNS_11char_traitsIcEENS1_IcEEEEEEPvEEEEE8allocateB8ne180100ERSC_m, symObjAddr: 0x5668, symBinAddr: 0x10001423C, symSize: 0x2C }
  - { offset: 0x4FE3C, size: 0x8, addend: 0x0, symName: __ZNSt3__122__hash_node_destructorINS_9allocatorINS_11__hash_nodeINS_17__hash_value_typeIiNS_12basic_stringIcNS_11char_traitsIcEENS1_IcEEEEEEPvEEEEEC1B8ne180100ERSC_b, symObjAddr: 0x5694, symBinAddr: 0x100014268, symSize: 0x48 }
  - { offset: 0x4FE87, size: 0x8, addend: 0x0, symName: __ZNSt3__110unique_ptrINS_11__hash_nodeINS_17__hash_value_typeIiNS_12basic_stringIcNS_11char_traitsIcEENS_9allocatorIcEEEEEEPvEENS_22__hash_node_destructorINS6_ISB_EEEEEC1B8ne180100ILb1EvEEPSB_NS_16__dependent_typeINS_27__unique_ptr_deleter_sfinaeISE_EEXT_EE20__good_rval_ref_typeE, symObjAddr: 0x56DC, symBinAddr: 0x1000142B0, symSize: 0x3C }
  - { offset: 0x4FED7, size: 0x8, addend: 0x0, symName: __ZNKSt3__110unique_ptrINS_11__hash_nodeINS_17__hash_value_typeIiNS_12basic_stringIcNS_11char_traitsIcEENS_9allocatorIcEEEEEEPvEENS_22__hash_node_destructorINS6_ISB_EEEEEdeB8ne180100Ev, symObjAddr: 0x5758, symBinAddr: 0x10001432C, symSize: 0x28 }
  - { offset: 0x4FEFB, size: 0x8, addend: 0x0, symName: __ZNSt3__116allocator_traitsINS_9allocatorINS_11__hash_nodeINS_17__hash_value_typeIiNS_12basic_stringIcNS_11char_traitsIcEENS1_IcEEEEEEPvEEEEE9constructB8ne180100INS_4pairIKiS8_EEJSH_EvEEvRSC_PT_DpOT0_, symObjAddr: 0x5780, symBinAddr: 0x100014354, symSize: 0x34 }
  - { offset: 0x4FF54, size: 0x8, addend: 0x0, symName: __ZNSt3__110unique_ptrINS_11__hash_nodeINS_17__hash_value_typeIiNS_12basic_stringIcNS_11char_traitsIcEENS_9allocatorIcEEEEEEPvEENS_22__hash_node_destructorINS6_ISB_EEEEE11get_deleterB8ne180100Ev, symObjAddr: 0x57B4, symBinAddr: 0x100014388, symSize: 0x24 }
  - { offset: 0x4FF79, size: 0x8, addend: 0x0, symName: __ZNSt3__19allocatorINS_11__hash_nodeINS_17__hash_value_typeIiNS_12basic_stringIcNS_11char_traitsIcEENS0_IcEEEEEEPvEEE8allocateB8ne180100Em, symObjAddr: 0x57D8, symBinAddr: 0x1000143AC, symSize: 0x5C }
  - { offset: 0x4FFB5, size: 0x8, addend: 0x0, symName: __ZNSt3__116allocator_traitsINS_9allocatorINS_11__hash_nodeINS_17__hash_value_typeIiNS_12basic_stringIcNS_11char_traitsIcEENS1_IcEEEEEEPvEEEEE8max_sizeB8ne180100ISC_vEEmRKSC_, symObjAddr: 0x5834, symBinAddr: 0x100014408, symSize: 0x24 }
  - { offset: 0x4FFE3, size: 0x8, addend: 0x0, symName: __ZNKSt3__19allocatorINS_11__hash_nodeINS_17__hash_value_typeIiNS_12basic_stringIcNS_11char_traitsIcEENS0_IcEEEEEEPvEEE8max_sizeB8ne180100Ev, symObjAddr: 0x5858, symBinAddr: 0x10001442C, symSize: 0x18 }
  - { offset: 0x50008, size: 0x8, addend: 0x0, symName: __ZNSt3__122__hash_node_destructorINS_9allocatorINS_11__hash_nodeINS_17__hash_value_typeIiNS_12basic_stringIcNS_11char_traitsIcEENS1_IcEEEEEEPvEEEEEC2B8ne180100ERSC_b, symObjAddr: 0x5870, symBinAddr: 0x100014444, symSize: 0x38 }
  - { offset: 0x5004E, size: 0x8, addend: 0x0, symName: __ZNSt3__110unique_ptrINS_11__hash_nodeINS_17__hash_value_typeIiNS_12basic_stringIcNS_11char_traitsIcEENS_9allocatorIcEEEEEEPvEENS_22__hash_node_destructorINS6_ISB_EEEEEC2B8ne180100ILb1EvEEPSB_NS_16__dependent_typeINS_27__unique_ptr_deleter_sfinaeISE_EEXT_EE20__good_rval_ref_typeE, symObjAddr: 0x58A8, symBinAddr: 0x10001447C, symSize: 0x48 }
  - { offset: 0x5009D, size: 0x8, addend: 0x0, symName: __ZNSt3__117__compressed_pairIPNS_11__hash_nodeINS_17__hash_value_typeIiNS_12basic_stringIcNS_11char_traitsIcEENS_9allocatorIcEEEEEEPvEENS_22__hash_node_destructorINS6_ISB_EEEEEC1B8ne180100IRSC_SF_EEOT_OT0_, symObjAddr: 0x58F0, symBinAddr: 0x1000144C4, symSize: 0x3C }
  - { offset: 0x500F3, size: 0x8, addend: 0x0, symName: __ZNSt3__117__compressed_pairIPNS_11__hash_nodeINS_17__hash_value_typeIiNS_12basic_stringIcNS_11char_traitsIcEENS_9allocatorIcEEEEEEPvEENS_22__hash_node_destructorINS6_ISB_EEEEEC2B8ne180100IRSC_SF_EEOT_OT0_, symObjAddr: 0x592C, symBinAddr: 0x100014500, symSize: 0x48 }
  - { offset: 0x5014A, size: 0x8, addend: 0x0, symName: __ZNSt3__122__compressed_pair_elemIPNS_11__hash_nodeINS_17__hash_value_typeIiNS_12basic_stringIcNS_11char_traitsIcEENS_9allocatorIcEEEEEEPvEELi0ELb0EEC2B8ne180100IRSC_vEEOT_, symObjAddr: 0x5974, symBinAddr: 0x100014548, symSize: 0x24 }
  - { offset: 0x5018B, size: 0x8, addend: 0x0, symName: __ZNSt3__122__compressed_pair_elemINS_22__hash_node_destructorINS_9allocatorINS_11__hash_nodeINS_17__hash_value_typeIiNS_12basic_stringIcNS_11char_traitsIcEENS2_IcEEEEEEPvEEEEEELi1ELb0EEC2B8ne180100ISE_vEEOT_, symObjAddr: 0x5998, symBinAddr: 0x10001456C, symSize: 0x24 }
  - { offset: 0x501CB, size: 0x8, addend: 0x0, symName: __ZNSt3__111__hash_nodeINS_17__hash_value_typeIiNS_12basic_stringIcNS_11char_traitsIcEENS_9allocatorIcEEEEEEPvEC1B8ne180100EPNS_16__hash_node_baseIPSA_EEm, symObjAddr: 0x59BC, symBinAddr: 0x100014590, symSize: 0x3C }
  - { offset: 0x5020F, size: 0x8, addend: 0x0, symName: __ZNSt3__111__hash_nodeINS_17__hash_value_typeIiNS_12basic_stringIcNS_11char_traitsIcEENS_9allocatorIcEEEEEEPvEC2B8ne180100EPNS_16__hash_node_baseIPSA_EEm, symObjAddr: 0x59F8, symBinAddr: 0x1000145CC, symSize: 0x40 }
  - { offset: 0x50254, size: 0x8, addend: 0x0, symName: __ZNSt3__116__hash_node_baseIPNS_11__hash_nodeINS_17__hash_value_typeIiNS_12basic_stringIcNS_11char_traitsIcEENS_9allocatorIcEEEEEEPvEEEC2B8ne180100EPSD_, symObjAddr: 0x5A38, symBinAddr: 0x10001460C, symSize: 0x20 }
  - { offset: 0x5028B, size: 0x8, addend: 0x0, symName: __ZNKSt3__117__compressed_pairIPNS_11__hash_nodeINS_17__hash_value_typeIiNS_12basic_stringIcNS_11char_traitsIcEENS_9allocatorIcEEEEEEPvEENS_22__hash_node_destructorINS6_ISB_EEEEE5firstB8ne180100Ev, symObjAddr: 0x5A58, symBinAddr: 0x10001462C, symSize: 0x24 }
  - { offset: 0x502B0, size: 0x8, addend: 0x0, symName: __ZNKSt3__122__compressed_pair_elemIPNS_11__hash_nodeINS_17__hash_value_typeIiNS_12basic_stringIcNS_11char_traitsIcEENS_9allocatorIcEEEEEEPvEELi0ELb0EE5__getB8ne180100Ev, symObjAddr: 0x5A7C, symBinAddr: 0x100014650, symSize: 0x14 }
  - { offset: 0x502D5, size: 0x8, addend: 0x0, symName: __ZNSt3__19allocatorINS_11__hash_nodeINS_17__hash_value_typeIiNS_12basic_stringIcNS_11char_traitsIcEENS0_IcEEEEEEPvEEE9constructB8ne180100INS_4pairIKiS7_EEJSF_EEEvPT_DpOT0_, symObjAddr: 0x5A90, symBinAddr: 0x100014664, symSize: 0x30 }
  - { offset: 0x5032B, size: 0x8, addend: 0x0, symName: __ZNSt3__14pairIKiNS_12basic_stringIcNS_11char_traitsIcEENS_9allocatorIcEEEEEC1B8ne180100EOS8_, symObjAddr: 0x5AC0, symBinAddr: 0x100014694, symSize: 0x34 }
  - { offset: 0x5035E, size: 0x8, addend: 0x0, symName: __ZNSt3__14pairIKiNS_12basic_stringIcNS_11char_traitsIcEENS_9allocatorIcEEEEEC2B8ne180100EOS8_, symObjAddr: 0x5AF4, symBinAddr: 0x1000146C8, symSize: 0x48 }
  - { offset: 0x50392, size: 0x8, addend: 0x0, symName: __ZNSt3__117__compressed_pairIPNS_11__hash_nodeINS_17__hash_value_typeIiNS_12basic_stringIcNS_11char_traitsIcEENS_9allocatorIcEEEEEEPvEENS_22__hash_node_destructorINS6_ISB_EEEEE6secondB8ne180100Ev, symObjAddr: 0x5B3C, symBinAddr: 0x100014710, symSize: 0x28 }
  - { offset: 0x503B7, size: 0x8, addend: 0x0, symName: __ZNSt3__122__compressed_pair_elemINS_22__hash_node_destructorINS_9allocatorINS_11__hash_nodeINS_17__hash_value_typeIiNS_12basic_stringIcNS_11char_traitsIcEENS2_IcEEEEEEPvEEEEEELi1ELb0EE5__getB8ne180100Ev, symObjAddr: 0x5B64, symBinAddr: 0x100014738, symSize: 0x14 }
  - { offset: 0x503DC, size: 0x8, addend: 0x0, symName: __ZNSt3__117__compressed_pairImNS_22__unordered_map_hasherIiNS_17__hash_value_typeIiNS_12basic_stringIcNS_11char_traitsIcEENS_9allocatorIcEEEEEENS_4hashIiEENS_8equal_toIiEELb1EEEE5firstB8ne180100Ev, symObjAddr: 0x5B78, symBinAddr: 0x10001474C, symSize: 0x24 }
  - { offset: 0x50401, size: 0x8, addend: 0x0, symName: __ZNSt3__117__compressed_pairIfNS_21__unordered_map_equalIiNS_17__hash_value_typeIiNS_12basic_stringIcNS_11char_traitsIcEENS_9allocatorIcEEEEEENS_8equal_toIiEENS_4hashIiEELb1EEEE5firstB8ne180100Ev, symObjAddr: 0x5B9C, symBinAddr: 0x100014770, symSize: 0x24 }
  - { offset: 0x50426, size: 0x8, addend: 0x0, symName: __ZNSt3__122__compressed_pair_elemIfLi0ELb0EE5__getB8ne180100Ev, symObjAddr: 0x5BC0, symBinAddr: 0x100014794, symSize: 0x14 }
  - { offset: 0x5044B, size: 0x8, addend: 0x0, symName: __ZNSt3__112__hash_tableINS_17__hash_value_typeIiNS_12basic_stringIcNS_11char_traitsIcEENS_9allocatorIcEEEEEENS_22__unordered_map_hasherIiS8_NS_4hashIiEENS_8equal_toIiEELb1EEENS_21__unordered_map_equalIiS8_SD_SB_Lb1EEENS5_IS8_EEE8__rehashILb1EEEvm, symObjAddr: 0x5BD4, symBinAddr: 0x1000147A8, symSize: 0x1A8 }
  - { offset: 0x5049A, size: 0x8, addend: 0x0, symName: __ZNSt3__112__hash_tableINS_17__hash_value_typeIiNS_12basic_stringIcNS_11char_traitsIcEENS_9allocatorIcEEEEEENS_22__unordered_map_hasherIiS8_NS_4hashIiEENS_8equal_toIiEELb1EEENS_21__unordered_map_equalIiS8_SD_SB_Lb1EEENS5_IS8_EEE11__do_rehashILb1EEEvm, symObjAddr: 0x5D7C, symBinAddr: 0x100014950, symSize: 0x288 }
  - { offset: 0x50580, size: 0x8, addend: 0x0, symName: __ZNSt3__110unique_ptrIA_PNS_16__hash_node_baseIPNS_11__hash_nodeINS_17__hash_value_typeIiNS_12basic_stringIcNS_11char_traitsIcEENS_9allocatorIcEEEEEEPvEEEENS_25__bucket_list_deallocatorINS7_ISF_EEEEE11get_deleterB8ne180100Ev, symObjAddr: 0x6070, symBinAddr: 0x100014C44, symSize: 0x24 }
  - { offset: 0x505A5, size: 0x8, addend: 0x0, symName: __ZNSt3__110unique_ptrIA_PNS_16__hash_node_baseIPNS_11__hash_nodeINS_17__hash_value_typeIiNS_12basic_stringIcNS_11char_traitsIcEENS_9allocatorIcEEEEEEPvEEEENS_25__bucket_list_deallocatorINS7_ISF_EEEEE5resetB8ne180100IPSF_Li0EEEvT_, symObjAddr: 0x6094, symBinAddr: 0x100014C68, symSize: 0x78 }
  - { offset: 0x505F6, size: 0x8, addend: 0x0, symName: __ZNSt3__116allocator_traitsINS_9allocatorIPNS_16__hash_node_baseIPNS_11__hash_nodeINS_17__hash_value_typeIiNS_12basic_stringIcNS_11char_traitsIcEENS1_IcEEEEEEPvEEEEEEE8allocateB8ne180100ERSG_m, symObjAddr: 0x610C, symBinAddr: 0x100014CE0, symSize: 0x2C }
  - { offset: 0x50629, size: 0x8, addend: 0x0, symName: __ZNSt3__19allocatorIPNS_16__hash_node_baseIPNS_11__hash_nodeINS_17__hash_value_typeIiNS_12basic_stringIcNS_11char_traitsIcEENS0_IcEEEEEEPvEEEEE8allocateB8ne180100Em, symObjAddr: 0x6138, symBinAddr: 0x100014D0C, symSize: 0x58 }
  - { offset: 0x50665, size: 0x8, addend: 0x0, symName: __ZNSt3__116allocator_traitsINS_9allocatorIPNS_16__hash_node_baseIPNS_11__hash_nodeINS_17__hash_value_typeIiNS_12basic_stringIcNS_11char_traitsIcEENS1_IcEEEEEEPvEEEEEEE8max_sizeB8ne180100ISG_vEEmRKSG_, symObjAddr: 0x6190, symBinAddr: 0x100014D64, symSize: 0x24 }
  - { offset: 0x50693, size: 0x8, addend: 0x0, symName: __ZNKSt3__19allocatorIPNS_16__hash_node_baseIPNS_11__hash_nodeINS_17__hash_value_typeIiNS_12basic_stringIcNS_11char_traitsIcEENS0_IcEEEEEEPvEEEEE8max_sizeB8ne180100Ev, symObjAddr: 0x61B4, symBinAddr: 0x100014D88, symSize: 0x14 }
  - { offset: 0x506B8, size: 0x8, addend: 0x0, symName: __ZNSt3__117__compressed_pairIPNS_11__hash_nodeINS_17__hash_value_typeIiNS_12basic_stringIcNS_11char_traitsIcEENS_9allocatorIcEEEEEEPvEENS_22__hash_node_destructorINS6_ISB_EEEEE5firstB8ne180100Ev, symObjAddr: 0x626C, symBinAddr: 0x100014DB8, symSize: 0x24 }
  - { offset: 0x506DD, size: 0x8, addend: 0x0, symName: __ZNSt3__122__compressed_pair_elemIPNS_11__hash_nodeINS_17__hash_value_typeIiNS_12basic_stringIcNS_11char_traitsIcEENS_9allocatorIcEEEEEEPvEELi0ELb0EE5__getB8ne180100Ev, symObjAddr: 0x6290, symBinAddr: 0x100014DDC, symSize: 0x14 }
  - { offset: 0x50701, size: 0x8, addend: 0x0, symName: __ZNSt3__110unique_ptrINS_11__hash_nodeINS_17__hash_value_typeIiNS_12basic_stringIcNS_11char_traitsIcEENS_9allocatorIcEEEEEEPvEENS_22__hash_node_destructorINS6_ISB_EEEEED2B8ne180100Ev, symObjAddr: 0x62A4, symBinAddr: 0x100014DF0, symSize: 0x30 }
  - { offset: 0x5072A, size: 0x8, addend: 0x0, symName: __ZNSt3__110unique_ptrINS_11__hash_nodeINS_17__hash_value_typeIiNS_12basic_stringIcNS_11char_traitsIcEENS_9allocatorIcEEEEEEPvEENS_22__hash_node_destructorINS6_ISB_EEEEE5resetB8ne180100EPSB_, symObjAddr: 0x62D4, symBinAddr: 0x100014E20, symSize: 0x78 }
  - { offset: 0x5076D, size: 0x8, addend: 0x0, symName: __ZNSt3__122__hash_node_destructorINS_9allocatorINS_11__hash_nodeINS_17__hash_value_typeIiNS_12basic_stringIcNS_11char_traitsIcEENS1_IcEEEEEEPvEEEEEclB8ne180100EPSB_, symObjAddr: 0x634C, symBinAddr: 0x100014E98, symSize: 0xA0 }
  - { offset: 0x507A1, size: 0x8, addend: 0x0, symName: __ZNSt3__115__hash_iteratorIPNS_11__hash_nodeINS_17__hash_value_typeIiNS_12basic_stringIcNS_11char_traitsIcEENS_9allocatorIcEEEEEEPvEEEC2B8ne180100EPNS_16__hash_node_baseISC_EE, symObjAddr: 0x63EC, symBinAddr: 0x100014F38, symSize: 0x20 }
  - { offset: 0x507D9, size: 0x8, addend: 0x0, symName: __ZNSt3__14pairINS_15__hash_iteratorIPNS_11__hash_nodeINS_17__hash_value_typeIiNS_12basic_stringIcNS_11char_traitsIcEENS_9allocatorIcEEEEEEPvEEEEbEC2B8ne180100ISE_RbLi0EEEOT_OT0_, symObjAddr: 0x640C, symBinAddr: 0x100014F58, symSize: 0x38 }
  - { offset: 0x50835, size: 0x8, addend: 0x0, symName: __ZNSt3__14pairINS_19__hash_map_iteratorINS_15__hash_iteratorIPNS_11__hash_nodeINS_17__hash_value_typeIiNS_12basic_stringIcNS_11char_traitsIcEENS_9allocatorIcEEEEEEPvEEEEEEbEC2B8ne180100ISF_bLi0EEEONS0_IT_T0_EE, symObjAddr: 0x6444, symBinAddr: 0x100014F90, symSize: 0x50 }
  - { offset: 0x50883, size: 0x8, addend: 0x0, symName: __ZNSt3__119__hash_map_iteratorINS_15__hash_iteratorIPNS_11__hash_nodeINS_17__hash_value_typeIiNS_12basic_stringIcNS_11char_traitsIcEENS_9allocatorIcEEEEEEPvEEEEEC1B8ne180100ESE_, symObjAddr: 0x6494, symBinAddr: 0x100014FE0, symSize: 0x34 }
  - { offset: 0x508BB, size: 0x8, addend: 0x0, symName: __ZNSt3__119__hash_map_iteratorINS_15__hash_iteratorIPNS_11__hash_nodeINS_17__hash_value_typeIiNS_12basic_stringIcNS_11char_traitsIcEENS_9allocatorIcEEEEEEPvEEEEEC2B8ne180100ESE_, symObjAddr: 0x64C8, symBinAddr: 0x100015014, symSize: 0x20 }
  - { offset: 0x508F3, size: 0x8, addend: 0x0, symName: __ZNSt3__113unordered_mapIiNS_12basic_stringIcNS_11char_traitsIcEENS_9allocatorIcEEEENS_4hashIiEENS_8equal_toIiEENS4_INS_4pairIKiS6_EEEEE4findB8ne180100ERSC_, symObjAddr: 0x64E8, symBinAddr: 0x100015034, symSize: 0x40 }
  - { offset: 0x50927, size: 0x8, addend: 0x0, symName: __ZNSt3__113unordered_mapIiNS_12basic_stringIcNS_11char_traitsIcEENS_9allocatorIcEEEENS_4hashIiEENS_8equal_toIiEENS4_INS_4pairIKiS6_EEEEE3endB8ne180100Ev, symObjAddr: 0x6558, symBinAddr: 0x1000150A4, symSize: 0x38 }
  - { offset: 0x5094C, size: 0x8, addend: 0x0, symName: __ZNKSt3__119__hash_map_iteratorINS_15__hash_iteratorIPNS_11__hash_nodeINS_17__hash_value_typeIiNS_12basic_stringIcNS_11char_traitsIcEENS_9allocatorIcEEEEEEPvEEEEEptB8ne180100Ev, symObjAddr: 0x65F4, symBinAddr: 0x1000150DC, symSize: 0x2C }
  - { offset: 0x50971, size: 0x8, addend: 0x0, symName: __ZNSt3__112__hash_tableINS_17__hash_value_typeIiNS_12basic_stringIcNS_11char_traitsIcEENS_9allocatorIcEEEEEENS_22__unordered_map_hasherIiS8_NS_4hashIiEENS_8equal_toIiEELb1EEENS_21__unordered_map_equalIiS8_SD_SB_Lb1EEENS5_IS8_EEE4findIiEENS_15__hash_iteratorIPNS_11__hash_nodeIS8_PvEEEERKT_, symObjAddr: 0x6620, symBinAddr: 0x100015108, symSize: 0x1B0 }
  - { offset: 0x509FB, size: 0x8, addend: 0x0, symName: __ZNSt3__112__hash_tableINS_17__hash_value_typeIiNS_12basic_stringIcNS_11char_traitsIcEENS_9allocatorIcEEEEEENS_22__unordered_map_hasherIiS8_NS_4hashIiEENS_8equal_toIiEELb1EEENS_21__unordered_map_equalIiS8_SD_SB_Lb1EEENS5_IS8_EEE3endEv, symObjAddr: 0x67D0, symBinAddr: 0x1000152B8, symSize: 0x2C }
  - { offset: 0x50A22, size: 0x8, addend: 0x0, symName: __ZNSt3__114pointer_traitsIPNS_4pairIKiNS_12basic_stringIcNS_11char_traitsIcEENS_9allocatorIcEEEEEEE10pointer_toB8ne180100ERS9_, symObjAddr: 0x68A4, symBinAddr: 0x100015314, symSize: 0x14 }
  - { offset: 0x50A45, size: 0x8, addend: 0x0, symName: __ZNKSt3__115__hash_iteratorIPNS_11__hash_nodeINS_17__hash_value_typeIiNS_12basic_stringIcNS_11char_traitsIcEENS_9allocatorIcEEEEEEPvEEEptB8ne180100Ev, symObjAddr: 0x68B8, symBinAddr: 0x100015328, symSize: 0x30 }
  - { offset: 0x50A6A, size: 0x8, addend: 0x0, symName: __ZNSt3__114pointer_traitsIPNS_17__hash_value_typeIiNS_12basic_stringIcNS_11char_traitsIcEENS_9allocatorIcEEEEEEE10pointer_toB8ne180100ERS8_, symObjAddr: 0x68E8, symBinAddr: 0x100015358, symSize: 0x14 }
  - { offset: 0x50A8D, size: 0x8, addend: 0x0, symName: __ZNKSt3__16__treeIiNS_4lessIiEENS_9allocatorIiEEE4findIiEENS_21__tree_const_iteratorIiPNS_11__tree_nodeIiPvEElEERKT_, symObjAddr: 0x68FC, symBinAddr: 0x10001536C, symSize: 0xF8 }
  - { offset: 0x50ADB, size: 0x8, addend: 0x0, symName: __ZNKSt3__16__treeIiNS_4lessIiEENS_9allocatorIiEEE13__lower_boundIiEENS_21__tree_const_iteratorIiPNS_11__tree_nodeIiPvEElEERKT_SB_PNS_15__tree_end_nodeIPNS_16__tree_node_baseIS9_EEEE, symObjAddr: 0x69F4, symBinAddr: 0x100015464, symSize: 0xA4 }
  - { offset: 0x50B38, size: 0x8, addend: 0x0, symName: __ZNKSt3__16__treeIiNS_4lessIiEENS_9allocatorIiEEE6__rootB8ne180100Ev, symObjAddr: 0x6A98, symBinAddr: 0x100015508, symSize: 0x28 }
  - { offset: 0x50B5D, size: 0x8, addend: 0x0, symName: __ZNKSt3__16__treeIiNS_4lessIiEENS_9allocatorIiEEE10__end_nodeB8ne180100Ev, symObjAddr: 0x6AC0, symBinAddr: 0x100015530, symSize: 0x2C }
  - { offset: 0x50B82, size: 0x8, addend: 0x0, symName: __ZNKSt3__16__treeIiNS_4lessIiEENS_9allocatorIiEEE3endB8ne180100Ev, symObjAddr: 0x6B20, symBinAddr: 0x100015590, symSize: 0x34 }
  - { offset: 0x50BA7, size: 0x8, addend: 0x0, symName: __ZNKSt3__16__treeIiNS_4lessIiEENS_9allocatorIiEEE10value_compB8ne180100Ev, symObjAddr: 0x6B54, symBinAddr: 0x1000155C4, symSize: 0x28 }
  - { offset: 0x50BCC, size: 0x8, addend: 0x0, symName: __ZNKSt3__14lessIiEclB8ne180100ERKiS3_, symObjAddr: 0x6B7C, symBinAddr: 0x1000155EC, symSize: 0x34 }
  - { offset: 0x50C0F, size: 0x8, addend: 0x0, symName: __ZNKSt3__121__tree_const_iteratorIiPNS_11__tree_nodeIiPvEElEdeB8ne180100Ev, symObjAddr: 0x6BB0, symBinAddr: 0x100015620, symSize: 0x28 }
  - { offset: 0x50C33, size: 0x8, addend: 0x0, symName: __ZNSt3__121__tree_const_iteratorIiPNS_11__tree_nodeIiPvEElEC1B8ne180100EPNS_15__tree_end_nodeIPNS_16__tree_node_baseIS2_EEEE, symObjAddr: 0x6BD8, symBinAddr: 0x100015648, symSize: 0x34 }
  - { offset: 0x50C6B, size: 0x8, addend: 0x0, symName: __ZNSt3__121__tree_const_iteratorIiPNS_11__tree_nodeIiPvEElEC2B8ne180100EPNS_15__tree_end_nodeIPNS_16__tree_node_baseIS2_EEEE, symObjAddr: 0x6C0C, symBinAddr: 0x10001567C, symSize: 0x20 }
  - { offset: 0x50CA3, size: 0x8, addend: 0x0, symName: __ZNSt3__114pointer_traitsIPNS_15__tree_end_nodeIPNS_16__tree_node_baseIPvEEEEE10pointer_toB8ne180100ERS6_, symObjAddr: 0x6C2C, symBinAddr: 0x10001569C, symSize: 0x14 }
  - { offset: 0x50CC6, size: 0x8, addend: 0x0, symName: __ZNKSt3__117__compressed_pairINS_15__tree_end_nodeIPNS_16__tree_node_baseIPvEEEENS_9allocatorINS_11__tree_nodeIiS3_EEEEE5firstB8ne180100Ev, symObjAddr: 0x6C40, symBinAddr: 0x1000156B0, symSize: 0x24 }
  - { offset: 0x50CEB, size: 0x8, addend: 0x0, symName: __ZNKSt3__122__compressed_pair_elemINS_15__tree_end_nodeIPNS_16__tree_node_baseIPvEEEELi0ELb0EE5__getB8ne180100Ev, symObjAddr: 0x6C64, symBinAddr: 0x1000156D4, symSize: 0x14 }
  - { offset: 0x50D10, size: 0x8, addend: 0x0, symName: __ZNKSt3__117__compressed_pairImNS_4lessIiEEE6secondB8ne180100Ev, symObjAddr: 0x6C78, symBinAddr: 0x1000156E8, symSize: 0x24 }
  - { offset: 0x50D35, size: 0x8, addend: 0x0, symName: __ZNKSt3__122__compressed_pair_elemINS_4lessIiEELi1ELb1EE5__getB8ne180100Ev, symObjAddr: 0x6C9C, symBinAddr: 0x10001570C, symSize: 0x14 }
  - { offset: 0x50D5A, size: 0x8, addend: 0x0, symName: __ZNKSt3__121__tree_const_iteratorIiPNS_11__tree_nodeIiPvEElE8__get_npB8ne180100Ev, symObjAddr: 0x6CB0, symBinAddr: 0x100015720, symSize: 0x18 }
...
